	.text
	.file	"pocketfft_demo.cc"
	.section	.rodata.cst16,"aM",@progbits,16
	.p2align	4                               // -- Begin function main
.LCPI0_0:
	.xword	0x0000000000000000              // fp128 1
	.xword	0x3fff000000000000
	.text
	.globl	main
	.p2align	2
	.type	main,@function
main:                                   // @main
.Lfunc_begin0:
	.cfi_startproc
	.cfi_personality 156, DW.ref.__gxx_personality_v0
	.cfi_lsda 28, .Lexception0
// %bb.0:
	sub	sp, sp, #400
	str	d8, [sp, #288]                  // 8-byte Folded Spill
	stp	x29, x30, [sp, #304]            // 16-byte Folded Spill
	add	x29, sp, #304
	stp	x28, x27, [sp, #320]            // 16-byte Folded Spill
	stp	x26, x25, [sp, #336]            // 16-byte Folded Spill
	stp	x24, x23, [sp, #352]            // 16-byte Folded Spill
	stp	x22, x21, [sp, #368]            // 16-byte Folded Spill
	stp	x20, x19, [sp, #384]            // 16-byte Folded Spill
	.cfi_def_cfa w29, 96
	.cfi_offset w19, -8
	.cfi_offset w20, -16
	.cfi_offset w21, -24
	.cfi_offset w22, -32
	.cfi_offset w23, -40
	.cfi_offset w24, -48
	.cfi_offset w25, -56
	.cfi_offset w26, -64
	.cfi_offset w27, -72
	.cfi_offset w28, -80
	.cfi_offset w30, -88
	.cfi_offset w29, -96
	.cfi_offset b8, -112
	fmov	v0.2d, #-0.50000000
	adrp	x8, .LCPI0_0
	mov	x22, #-7
	mov	w26, #1
	movk	x22, #32767, lsl #48
	str	q0, [sp, #80]                   // 16-byte Folded Spill
	ldr	q0, [x8, :lo12:.LCPI0_0]
	str	q0, [sp]                        // 16-byte Folded Spill
	b	.LBB0_2
.LBB0_1:                                //   in Loop: Header=BB0_2 Depth=1
	add	x26, x26, #1
	cmp	x26, #2, lsl #12                // =8192
	b.eq	.LBB0_108
.LBB0_2:                                // =>This Loop Header: Depth=1
                                        //     Child Loop BB0_18 Depth 2
                                        //     Child Loop BB0_24 Depth 2
                                        //     Child Loop BB0_27 Depth 2
                                        //     Child Loop BB0_37 Depth 2
                                        //     Child Loop BB0_40 Depth 2
                                        //     Child Loop BB0_45 Depth 2
	stp	xzr, xzr, [x29, #-48]
	stur	xzr, [x29, #-32]
.Ltmp0:
	mov	w0, #8
	bl	_Znwm
.Ltmp1:
// %bb.3:                               //   in Loop: Header=BB0_2 Depth=1
	stp	xzr, x0, [x29, #-56]
	str	x26, [x0], #8
	stp	x0, x0, [x29, #-40]
	stp	xzr, xzr, [x29, #-72]
.Ltmp3:
	mov	w0, #8
	bl	_Znwm
.Ltmp4:
// %bb.4:                               //   in Loop: Header=BB0_2 Depth=1
	ldp	x9, x8, [x29, #-48]
	stur	x0, [x29, #-72]
	str	xzr, [x0], #8
	stp	x0, x0, [x29, #-64]
	sub	x20, x8, x9
	cmp	x20, x22
	b.hs	.LBB0_117
// %bb.5:                               //   in Loop: Header=BB0_2 Depth=1
	stp	xzr, xzr, [x29, #-96]
	stur	xzr, [x29, #-80]
	cbz	x20, .LBB0_9
// %bb.6:                               //   in Loop: Header=BB0_2 Depth=1
.Ltmp6:
	mov	x0, x20
	bl	_Znwm
.Ltmp7:
// %bb.7:                               //   in Loop: Header=BB0_2 Depth=1
	asr	x8, x20, #3
	subs	x2, x20, #8
	stur	x0, [x29, #-96]
	add	x19, x0, x8, lsl #3
	str	xzr, [x0], #8
	stur	x19, [x29, #-80]
	b.eq	.LBB0_10
// %bb.8:                               //   in Loop: Header=BB0_2 Depth=1
	mov	w1, wzr
	bl	memset
	mov	x0, x19
	b	.LBB0_10
.LBB0_9:                                //   in Loop: Header=BB0_2 Depth=1
	mov	x0, xzr
	stp	xzr, xzr, [x29, #-96]
	stur	xzr, [x29, #-80]
.LBB0_10:                               //   in Loop: Header=BB0_2 Depth=1
	ldp	x9, x8, [x29, #-48]
	stur	x0, [x29, #-88]
	sub	x21, x8, x9
	cmp	x21, x22
	b.hs	.LBB0_119
// %bb.11:                              //   in Loop: Header=BB0_2 Depth=1
	stp	xzr, xzr, [x29, #-120]
	stur	xzr, [x29, #-104]
	cbz	x21, .LBB0_16
// %bb.12:                              //   in Loop: Header=BB0_2 Depth=1
.Ltmp9:
	mov	x0, x21
	bl	_Znwm
.Ltmp10:
// %bb.13:                              //   in Loop: Header=BB0_2 Depth=1
	asr	x8, x21, #3
	mov	x20, x0
	subs	x2, x21, #8
	stur	x0, [x29, #-120]
	add	x19, x0, x8, lsl #3
	str	xzr, [x0], #8
	stur	x19, [x29, #-104]
	b.eq	.LBB0_15
// %bb.14:                              //   in Loop: Header=BB0_2 Depth=1
	mov	w1, wzr
	bl	memset
	mov	x0, x19
.LBB0_15:                               //   in Loop: Header=BB0_2 Depth=1
	ldp	x8, x9, [x29, #-48]
	stur	x0, [x29, #-112]
	sub	x10, x9, x8
	asr	x9, x10, #3
	subs	w11, w9, #1
	b.pl	.LBB0_17
	b	.LBB0_19
.LBB0_16:                               //   in Loop: Header=BB0_2 Depth=1
	mov	x20, xzr
	mov	x0, xzr
	stp	xzr, xzr, [x29, #-120]
	stp	x0, xzr, [x29, #-112]
	ldp	x8, x9, [x29, #-48]
	sub	x10, x9, x8
	asr	x9, x10, #3
	subs	w11, w9, #1
	b.mi	.LBB0_19
.LBB0_17:                               //   in Loop: Header=BB0_2 Depth=1
	ldur	x14, [x29, #-72]
	lsl	x16, x11, #3
	ldur	x15, [x29, #-96]
	mov	w11, w9
	add	x12, x8, x16
	add	x13, x20, x16
	add	x14, x14, x16
	mov	w17, #16
	add	x15, x15, x16
	mov	w16, #32
	mov	w18, #8
.LBB0_18:                               //   Parent Loop BB0_2 Depth=1
                                        // =>  This Inner Loop Header: Depth=2
	str	x18, [x14], #-8
	ldr	x0, [x12]
	sub	w11, w11, #1
	str	x17, [x15], #-8
	ldr	x1, [x12]
	cmp	w11, #0
	str	x16, [x13], #-8
	ldr	x2, [x12], #-8
	mul	x18, x0, x18
	mul	x17, x1, x17
	mul	x16, x2, x16
	b.gt	.LBB0_18
.LBB0_19:                               //   in Loop: Header=BB0_2 Depth=1
	str	x26, [sp, #24]                  // 8-byte Folded Spill
	cbz	x10, .LBB0_22
// %bb.20:                              //   in Loop: Header=BB0_2 Depth=1
	cmp	x9, #1
	csinc	x9, x9, xzr, hi
	cmp	x9, #2
	b.hs	.LBB0_23
// %bb.21:                              //   in Loop: Header=BB0_2 Depth=1
	mov	x10, xzr
	mov	w25, #1
	b	.LBB0_26
.LBB0_22:                               //   in Loop: Header=BB0_2 Depth=1
	mov	w25, #1
	b	.LBB0_30
.LBB0_23:                               //   in Loop: Header=BB0_2 Depth=1
	and	x10, x9, #0xfffffffffffffffe
	add	x11, x8, #8
	mov	x12, x10
	mov	w13, #1
	mov	w14, #1
.LBB0_24:                               //   Parent Loop BB0_2 Depth=1
                                        // =>  This Inner Loop Header: Depth=2
	ldp	x15, x16, [x11, #-8]
	add	x11, x11, #16
	subs	x12, x12, #2
	mul	x13, x15, x13
	mul	x14, x16, x14
	b.ne	.LBB0_24
// %bb.25:                              //   in Loop: Header=BB0_2 Depth=1
	mul	x25, x14, x13
	cmp	x9, x10
	b.eq	.LBB0_28
.LBB0_26:                               //   in Loop: Header=BB0_2 Depth=1
	sub	x9, x9, x10
	add	x8, x8, x10, lsl #3
.LBB0_27:                               //   Parent Loop BB0_2 Depth=1
                                        // =>  This Inner Loop Header: Depth=2
	ldr	x10, [x8], #8
	subs	x9, x9, #1
	mul	x25, x10, x25
	b.ne	.LBB0_27
.LBB0_28:                               //   in Loop: Header=BB0_2 Depth=1
	lsr	x8, x25, #60
	cbnz	x8, .LBB0_127
// %bb.29:                              //   in Loop: Header=BB0_2 Depth=1
	cbz	x25, .LBB0_42
.LBB0_30:                               //   in Loop: Header=BB0_2 Depth=1
	lsl	x22, x25, #3
.Ltmp15:
	mov	x0, x22
	bl	_Znwm
.Ltmp16:
// %bb.31:                              //   in Loop: Header=BB0_2 Depth=1
	mov	w1, wzr
	mov	x2, x22
	mov	x21, x0
	bl	memset
	lsr	x8, x25, #59
	cbnz	x8, .LBB0_125
// %bb.32:                              //   in Loop: Header=BB0_2 Depth=1
	lsl	x20, x25, #4
.Ltmp18:
	mov	x0, x20
	bl	_Znwm
.Ltmp19:
// %bb.33:                              //   in Loop: Header=BB0_2 Depth=1
	mov	w1, wzr
	mov	x2, x20
	mov	x24, x0
	bl	memset
	lsr	x8, x25, #58
	cbnz	x8, .LBB0_123
// %bb.34:                              //   in Loop: Header=BB0_2 Depth=1
	lsl	x23, x25, #5
.Ltmp21:
	mov	x0, x23
	bl	_Znwm
.Ltmp22:
// %bb.35:                              //   in Loop: Header=BB0_2 Depth=1
	mov	w1, wzr
	mov	x2, x23
	add	x19, x21, x25, lsl #3
	stur	x0, [x29, #-8]                  // 8-byte Folded Spill
	bl	memset
	cmp	x19, x21
	cset	w20, eq
	str	w20, [sp, #36]                  // 4-byte Folded Spill
	b.eq	.LBB0_38
// %bb.36:                              //   in Loop: Header=BB0_2 Depth=1
	str	x19, [sp, #48]                  // 8-byte Folded Spill
	mov	x19, x21
.LBB0_37:                               //   Parent Loop BB0_2 Depth=1
                                        // =>  This Inner Loop Header: Depth=2
	bl	drand48
	str	q0, [sp, #96]                   // 16-byte Folded Spill
	bl	drand48
	ldr	q1, [sp, #96]                   // 16-byte Folded Reload
                                        // kill: def $d0 killed $d0 def $q0
	subs	x22, x22, #8
	mov	v1.d[1], v0.d[0]
	ldr	q0, [sp, #80]                   // 16-byte Folded Reload
	fadd	v0.2d, v1.2d, v0.2d
	fcvtn	v0.2s, v0.2d
	str	d0, [x19], #8
	b.ne	.LBB0_37
	b	.LBB0_39
.LBB0_38:                               //   in Loop: Header=BB0_2 Depth=1
	str	x21, [sp, #48]                  // 8-byte Folded Spill
.LBB0_39:                               //   in Loop: Header=BB0_2 Depth=1
	add	x8, x24, x25, lsl #4
	add	x22, x21, #4
	add	x23, x24, #8
	str	x8, [sp, #72]                   // 8-byte Folded Spill
	ldur	x8, [x29, #-8]                  // 8-byte Folded Reload
	add	x19, x8, x25, lsl #5
	add	x26, x8, #16
.LBB0_40:                               //   Parent Loop BB0_2 Depth=1
                                        // =>  This Inner Loop Header: Depth=2
	ldp	s0, s8, [x22, #-4]
	fcvt	d1, s0
	fcvt	d2, s8
	stp	d1, d2, [x23, #-8]
	bl	__extendsftf2
	str	q0, [sp, #96]                   // 16-byte Folded Spill
	fmov	s0, s8
	bl	__extendsftf2
	ldr	q1, [sp, #96]                   // 16-byte Folded Reload
	subs	x25, x25, #1
	add	x22, x22, #8
	add	x23, x23, #16
	stp	q1, q0, [x26, #-16]
	add	x26, x26, #32
	b.ne	.LBB0_40
// %bb.41:                              //   in Loop: Header=BB0_2 Depth=1
	ldur	x8, [x29, #-8]                  // 8-byte Folded Reload
	mov	x23, x19
	stp	x24, x21, [sp, #56]             // 16-byte Folded Spill
	str	x8, [sp, #96]                   // 8-byte Folded Spill
	ldr	x8, [sp, #72]                   // 8-byte Folded Reload
	str	x8, [sp, #40]                   // 8-byte Folded Spill
	ldp	x9, x8, [x29, #-48]
	stp	xzr, xzr, [x29, #-144]
	stur	xzr, [x29, #-128]
	cmp	x8, x9
	b.ne	.LBB0_43
	b	.LBB0_55
.LBB0_42:                               //   in Loop: Header=BB0_2 Depth=1
	mov	x23, xzr
	mov	x24, xzr
	mov	x21, xzr
	mov	x19, xzr
	mov	w8, #1
	stur	xzr, [x29, #-8]                 // 8-byte Folded Spill
	str	xzr, [sp, #96]                  // 8-byte Folded Spill
	stp	xzr, xzr, [sp, #56]             // 16-byte Folded Spill
	stp	xzr, xzr, [sp, #40]             // 16-byte Folded Spill
	str	xzr, [sp, #72]                  // 8-byte Folded Spill
	str	w8, [sp, #36]                   // 4-byte Folded Spill
	ldp	x9, x8, [x29, #-48]
	stp	xzr, xzr, [x29, #-144]
	stur	xzr, [x29, #-128]
	cmp	x8, x9
	b.eq	.LBB0_55
.LBB0_43:                               //   in Loop: Header=BB0_2 Depth=1
	mov	x26, xzr
	mov	x11, xzr
	mov	x10, xzr
	mov	x25, xzr
	b	.LBB0_45
.LBB0_44:                               //   in Loop: Header=BB0_45 Depth=2
	str	x25, [x10], #8
	stur	x10, [x29, #-136]
	sub	x12, x8, x9
	add	x25, x25, #1
	cmp	x25, x12, asr #3
	b.hs	.LBB0_55
.LBB0_45:                               //   Parent Loop BB0_2 Depth=1
                                        // =>  This Inner Loop Header: Depth=2
	cmp	x10, x11
	b.ne	.LBB0_44
// %bb.46:                              //   in Loop: Header=BB0_45 Depth=2
	sub	x28, x11, x26
	mov	x8, #9223372036854775800
	cmp	x28, x8
	b.eq	.LBB0_115
// %bb.47:                              //   in Loop: Header=BB0_45 Depth=2
	asr	x20, x28, #3
	cmp	x28, #0
	csinc	x8, x20, xzr, ne
	adds	x8, x8, x20
	lsr	x9, x8, #60
	cset	w10, hs
	cmp	x9, #0
	cset	w9, ne
	orr	w9, w10, w9
	cmp	w9, #0
	mov	x9, #1152921504606846975
	csel	x22, x9, x8, ne
	cbz	x22, .LBB0_54
// %bb.48:                              //   in Loop: Header=BB0_45 Depth=2
	lsl	x0, x22, #3
.Ltmp24:
	bl	_Znwm
.Ltmp25:
// %bb.49:                              //   in Loop: Header=BB0_45 Depth=2
	mov	x27, x0
	add	x20, x27, x20, lsl #3
	cmp	x28, #1
	str	x25, [x20]
	b.lt	.LBB0_51
.LBB0_50:                               //   in Loop: Header=BB0_45 Depth=2
	mov	x0, x27
	mov	x1, x26
	mov	x2, x28
	bl	memmove
.LBB0_51:                               //   in Loop: Header=BB0_45 Depth=2
	cbz	x26, .LBB0_53
// %bb.52:                              //   in Loop: Header=BB0_45 Depth=2
	mov	x0, x26
	bl	_ZdlPv
.LBB0_53:                               //   in Loop: Header=BB0_45 Depth=2
	ldp	x9, x8, [x29, #-48]
	add	x10, x20, #8
	add	x11, x27, x22, lsl #3
	mov	x26, x27
	stp	x27, x10, [x29, #-144]
	stur	x11, [x29, #-128]
	sub	x12, x8, x9
	add	x25, x25, #1
	cmp	x25, x12, asr #3
	b.lo	.LBB0_45
	b	.LBB0_55
.LBB0_54:                               //   in Loop: Header=BB0_45 Depth=2
	mov	x27, xzr
	add	x20, x27, x20, lsl #3
	cmp	x28, #1
	str	x25, [x20]
	b.ge	.LBB0_50
	b	.LBB0_51
.LBB0_55:                               //   in Loop: Header=BB0_2 Depth=1
	ldr	x8, [sp, #96]                   // 8-byte Folded Reload
	stp	xzr, xzr, [sp, #136]
	str	xzr, [sp, #152]
	subs	x26, x23, x8
	b.eq	.LBB0_59
// %bb.56:                              //   in Loop: Header=BB0_2 Depth=1
	mov	x8, #-31
	movk	x8, #32767, lsl #48
	cmp	x26, x8
	b.hs	.LBB0_109
// %bb.57:                              //   in Loop: Header=BB0_2 Depth=1
.Ltmp30:
	mov	x0, x26
	bl	_Znwm
.Ltmp31:
	mov	x22, #-7
	movk	x22, #32767, lsl #48
// %bb.58:                              //   in Loop: Header=BB0_2 Depth=1
	mov	x27, x0
	b	.LBB0_60
.LBB0_59:                               //   in Loop: Header=BB0_2 Depth=1
	mov	x22, #-7
	mov	x27, xzr
	movk	x22, #32767, lsl #48
.LBB0_60:                               //   in Loop: Header=BB0_2 Depth=1
	asr	x8, x26, #5
	ldr	x9, [sp, #96]                   // 8-byte Folded Reload
	ldur	x20, [x29, #-8]                 // 8-byte Folded Reload
	stp	x27, x27, [sp, #136]
	ldr	x25, [sp, #56]                  // 8-byte Folded Reload
	add	x8, x27, x8, lsl #5
	cmp	x9, x19
	str	x8, [sp, #152]
	b.eq	.LBB0_62
// %bb.61:                              //   in Loop: Header=BB0_2 Depth=1
	and	x2, x26, #0xffffffffffffffe0
	mov	x0, x27
	mov	x1, x20
	sub	x8, x26, #32
	and	x19, x8, #0xffffffffffffffe0
	bl	memcpy
	add	x8, x27, x19
	add	x27, x8, #32
.LBB0_62:                               //   in Loop: Header=BB0_2 Depth=1
	ldp	x8, x19, [sp, #40]              // 16-byte Folded Reload
	str	x27, [sp, #144]
	ldr	x23, [sp, #64]                  // 8-byte Folded Reload
	subs	x28, x8, x25
	b.eq	.LBB0_80
// %bb.63:                              //   in Loop: Header=BB0_2 Depth=1
	mov	x8, #-15
	movk	x8, #32767, lsl #48
	cmp	x28, x8
	b.hs	.LBB0_111
// %bb.64:                              //   in Loop: Header=BB0_2 Depth=1
.Ltmp36:
	mov	x0, x28
	bl	_Znwm
.Ltmp37:
// %bb.65:                              //   in Loop: Header=BB0_2 Depth=1
	mov	x26, x0
	ldr	x8, [sp, #72]                   // 8-byte Folded Reload
	cmp	x25, x8
	b.eq	.LBB0_67
.LBB0_66:                               //   in Loop: Header=BB0_2 Depth=1
	and	x2, x28, #0xfffffffffffffff0
	mov	x0, x26
	mov	x1, x24
	bl	memcpy
.LBB0_67:                               //   in Loop: Header=BB0_2 Depth=1
	subs	x27, x19, x23
	stp	xzr, xzr, [sp, #112]
	str	xzr, [sp, #128]
	b.eq	.LBB0_81
// %bb.68:                              //   in Loop: Header=BB0_2 Depth=1
	cmp	x27, x22
	b.hs	.LBB0_113
// %bb.69:                              //   in Loop: Header=BB0_2 Depth=1
.Ltmp42:
	mov	x0, x27
	bl	_Znwm
.Ltmp43:
// %bb.70:                              //   in Loop: Header=BB0_2 Depth=1
	mov	x28, x0
	asr	x8, x27, #3
	stp	x28, x28, [sp, #112]
	add	x8, x28, x8, lsl #3
	str	x8, [sp, #128]
	ldr	w8, [sp, #36]                   // 4-byte Folded Reload
	tbnz	w8, #0, .LBB0_72
.LBB0_71:                               //   in Loop: Header=BB0_2 Depth=1
	and	x2, x27, #0xfffffffffffffff8
	mov	x0, x28
	mov	x1, x21
	sub	x8, x27, #8
	and	x19, x8, #0xfffffffffffffff8
	bl	memcpy
	add	x8, x28, x19
	add	x28, x8, #8
.LBB0_72:                               //   in Loop: Header=BB0_2 Depth=1
	ldr	x6, [sp, #136]
	str	x28, [sp, #120]
.Ltmp48:
	sub	x0, x29, #48
	sub	x1, x29, #120
	sub	x2, x29, #120
	sub	x3, x29, #144
	mov	w4, #1
	ldr	x5, [sp, #96]                   // 8-byte Folded Reload
	ldr	q0, [sp]                        // 16-byte Folded Reload
	mov	w7, #1
	bl	_ZN9pocketfft6detail3c2cIeEEvRKSt6vectorImSaImEERKS2_IlSaIlEESA_S6_bPKSt7complexIT_EPSD_SC_m
.Ltmp49:
// %bb.73:                              //   in Loop: Header=BB0_2 Depth=1
.Ltmp50:
	sub	x0, x29, #48
	sub	x1, x29, #96
	sub	x2, x29, #96
	sub	x3, x29, #144
	fmov	d0, #1.00000000
	mov	w4, #1
	mov	x5, x25
	mov	x6, x26
	mov	w7, #1
	bl	_ZN9pocketfft6detail3c2cIdEEvRKSt6vectorImSaImEERKS2_IlSaIlEESA_S6_bPKSt7complexIT_EPSD_SC_m
.Ltmp51:
// %bb.74:                              //   in Loop: Header=BB0_2 Depth=1
	ldr	x6, [sp, #112]
.Ltmp52:
	sub	x0, x29, #48
	sub	x1, x29, #72
	sub	x2, x29, #72
	sub	x3, x29, #144
	fmov	s0, #1.00000000
	mov	w4, #1
	mov	x5, x23
	mov	w7, #1
	bl	_ZN9pocketfft6detail3c2cIfEEvRKSt6vectorImSaImEERKS2_IlSaIlEESA_S6_bPKSt7complexIT_EPSD_SC_m
.Ltmp53:
// %bb.75:                              //   in Loop: Header=BB0_2 Depth=1
.Ltmp54:
	add	x0, sp, #136
	add	x1, sp, #112
	bl	_Z5l2errISt7complexIeES0_IfEEeRKSt6vectorIT_SaIS4_EERKS3_IT0_SaIS9_EE
.Ltmp55:
// %bb.76:                              //   in Loop: Header=BB0_2 Depth=1
.Ltmp56:
	adrp	x0, :got:_ZSt4cout
	ldr	x0, [x0, :got_lo12:_ZSt4cout]
	bl	_ZNSo9_M_insertIeEERSoT_
.Ltmp57:
// %bb.77:                              //   in Loop: Header=BB0_2 Depth=1
	ldr	x8, [x0]
	mov	x27, x0
	ldur	x8, [x8, #-24]
	add	x8, x0, x8
	ldr	x28, [x8, #240]
	cbz	x28, .LBB0_121
// %bb.78:                              //   in Loop: Header=BB0_2 Depth=1
	ldrb	w8, [x28, #56]
	cbz	w8, .LBB0_82
// %bb.79:                              //   in Loop: Header=BB0_2 Depth=1
	ldrb	w1, [x28, #67]
	b	.LBB0_84
.LBB0_80:                               //   in Loop: Header=BB0_2 Depth=1
	mov	x26, xzr
	ldr	x8, [sp, #72]                   // 8-byte Folded Reload
	cmp	x25, x8
	b.ne	.LBB0_66
	b	.LBB0_67
.LBB0_81:                               //   in Loop: Header=BB0_2 Depth=1
	mov	x28, xzr
	asr	x8, x27, #3
	stp	x28, x28, [sp, #112]
	add	x8, x28, x8, lsl #3
	str	x8, [sp, #128]
	ldr	w8, [sp, #36]                   // 4-byte Folded Reload
	tbz	w8, #0, .LBB0_71
	b	.LBB0_72
.LBB0_82:                               //   in Loop: Header=BB0_2 Depth=1
.Ltmp58:
	mov	x0, x28
	bl	_ZNKSt5ctypeIcE13_M_widen_initEv
.Ltmp59:
// %bb.83:                              //   in Loop: Header=BB0_2 Depth=1
	ldr	x8, [x28]
	ldr	x8, [x8, #48]
.Ltmp60:
	mov	x0, x28
	mov	w1, #10
	blr	x8
	mov	w1, w0
.Ltmp61:
.LBB0_84:                               //   in Loop: Header=BB0_2 Depth=1
.Ltmp62:
	mov	x0, x27
	bl	_ZNSo3putEc
.Ltmp63:
// %bb.85:                              //   in Loop: Header=BB0_2 Depth=1
.Ltmp64:
	bl	_ZNSo5flushEv
.Ltmp65:
// %bb.86:                              //   in Loop: Header=BB0_2 Depth=1
	ldr	x0, [sp, #112]
	cbz	x0, .LBB0_88
// %bb.87:                              //   in Loop: Header=BB0_2 Depth=1
	bl	_ZdlPv
.LBB0_88:                               //   in Loop: Header=BB0_2 Depth=1
	cbz	x26, .LBB0_90
// %bb.89:                              //   in Loop: Header=BB0_2 Depth=1
	mov	x0, x26
	bl	_ZdlPv
.LBB0_90:                               //   in Loop: Header=BB0_2 Depth=1
	ldr	x0, [sp, #136]
	cbz	x0, .LBB0_92
// %bb.91:                              //   in Loop: Header=BB0_2 Depth=1
	bl	_ZdlPv
.LBB0_92:                               //   in Loop: Header=BB0_2 Depth=1
	ldur	x0, [x29, #-144]
	ldr	x26, [sp, #24]                  // 8-byte Folded Reload
	cbz	x0, .LBB0_94
// %bb.93:                              //   in Loop: Header=BB0_2 Depth=1
	bl	_ZdlPv
.LBB0_94:                               //   in Loop: Header=BB0_2 Depth=1
	ldr	x8, [sp, #96]                   // 8-byte Folded Reload
	cbz	x8, .LBB0_96
// %bb.95:                              //   in Loop: Header=BB0_2 Depth=1
	mov	x0, x20
	bl	_ZdlPv
.LBB0_96:                               //   in Loop: Header=BB0_2 Depth=1
	cbz	x25, .LBB0_98
// %bb.97:                              //   in Loop: Header=BB0_2 Depth=1
	mov	x0, x24
	bl	_ZdlPv
.LBB0_98:                               //   in Loop: Header=BB0_2 Depth=1
	cbz	x23, .LBB0_100
// %bb.99:                              //   in Loop: Header=BB0_2 Depth=1
	mov	x0, x21
	bl	_ZdlPv
.LBB0_100:                              //   in Loop: Header=BB0_2 Depth=1
	ldur	x0, [x29, #-120]
	cbz	x0, .LBB0_102
// %bb.101:                             //   in Loop: Header=BB0_2 Depth=1
	bl	_ZdlPv
.LBB0_102:                              //   in Loop: Header=BB0_2 Depth=1
	ldur	x0, [x29, #-96]
	cbz	x0, .LBB0_104
// %bb.103:                             //   in Loop: Header=BB0_2 Depth=1
	bl	_ZdlPv
.LBB0_104:                              //   in Loop: Header=BB0_2 Depth=1
	ldur	x0, [x29, #-72]
	cbz	x0, .LBB0_106
// %bb.105:                             //   in Loop: Header=BB0_2 Depth=1
	bl	_ZdlPv
.LBB0_106:                              //   in Loop: Header=BB0_2 Depth=1
	ldur	x0, [x29, #-48]
	cbz	x0, .LBB0_1
// %bb.107:                             //   in Loop: Header=BB0_2 Depth=1
	bl	_ZdlPv
	b	.LBB0_1
.LBB0_108:
	ldp	x20, x19, [sp, #384]            // 16-byte Folded Reload
	mov	w0, wzr
	ldp	x22, x21, [sp, #368]            // 16-byte Folded Reload
	ldp	x24, x23, [sp, #352]            // 16-byte Folded Reload
	ldp	x26, x25, [sp, #336]            // 16-byte Folded Reload
	ldp	x28, x27, [sp, #320]            // 16-byte Folded Reload
	ldp	x29, x30, [sp, #304]            // 16-byte Folded Reload
	ldr	d8, [sp, #288]                  // 8-byte Folded Reload
	add	sp, sp, #400
	ret
.LBB0_109:
.Ltmp33:
	bl	_ZSt28__throw_bad_array_new_lengthv
.Ltmp34:
// %bb.110:
.LBB0_111:
.Ltmp39:
	bl	_ZSt28__throw_bad_array_new_lengthv
.Ltmp40:
// %bb.112:
.LBB0_113:
.Ltmp45:
	bl	_ZSt28__throw_bad_array_new_lengthv
.Ltmp46:
// %bb.114:
.LBB0_115:
.Ltmp27:
	adrp	x0, .L.str.2
	add	x0, x0, :lo12:.L.str.2
	bl	_ZSt20__throw_length_errorPKc
.Ltmp28:
// %bb.116:
.LBB0_117:
.Ltmp79:
	adrp	x0, .L.str
	add	x0, x0, :lo12:.L.str
	bl	_ZSt20__throw_length_errorPKc
.Ltmp80:
// %bb.118:
.LBB0_119:
.Ltmp76:
	adrp	x0, .L.str
	add	x0, x0, :lo12:.L.str
	bl	_ZSt20__throw_length_errorPKc
.Ltmp77:
// %bb.120:
.LBB0_121:
.Ltmp67:
	bl	_ZSt16__throw_bad_castv
.Ltmp68:
// %bb.122:
.LBB0_123:
.Ltmp70:
	adrp	x0, .L.str
	add	x0, x0, :lo12:.L.str
	bl	_ZSt20__throw_length_errorPKc
.Ltmp71:
// %bb.124:
.LBB0_125:
.Ltmp73:
	adrp	x0, .L.str
	add	x0, x0, :lo12:.L.str
	bl	_ZSt20__throw_length_errorPKc
.Ltmp74:
// %bb.126:
.LBB0_127:
.Ltmp12:
	adrp	x0, .L.str
	add	x0, x0, :lo12:.L.str
	bl	_ZSt20__throw_length_errorPKc
.Ltmp13:
// %bb.128:
.LBB0_129:
.Ltmp44:
	mov	x19, x0
	cbz	x26, .LBB0_152
	b	.LBB0_165
.LBB0_130:
.Ltmp38:
	mov	x19, x0
	ldr	x0, [sp, #136]
	cbz	x0, .LBB0_153
	b	.LBB0_167
.LBB0_131:
.Ltmp32:
	b	.LBB0_169
.LBB0_132:
.Ltmp8:
	mov	x19, x0
	ldur	x0, [x29, #-72]
	cbz	x0, .LBB0_160
	b	.LBB0_176
.LBB0_133:
.Ltmp11:
	mov	x19, x0
	ldur	x0, [x29, #-96]
	cbz	x0, .LBB0_159
	b	.LBB0_175
.LBB0_134:
.Ltmp14:
	mov	x19, x0
	ldur	x0, [x29, #-120]
	cbz	x0, .LBB0_158
	b	.LBB0_174
.LBB0_135:
.Ltmp23:
	b	.LBB0_141
.LBB0_136:
.Ltmp20:
	b	.LBB0_139
.LBB0_137:
.Ltmp17:
	mov	x19, x0
	ldur	x0, [x29, #-120]
	cbz	x0, .LBB0_158
	b	.LBB0_174
.LBB0_138:
.Ltmp75:
.LBB0_139:
	mov	x19, x0
	mov	x23, x21
	b	.LBB0_173
.LBB0_140:
.Ltmp72:
.LBB0_141:
	mov	x19, x0
	mov	x23, x21
	mov	x25, x24
	b	.LBB0_172
.LBB0_142:
.Ltmp69:
	ldp	x25, x23, [sp, #56]             // 16-byte Folded Reload
	mov	x19, x0
	ldur	x20, [x29, #-8]                 // 8-byte Folded Reload
	b	.LBB0_150
.LBB0_143:
.Ltmp2:
	ldur	x8, [x29, #-48]
	mov	x19, x0
	cbnz	x8, .LBB0_161
	b	.LBB0_162
.LBB0_144:
.Ltmp5:
	mov	x19, x0
	ldur	x8, [x29, #-48]
	cbnz	x8, .LBB0_161
	b	.LBB0_162
.LBB0_145:
.Ltmp78:
	mov	x19, x0
	ldur	x0, [x29, #-96]
	cbz	x0, .LBB0_159
	b	.LBB0_175
.LBB0_146:
.Ltmp81:
	mov	x19, x0
	ldur	x0, [x29, #-72]
	cbz	x0, .LBB0_160
	b	.LBB0_176
.LBB0_147:
.Ltmp26:
	b	.LBB0_169
.LBB0_148:
.Ltmp29:
	b	.LBB0_169
.LBB0_149:
.Ltmp66:
	mov	x19, x0
.LBB0_150:
	ldr	x0, [sp, #112]
	cbnz	x0, .LBB0_163
// %bb.151:
	cbnz	x26, .LBB0_165
.LBB0_152:
	ldr	x0, [sp, #136]
	cbnz	x0, .LBB0_167
.LBB0_153:
	ldur	x0, [x29, #-144]
	cbnz	x0, .LBB0_170
.LBB0_154:
	ldr	x8, [sp, #96]                   // 8-byte Folded Reload
	cbnz	x8, .LBB0_171
.LBB0_155:
	cbnz	x25, .LBB0_172
.LBB0_156:
	cbnz	x23, .LBB0_173
.LBB0_157:
	ldur	x0, [x29, #-120]
	cbnz	x0, .LBB0_174
.LBB0_158:
	ldur	x0, [x29, #-96]
	cbnz	x0, .LBB0_175
.LBB0_159:
	ldur	x0, [x29, #-72]
	cbnz	x0, .LBB0_176
.LBB0_160:
	ldur	x8, [x29, #-48]
	cbz	x8, .LBB0_162
.LBB0_161:
	mov	x0, x8
	bl	_ZdlPv
.LBB0_162:
	mov	x0, x19
	bl	_Unwind_Resume
.LBB0_163:
	bl	_ZdlPv
	cbz	x26, .LBB0_152
	b	.LBB0_165
.LBB0_164:
.Ltmp47:
	mov	x19, x0
	cbz	x26, .LBB0_152
.LBB0_165:
	mov	x0, x26
	bl	_ZdlPv
	ldr	x0, [sp, #136]
	cbz	x0, .LBB0_153
	b	.LBB0_167
.LBB0_166:
.Ltmp41:
	mov	x19, x0
	ldr	x0, [sp, #136]
	cbz	x0, .LBB0_153
.LBB0_167:
	bl	_ZdlPv
	ldur	x0, [x29, #-144]
	cbz	x0, .LBB0_154
	b	.LBB0_170
.LBB0_168:
.Ltmp35:
.LBB0_169:
	ldp	x25, x23, [sp, #56]             // 16-byte Folded Reload
	mov	x19, x0
	ldur	x20, [x29, #-8]                 // 8-byte Folded Reload
	ldur	x0, [x29, #-144]
	cbz	x0, .LBB0_154
.LBB0_170:
	bl	_ZdlPv
	ldr	x8, [sp, #96]                   // 8-byte Folded Reload
	cbz	x8, .LBB0_155
.LBB0_171:
	mov	x0, x20
	bl	_ZdlPv
	cbz	x25, .LBB0_156
.LBB0_172:
	mov	x0, x25
	bl	_ZdlPv
	cbz	x23, .LBB0_157
.LBB0_173:
	mov	x0, x23
	bl	_ZdlPv
	ldur	x0, [x29, #-120]
	cbz	x0, .LBB0_158
.LBB0_174:
	bl	_ZdlPv
	ldur	x0, [x29, #-96]
	cbz	x0, .LBB0_159
.LBB0_175:
	bl	_ZdlPv
	ldur	x0, [x29, #-72]
	cbz	x0, .LBB0_160
.LBB0_176:
	bl	_ZdlPv
	ldur	x8, [x29, #-48]
	cbnz	x8, .LBB0_161
	b	.LBB0_162
.Lfunc_end0:
	.size	main, .Lfunc_end0-main
	.cfi_endproc
	.section	.gcc_except_table,"a",@progbits
	.p2align	2
GCC_except_table0:
.Lexception0:
	.byte	255                             // @LPStart Encoding = omit
	.byte	255                             // @TType Encoding = omit
	.byte	1                               // Call site Encoding = uleb128
	.uleb128 .Lcst_end0-.Lcst_begin0
.Lcst_begin0:
	.uleb128 .Ltmp0-.Lfunc_begin0           // >> Call Site 1 <<
	.uleb128 .Ltmp1-.Ltmp0                  //   Call between .Ltmp0 and .Ltmp1
	.uleb128 .Ltmp2-.Lfunc_begin0           //     jumps to .Ltmp2
	.byte	0                               //   On action: cleanup
	.uleb128 .Ltmp3-.Lfunc_begin0           // >> Call Site 2 <<
	.uleb128 .Ltmp4-.Ltmp3                  //   Call between .Ltmp3 and .Ltmp4
	.uleb128 .Ltmp5-.Lfunc_begin0           //     jumps to .Ltmp5
	.byte	0                               //   On action: cleanup
	.uleb128 .Ltmp6-.Lfunc_begin0           // >> Call Site 3 <<
	.uleb128 .Ltmp7-.Ltmp6                  //   Call between .Ltmp6 and .Ltmp7
	.uleb128 .Ltmp8-.Lfunc_begin0           //     jumps to .Ltmp8
	.byte	0                               //   On action: cleanup
	.uleb128 .Ltmp7-.Lfunc_begin0           // >> Call Site 4 <<
	.uleb128 .Ltmp9-.Ltmp7                  //   Call between .Ltmp7 and .Ltmp9
	.byte	0                               //     has no landing pad
	.byte	0                               //   On action: cleanup
	.uleb128 .Ltmp9-.Lfunc_begin0           // >> Call Site 5 <<
	.uleb128 .Ltmp10-.Ltmp9                 //   Call between .Ltmp9 and .Ltmp10
	.uleb128 .Ltmp11-.Lfunc_begin0          //     jumps to .Ltmp11
	.byte	0                               //   On action: cleanup
	.uleb128 .Ltmp10-.Lfunc_begin0          // >> Call Site 6 <<
	.uleb128 .Ltmp15-.Ltmp10                //   Call between .Ltmp10 and .Ltmp15
	.byte	0                               //     has no landing pad
	.byte	0                               //   On action: cleanup
	.uleb128 .Ltmp15-.Lfunc_begin0          // >> Call Site 7 <<
	.uleb128 .Ltmp16-.Ltmp15                //   Call between .Ltmp15 and .Ltmp16
	.uleb128 .Ltmp17-.Lfunc_begin0          //     jumps to .Ltmp17
	.byte	0                               //   On action: cleanup
	.uleb128 .Ltmp16-.Lfunc_begin0          // >> Call Site 8 <<
	.uleb128 .Ltmp18-.Ltmp16                //   Call between .Ltmp16 and .Ltmp18
	.byte	0                               //     has no landing pad
	.byte	0                               //   On action: cleanup
	.uleb128 .Ltmp18-.Lfunc_begin0          // >> Call Site 9 <<
	.uleb128 .Ltmp19-.Ltmp18                //   Call between .Ltmp18 and .Ltmp19
	.uleb128 .Ltmp20-.Lfunc_begin0          //     jumps to .Ltmp20
	.byte	0                               //   On action: cleanup
	.uleb128 .Ltmp19-.Lfunc_begin0          // >> Call Site 10 <<
	.uleb128 .Ltmp21-.Ltmp19                //   Call between .Ltmp19 and .Ltmp21
	.byte	0                               //     has no landing pad
	.byte	0                               //   On action: cleanup
	.uleb128 .Ltmp21-.Lfunc_begin0          // >> Call Site 11 <<
	.uleb128 .Ltmp22-.Ltmp21                //   Call between .Ltmp21 and .Ltmp22
	.uleb128 .Ltmp23-.Lfunc_begin0          //     jumps to .Ltmp23
	.byte	0                               //   On action: cleanup
	.uleb128 .Ltmp22-.Lfunc_begin0          // >> Call Site 12 <<
	.uleb128 .Ltmp24-.Ltmp22                //   Call between .Ltmp22 and .Ltmp24
	.byte	0                               //     has no landing pad
	.byte	0                               //   On action: cleanup
	.uleb128 .Ltmp24-.Lfunc_begin0          // >> Call Site 13 <<
	.uleb128 .Ltmp25-.Ltmp24                //   Call between .Ltmp24 and .Ltmp25
	.uleb128 .Ltmp26-.Lfunc_begin0          //     jumps to .Ltmp26
	.byte	0                               //   On action: cleanup
	.uleb128 .Ltmp25-.Lfunc_begin0          // >> Call Site 14 <<
	.uleb128 .Ltmp30-.Ltmp25                //   Call between .Ltmp25 and .Ltmp30
	.byte	0                               //     has no landing pad
	.byte	0                               //   On action: cleanup
	.uleb128 .Ltmp30-.Lfunc_begin0          // >> Call Site 15 <<
	.uleb128 .Ltmp31-.Ltmp30                //   Call between .Ltmp30 and .Ltmp31
	.uleb128 .Ltmp32-.Lfunc_begin0          //     jumps to .Ltmp32
	.byte	0                               //   On action: cleanup
	.uleb128 .Ltmp31-.Lfunc_begin0          // >> Call Site 16 <<
	.uleb128 .Ltmp36-.Ltmp31                //   Call between .Ltmp31 and .Ltmp36
	.byte	0                               //     has no landing pad
	.byte	0                               //   On action: cleanup
	.uleb128 .Ltmp36-.Lfunc_begin0          // >> Call Site 17 <<
	.uleb128 .Ltmp37-.Ltmp36                //   Call between .Ltmp36 and .Ltmp37
	.uleb128 .Ltmp38-.Lfunc_begin0          //     jumps to .Ltmp38
	.byte	0                               //   On action: cleanup
	.uleb128 .Ltmp37-.Lfunc_begin0          // >> Call Site 18 <<
	.uleb128 .Ltmp42-.Ltmp37                //   Call between .Ltmp37 and .Ltmp42
	.byte	0                               //     has no landing pad
	.byte	0                               //   On action: cleanup
	.uleb128 .Ltmp42-.Lfunc_begin0          // >> Call Site 19 <<
	.uleb128 .Ltmp43-.Ltmp42                //   Call between .Ltmp42 and .Ltmp43
	.uleb128 .Ltmp44-.Lfunc_begin0          //     jumps to .Ltmp44
	.byte	0                               //   On action: cleanup
	.uleb128 .Ltmp43-.Lfunc_begin0          // >> Call Site 20 <<
	.uleb128 .Ltmp48-.Ltmp43                //   Call between .Ltmp43 and .Ltmp48
	.byte	0                               //     has no landing pad
	.byte	0                               //   On action: cleanup
	.uleb128 .Ltmp48-.Lfunc_begin0          // >> Call Site 21 <<
	.uleb128 .Ltmp65-.Ltmp48                //   Call between .Ltmp48 and .Ltmp65
	.uleb128 .Ltmp66-.Lfunc_begin0          //     jumps to .Ltmp66
	.byte	0                               //   On action: cleanup
	.uleb128 .Ltmp33-.Lfunc_begin0          // >> Call Site 22 <<
	.uleb128 .Ltmp34-.Ltmp33                //   Call between .Ltmp33 and .Ltmp34
	.uleb128 .Ltmp35-.Lfunc_begin0          //     jumps to .Ltmp35
	.byte	0                               //   On action: cleanup
	.uleb128 .Ltmp39-.Lfunc_begin0          // >> Call Site 23 <<
	.uleb128 .Ltmp40-.Ltmp39                //   Call between .Ltmp39 and .Ltmp40
	.uleb128 .Ltmp41-.Lfunc_begin0          //     jumps to .Ltmp41
	.byte	0                               //   On action: cleanup
	.uleb128 .Ltmp45-.Lfunc_begin0          // >> Call Site 24 <<
	.uleb128 .Ltmp46-.Ltmp45                //   Call between .Ltmp45 and .Ltmp46
	.uleb128 .Ltmp47-.Lfunc_begin0          //     jumps to .Ltmp47
	.byte	0                               //   On action: cleanup
	.uleb128 .Ltmp27-.Lfunc_begin0          // >> Call Site 25 <<
	.uleb128 .Ltmp28-.Ltmp27                //   Call between .Ltmp27 and .Ltmp28
	.uleb128 .Ltmp29-.Lfunc_begin0          //     jumps to .Ltmp29
	.byte	0                               //   On action: cleanup
	.uleb128 .Ltmp79-.Lfunc_begin0          // >> Call Site 26 <<
	.uleb128 .Ltmp80-.Ltmp79                //   Call between .Ltmp79 and .Ltmp80
	.uleb128 .Ltmp81-.Lfunc_begin0          //     jumps to .Ltmp81
	.byte	0                               //   On action: cleanup
	.uleb128 .Ltmp76-.Lfunc_begin0          // >> Call Site 27 <<
	.uleb128 .Ltmp77-.Ltmp76                //   Call between .Ltmp76 and .Ltmp77
	.uleb128 .Ltmp78-.Lfunc_begin0          //     jumps to .Ltmp78
	.byte	0                               //   On action: cleanup
	.uleb128 .Ltmp67-.Lfunc_begin0          // >> Call Site 28 <<
	.uleb128 .Ltmp68-.Ltmp67                //   Call between .Ltmp67 and .Ltmp68
	.uleb128 .Ltmp69-.Lfunc_begin0          //     jumps to .Ltmp69
	.byte	0                               //   On action: cleanup
	.uleb128 .Ltmp70-.Lfunc_begin0          // >> Call Site 29 <<
	.uleb128 .Ltmp71-.Ltmp70                //   Call between .Ltmp70 and .Ltmp71
	.uleb128 .Ltmp72-.Lfunc_begin0          //     jumps to .Ltmp72
	.byte	0                               //   On action: cleanup
	.uleb128 .Ltmp73-.Lfunc_begin0          // >> Call Site 30 <<
	.uleb128 .Ltmp74-.Ltmp73                //   Call between .Ltmp73 and .Ltmp74
	.uleb128 .Ltmp75-.Lfunc_begin0          //     jumps to .Ltmp75
	.byte	0                               //   On action: cleanup
	.uleb128 .Ltmp12-.Lfunc_begin0          // >> Call Site 31 <<
	.uleb128 .Ltmp13-.Ltmp12                //   Call between .Ltmp12 and .Ltmp13
	.uleb128 .Ltmp14-.Lfunc_begin0          //     jumps to .Ltmp14
	.byte	0                               //   On action: cleanup
	.uleb128 .Ltmp13-.Lfunc_begin0          // >> Call Site 32 <<
	.uleb128 .Lfunc_end0-.Ltmp13            //   Call between .Ltmp13 and .Lfunc_end0
	.byte	0                               //     has no landing pad
	.byte	0                               //   On action: cleanup
.Lcst_end0:
	.p2align	2
                                        // -- End function
	.section	.text._ZN9pocketfft6detail3c2cIeEEvRKSt6vectorImSaImEERKS2_IlSaIlEESA_S6_bPKSt7complexIT_EPSD_SC_m,"axG",@progbits,_ZN9pocketfft6detail3c2cIeEEvRKSt6vectorImSaImEERKS2_IlSaIlEESA_S6_bPKSt7complexIT_EPSD_SC_m,comdat
	.weak	_ZN9pocketfft6detail3c2cIeEEvRKSt6vectorImSaImEERKS2_IlSaIlEESA_S6_bPKSt7complexIT_EPSD_SC_m // -- Begin function _ZN9pocketfft6detail3c2cIeEEvRKSt6vectorImSaImEERKS2_IlSaIlEESA_S6_bPKSt7complexIT_EPSD_SC_m
	.p2align	2
	.type	_ZN9pocketfft6detail3c2cIeEEvRKSt6vectorImSaImEERKS2_IlSaIlEESA_S6_bPKSt7complexIT_EPSD_SC_m,@function
_ZN9pocketfft6detail3c2cIeEEvRKSt6vectorImSaImEERKS2_IlSaIlEESA_S6_bPKSt7complexIT_EPSD_SC_m: // @_ZN9pocketfft6detail3c2cIeEEvRKSt6vectorImSaImEERKS2_IlSaIlEESA_S6_bPKSt7complexIT_EPSD_SC_m
.Lfunc_begin1:
	.cfi_startproc
	.cfi_personality 156, DW.ref.__gxx_personality_v0
	.cfi_lsda 28, .Lexception1
// %bb.0:
	sub	sp, sp, #224
	stp	x29, x30, [sp, #144]            // 16-byte Folded Spill
	add	x29, sp, #144
	stp	x26, x25, [sp, #160]            // 16-byte Folded Spill
	stp	x24, x23, [sp, #176]            // 16-byte Folded Spill
	stp	x22, x21, [sp, #192]            // 16-byte Folded Spill
	stp	x20, x19, [sp, #208]            // 16-byte Folded Spill
	.cfi_def_cfa w29, 80
	.cfi_offset w19, -8
	.cfi_offset w20, -16
	.cfi_offset w21, -24
	.cfi_offset w22, -32
	.cfi_offset w23, -40
	.cfi_offset w24, -48
	.cfi_offset w25, -56
	.cfi_offset w26, -64
	.cfi_offset w30, -72
	.cfi_offset w29, -80
	ldp	x13, x8, [x0]
	mov	x19, x7
	mov	x23, x0
	mov	x21, x6
	mov	x25, x5
	mov	w22, w4
	mov	x20, x3
	mov	x24, x2
	mov	x26, x1
	cmp	x13, x8
	b.eq	.LBB1_8
// %bb.1:
	sub	x9, x8, x13
	sub	x9, x9, #8
	cmp	x9, #8
	b.hs	.LBB1_3
// %bb.2:
	mov	w12, #1
	mov	x9, x13
	b	.LBB1_6
.LBB1_3:
	lsr	x9, x9, #3
	mov	w12, #1
	add	x10, x9, #1
	mov	w15, #1
	and	x11, x10, #0x3ffffffffffffffe
	mov	x14, x11
	add	x9, x13, x11, lsl #3
	add	x13, x13, #8
.LBB1_4:                                // =>This Inner Loop Header: Depth=1
	ldp	x16, x17, [x13, #-8]
	add	x13, x13, #16
	subs	x14, x14, #2
	mul	x12, x16, x12
	mul	x15, x17, x15
	b.ne	.LBB1_4
// %bb.5:
	mul	x12, x15, x12
	cmp	x10, x11
	b.eq	.LBB1_7
.LBB1_6:                                // =>This Inner Loop Header: Depth=1
	ldr	x10, [x9], #8
	cmp	x9, x8
	mul	x12, x10, x12
	b.ne	.LBB1_6
.LBB1_7:
	cbz	x12, .LBB1_18
.LBB1_8:
	cmp	x25, x21
	mov	x0, x23
	cset	w3, eq
	mov	x1, x26
	mov	x2, x24
	mov	x4, x20
	str	q0, [sp]                        // 16-byte Folded Spill
	bl	_ZN9pocketfft6detail4util12sanity_checkERKSt6vectorImSaImEERKS2_IlSaIlEESA_bS6_
	sub	x0, x29, #56
	mov	x1, x23
	mov	x2, x26
	bl	_ZN9pocketfft6detail8arr_infoC2ERKSt6vectorImSaImEERKS2_IlSaIlEE
	stur	x25, [x29, #-8]
.Ltmp82:
	add	x0, sp, #32
	mov	x1, x23
	mov	x2, x24
	bl	_ZN9pocketfft6detail8arr_infoC2ERKSt6vectorImSaImEERKS2_IlSaIlEE
.Ltmp83:
// %bb.9:
	and	w8, w22, #0x1
	str	x21, [sp, #80]
	strb	w8, [sp, #24]
.Ltmp85:
	sub	x0, x29, #56
	add	x1, sp, #32
	add	x4, sp, #24
	mov	x2, x20
	ldr	q0, [sp]                        // 16-byte Folded Reload
	mov	x3, x19
	mov	w5, #1
	bl	_ZN9pocketfft6detail10general_ndINS0_11pocketfft_cIeEENS0_5cmplxIeEEeNS0_7ExecC2CEEEvRKNS0_6cndarrIT0_EERNS0_5ndarrIS8_EERKSt6vectorImSaImEET1_mRKT2_b
.Ltmp86:
// %bb.10:
	ldr	x0, [sp, #56]
	cbz	x0, .LBB1_12
// %bb.11:
	bl	_ZdlPv
.LBB1_12:
	ldr	x0, [sp, #32]
	cbz	x0, .LBB1_14
// %bb.13:
	bl	_ZdlPv
.LBB1_14:
	ldur	x0, [x29, #-32]
	cbz	x0, .LBB1_16
// %bb.15:
	bl	_ZdlPv
.LBB1_16:
	ldur	x0, [x29, #-56]
	cbz	x0, .LBB1_18
// %bb.17:
	bl	_ZdlPv
.LBB1_18:
	ldp	x20, x19, [sp, #208]            // 16-byte Folded Reload
	ldp	x22, x21, [sp, #192]            // 16-byte Folded Reload
	ldp	x24, x23, [sp, #176]            // 16-byte Folded Reload
	ldp	x26, x25, [sp, #160]            // 16-byte Folded Reload
	ldp	x29, x30, [sp, #144]            // 16-byte Folded Reload
	add	sp, sp, #224
	ret
.LBB1_19:
.Ltmp87:
	mov	x19, x0
	add	x0, sp, #32
	bl	_ZN9pocketfft6detail8arr_infoD2Ev
	b	.LBB1_21
.LBB1_20:
.Ltmp84:
	mov	x19, x0
.LBB1_21:
	sub	x0, x29, #56
	bl	_ZN9pocketfft6detail8arr_infoD2Ev
	mov	x0, x19
	bl	_Unwind_Resume
.Lfunc_end1:
	.size	_ZN9pocketfft6detail3c2cIeEEvRKSt6vectorImSaImEERKS2_IlSaIlEESA_S6_bPKSt7complexIT_EPSD_SC_m, .Lfunc_end1-_ZN9pocketfft6detail3c2cIeEEvRKSt6vectorImSaImEERKS2_IlSaIlEESA_S6_bPKSt7complexIT_EPSD_SC_m
	.cfi_endproc
	.section	.gcc_except_table._ZN9pocketfft6detail3c2cIeEEvRKSt6vectorImSaImEERKS2_IlSaIlEESA_S6_bPKSt7complexIT_EPSD_SC_m,"aG",@progbits,_ZN9pocketfft6detail3c2cIeEEvRKSt6vectorImSaImEERKS2_IlSaIlEESA_S6_bPKSt7complexIT_EPSD_SC_m,comdat
	.p2align	2
GCC_except_table1:
.Lexception1:
	.byte	255                             // @LPStart Encoding = omit
	.byte	255                             // @TType Encoding = omit
	.byte	1                               // Call site Encoding = uleb128
	.uleb128 .Lcst_end1-.Lcst_begin1
.Lcst_begin1:
	.uleb128 .Lfunc_begin1-.Lfunc_begin1    // >> Call Site 1 <<
	.uleb128 .Ltmp82-.Lfunc_begin1          //   Call between .Lfunc_begin1 and .Ltmp82
	.byte	0                               //     has no landing pad
	.byte	0                               //   On action: cleanup
	.uleb128 .Ltmp82-.Lfunc_begin1          // >> Call Site 2 <<
	.uleb128 .Ltmp83-.Ltmp82                //   Call between .Ltmp82 and .Ltmp83
	.uleb128 .Ltmp84-.Lfunc_begin1          //     jumps to .Ltmp84
	.byte	0                               //   On action: cleanup
	.uleb128 .Ltmp85-.Lfunc_begin1          // >> Call Site 3 <<
	.uleb128 .Ltmp86-.Ltmp85                //   Call between .Ltmp85 and .Ltmp86
	.uleb128 .Ltmp87-.Lfunc_begin1          //     jumps to .Ltmp87
	.byte	0                               //   On action: cleanup
	.uleb128 .Ltmp86-.Lfunc_begin1          // >> Call Site 4 <<
	.uleb128 .Lfunc_end1-.Ltmp86            //   Call between .Ltmp86 and .Lfunc_end1
	.byte	0                               //     has no landing pad
	.byte	0                               //   On action: cleanup
.Lcst_end1:
	.p2align	2
                                        // -- End function
	.section	.text._ZN9pocketfft6detail3c2cIdEEvRKSt6vectorImSaImEERKS2_IlSaIlEESA_S6_bPKSt7complexIT_EPSD_SC_m,"axG",@progbits,_ZN9pocketfft6detail3c2cIdEEvRKSt6vectorImSaImEERKS2_IlSaIlEESA_S6_bPKSt7complexIT_EPSD_SC_m,comdat
	.weak	_ZN9pocketfft6detail3c2cIdEEvRKSt6vectorImSaImEERKS2_IlSaIlEESA_S6_bPKSt7complexIT_EPSD_SC_m // -- Begin function _ZN9pocketfft6detail3c2cIdEEvRKSt6vectorImSaImEERKS2_IlSaIlEESA_S6_bPKSt7complexIT_EPSD_SC_m
	.p2align	2
	.type	_ZN9pocketfft6detail3c2cIdEEvRKSt6vectorImSaImEERKS2_IlSaIlEESA_S6_bPKSt7complexIT_EPSD_SC_m,@function
_ZN9pocketfft6detail3c2cIdEEvRKSt6vectorImSaImEERKS2_IlSaIlEESA_S6_bPKSt7complexIT_EPSD_SC_m: // @_ZN9pocketfft6detail3c2cIdEEvRKSt6vectorImSaImEERKS2_IlSaIlEESA_S6_bPKSt7complexIT_EPSD_SC_m
.Lfunc_begin2:
	.cfi_startproc
	.cfi_personality 156, DW.ref.__gxx_personality_v0
	.cfi_lsda 28, .Lexception2
// %bb.0:
	sub	sp, sp, #208
	str	d8, [sp, #112]                  // 8-byte Folded Spill
	stp	x29, x30, [sp, #128]            // 16-byte Folded Spill
	add	x29, sp, #128
	stp	x26, x25, [sp, #144]            // 16-byte Folded Spill
	stp	x24, x23, [sp, #160]            // 16-byte Folded Spill
	stp	x22, x21, [sp, #176]            // 16-byte Folded Spill
	stp	x20, x19, [sp, #192]            // 16-byte Folded Spill
	.cfi_def_cfa w29, 80
	.cfi_offset w19, -8
	.cfi_offset w20, -16
	.cfi_offset w21, -24
	.cfi_offset w22, -32
	.cfi_offset w23, -40
	.cfi_offset w24, -48
	.cfi_offset w25, -56
	.cfi_offset w26, -64
	.cfi_offset w30, -72
	.cfi_offset w29, -80
	.cfi_offset b8, -96
	ldp	x13, x8, [x0]
	fmov	d8, d0
	mov	x19, x7
	mov	x23, x0
	mov	x21, x6
	mov	x25, x5
	mov	w22, w4
	mov	x20, x3
	mov	x24, x2
	mov	x26, x1
	cmp	x13, x8
	b.eq	.LBB2_8
// %bb.1:
	sub	x9, x8, x13
	sub	x9, x9, #8
	cmp	x9, #8
	b.hs	.LBB2_3
// %bb.2:
	mov	w12, #1
	mov	x9, x13
	b	.LBB2_6
.LBB2_3:
	lsr	x9, x9, #3
	mov	w12, #1
	add	x10, x9, #1
	mov	w15, #1
	and	x11, x10, #0x3ffffffffffffffe
	mov	x14, x11
	add	x9, x13, x11, lsl #3
	add	x13, x13, #8
.LBB2_4:                                // =>This Inner Loop Header: Depth=1
	ldp	x16, x17, [x13, #-8]
	add	x13, x13, #16
	subs	x14, x14, #2
	mul	x12, x16, x12
	mul	x15, x17, x15
	b.ne	.LBB2_4
// %bb.5:
	mul	x12, x15, x12
	cmp	x10, x11
	b.eq	.LBB2_7
.LBB2_6:                                // =>This Inner Loop Header: Depth=1
	ldr	x10, [x9], #8
	cmp	x9, x8
	mul	x12, x10, x12
	b.ne	.LBB2_6
.LBB2_7:
	cbz	x12, .LBB2_18
.LBB2_8:
	cmp	x25, x21
	mov	x0, x23
	cset	w3, eq
	mov	x1, x26
	mov	x2, x24
	mov	x4, x20
	bl	_ZN9pocketfft6detail4util12sanity_checkERKSt6vectorImSaImEERKS2_IlSaIlEESA_bS6_
	add	x0, sp, #56
	mov	x1, x23
	mov	x2, x26
	bl	_ZN9pocketfft6detail8arr_infoC2ERKSt6vectorImSaImEERKS2_IlSaIlEE
	str	x25, [sp, #104]
.Ltmp88:
	mov	x0, sp
	mov	x1, x23
	mov	x2, x24
	bl	_ZN9pocketfft6detail8arr_infoC2ERKSt6vectorImSaImEERKS2_IlSaIlEE
.Ltmp89:
// %bb.9:
	and	w8, w22, #0x1
	str	x21, [sp, #48]
	sturb	w8, [x29, #-8]
.Ltmp91:
	fmov	d0, d8
	add	x0, sp, #56
	mov	x1, sp
	sub	x4, x29, #8
	mov	x2, x20
	mov	x3, x19
	mov	w5, #1
	bl	_ZN9pocketfft6detail10general_ndINS0_11pocketfft_cIdEENS0_5cmplxIdEEdNS0_7ExecC2CEEEvRKNS0_6cndarrIT0_EERNS0_5ndarrIS8_EERKSt6vectorImSaImEET1_mRKT2_b
.Ltmp92:
// %bb.10:
	ldr	x0, [sp, #24]
	cbz	x0, .LBB2_12
// %bb.11:
	bl	_ZdlPv
.LBB2_12:
	ldr	x0, [sp]
	cbz	x0, .LBB2_14
// %bb.13:
	bl	_ZdlPv
.LBB2_14:
	ldr	x0, [sp, #80]
	cbz	x0, .LBB2_16
// %bb.15:
	bl	_ZdlPv
.LBB2_16:
	ldr	x0, [sp, #56]
	cbz	x0, .LBB2_18
// %bb.17:
	bl	_ZdlPv
.LBB2_18:
	ldp	x20, x19, [sp, #192]            // 16-byte Folded Reload
	ldp	x22, x21, [sp, #176]            // 16-byte Folded Reload
	ldp	x24, x23, [sp, #160]            // 16-byte Folded Reload
	ldp	x26, x25, [sp, #144]            // 16-byte Folded Reload
	ldp	x29, x30, [sp, #128]            // 16-byte Folded Reload
	ldr	d8, [sp, #112]                  // 8-byte Folded Reload
	add	sp, sp, #208
	ret
.LBB2_19:
.Ltmp93:
	mov	x19, x0
	mov	x0, sp
	bl	_ZN9pocketfft6detail8arr_infoD2Ev
	b	.LBB2_21
.LBB2_20:
.Ltmp90:
	mov	x19, x0
.LBB2_21:
	add	x0, sp, #56
	bl	_ZN9pocketfft6detail8arr_infoD2Ev
	mov	x0, x19
	bl	_Unwind_Resume
.Lfunc_end2:
	.size	_ZN9pocketfft6detail3c2cIdEEvRKSt6vectorImSaImEERKS2_IlSaIlEESA_S6_bPKSt7complexIT_EPSD_SC_m, .Lfunc_end2-_ZN9pocketfft6detail3c2cIdEEvRKSt6vectorImSaImEERKS2_IlSaIlEESA_S6_bPKSt7complexIT_EPSD_SC_m
	.cfi_endproc
	.section	.gcc_except_table._ZN9pocketfft6detail3c2cIdEEvRKSt6vectorImSaImEERKS2_IlSaIlEESA_S6_bPKSt7complexIT_EPSD_SC_m,"aG",@progbits,_ZN9pocketfft6detail3c2cIdEEvRKSt6vectorImSaImEERKS2_IlSaIlEESA_S6_bPKSt7complexIT_EPSD_SC_m,comdat
	.p2align	2
GCC_except_table2:
.Lexception2:
	.byte	255                             // @LPStart Encoding = omit
	.byte	255                             // @TType Encoding = omit
	.byte	1                               // Call site Encoding = uleb128
	.uleb128 .Lcst_end2-.Lcst_begin2
.Lcst_begin2:
	.uleb128 .Lfunc_begin2-.Lfunc_begin2    // >> Call Site 1 <<
	.uleb128 .Ltmp88-.Lfunc_begin2          //   Call between .Lfunc_begin2 and .Ltmp88
	.byte	0                               //     has no landing pad
	.byte	0                               //   On action: cleanup
	.uleb128 .Ltmp88-.Lfunc_begin2          // >> Call Site 2 <<
	.uleb128 .Ltmp89-.Ltmp88                //   Call between .Ltmp88 and .Ltmp89
	.uleb128 .Ltmp90-.Lfunc_begin2          //     jumps to .Ltmp90
	.byte	0                               //   On action: cleanup
	.uleb128 .Ltmp91-.Lfunc_begin2          // >> Call Site 3 <<
	.uleb128 .Ltmp92-.Ltmp91                //   Call between .Ltmp91 and .Ltmp92
	.uleb128 .Ltmp93-.Lfunc_begin2          //     jumps to .Ltmp93
	.byte	0                               //   On action: cleanup
	.uleb128 .Ltmp92-.Lfunc_begin2          // >> Call Site 4 <<
	.uleb128 .Lfunc_end2-.Ltmp92            //   Call between .Ltmp92 and .Lfunc_end2
	.byte	0                               //     has no landing pad
	.byte	0                               //   On action: cleanup
.Lcst_end2:
	.p2align	2
                                        // -- End function
	.section	.text._ZN9pocketfft6detail3c2cIfEEvRKSt6vectorImSaImEERKS2_IlSaIlEESA_S6_bPKSt7complexIT_EPSD_SC_m,"axG",@progbits,_ZN9pocketfft6detail3c2cIfEEvRKSt6vectorImSaImEERKS2_IlSaIlEESA_S6_bPKSt7complexIT_EPSD_SC_m,comdat
	.weak	_ZN9pocketfft6detail3c2cIfEEvRKSt6vectorImSaImEERKS2_IlSaIlEESA_S6_bPKSt7complexIT_EPSD_SC_m // -- Begin function _ZN9pocketfft6detail3c2cIfEEvRKSt6vectorImSaImEERKS2_IlSaIlEESA_S6_bPKSt7complexIT_EPSD_SC_m
	.p2align	2
	.type	_ZN9pocketfft6detail3c2cIfEEvRKSt6vectorImSaImEERKS2_IlSaIlEESA_S6_bPKSt7complexIT_EPSD_SC_m,@function
_ZN9pocketfft6detail3c2cIfEEvRKSt6vectorImSaImEERKS2_IlSaIlEESA_S6_bPKSt7complexIT_EPSD_SC_m: // @_ZN9pocketfft6detail3c2cIfEEvRKSt6vectorImSaImEERKS2_IlSaIlEESA_S6_bPKSt7complexIT_EPSD_SC_m
.Lfunc_begin3:
	.cfi_startproc
	.cfi_personality 156, DW.ref.__gxx_personality_v0
	.cfi_lsda 28, .Lexception3
// %bb.0:
	sub	sp, sp, #208
	str	d8, [sp, #112]                  // 8-byte Folded Spill
	stp	x29, x30, [sp, #128]            // 16-byte Folded Spill
	add	x29, sp, #128
	stp	x26, x25, [sp, #144]            // 16-byte Folded Spill
	stp	x24, x23, [sp, #160]            // 16-byte Folded Spill
	stp	x22, x21, [sp, #176]            // 16-byte Folded Spill
	stp	x20, x19, [sp, #192]            // 16-byte Folded Spill
	.cfi_def_cfa w29, 80
	.cfi_offset w19, -8
	.cfi_offset w20, -16
	.cfi_offset w21, -24
	.cfi_offset w22, -32
	.cfi_offset w23, -40
	.cfi_offset w24, -48
	.cfi_offset w25, -56
	.cfi_offset w26, -64
	.cfi_offset w30, -72
	.cfi_offset w29, -80
	.cfi_offset b8, -96
	ldp	x13, x8, [x0]
	fmov	s8, s0
	mov	x19, x7
	mov	x23, x0
	mov	x21, x6
	mov	x25, x5
	mov	w22, w4
	mov	x20, x3
	mov	x24, x2
	mov	x26, x1
	cmp	x13, x8
	b.eq	.LBB3_8
// %bb.1:
	sub	x9, x8, x13
	sub	x9, x9, #8
	cmp	x9, #8
	b.hs	.LBB3_3
// %bb.2:
	mov	w12, #1
	mov	x9, x13
	b	.LBB3_6
.LBB3_3:
	lsr	x9, x9, #3
	mov	w12, #1
	add	x10, x9, #1
	mov	w15, #1
	and	x11, x10, #0x3ffffffffffffffe
	mov	x14, x11
	add	x9, x13, x11, lsl #3
	add	x13, x13, #8
.LBB3_4:                                // =>This Inner Loop Header: Depth=1
	ldp	x16, x17, [x13, #-8]
	add	x13, x13, #16
	subs	x14, x14, #2
	mul	x12, x16, x12
	mul	x15, x17, x15
	b.ne	.LBB3_4
// %bb.5:
	mul	x12, x15, x12
	cmp	x10, x11
	b.eq	.LBB3_7
.LBB3_6:                                // =>This Inner Loop Header: Depth=1
	ldr	x10, [x9], #8
	cmp	x9, x8
	mul	x12, x10, x12
	b.ne	.LBB3_6
.LBB3_7:
	cbz	x12, .LBB3_18
.LBB3_8:
	cmp	x25, x21
	mov	x0, x23
	cset	w3, eq
	mov	x1, x26
	mov	x2, x24
	mov	x4, x20
	bl	_ZN9pocketfft6detail4util12sanity_checkERKSt6vectorImSaImEERKS2_IlSaIlEESA_bS6_
	add	x0, sp, #56
	mov	x1, x23
	mov	x2, x26
	bl	_ZN9pocketfft6detail8arr_infoC2ERKSt6vectorImSaImEERKS2_IlSaIlEE
	str	x25, [sp, #104]
.Ltmp94:
	mov	x0, sp
	mov	x1, x23
	mov	x2, x24
	bl	_ZN9pocketfft6detail8arr_infoC2ERKSt6vectorImSaImEERKS2_IlSaIlEE
.Ltmp95:
// %bb.9:
	and	w8, w22, #0x1
	str	x21, [sp, #48]
	sturb	w8, [x29, #-8]
.Ltmp97:
	fmov	s0, s8
	add	x0, sp, #56
	mov	x1, sp
	sub	x4, x29, #8
	mov	x2, x20
	mov	x3, x19
	mov	w5, #1
	bl	_ZN9pocketfft6detail10general_ndINS0_11pocketfft_cIfEENS0_5cmplxIfEEfNS0_7ExecC2CEEEvRKNS0_6cndarrIT0_EERNS0_5ndarrIS8_EERKSt6vectorImSaImEET1_mRKT2_b
.Ltmp98:
// %bb.10:
	ldr	x0, [sp, #24]
	cbz	x0, .LBB3_12
// %bb.11:
	bl	_ZdlPv
.LBB3_12:
	ldr	x0, [sp]
	cbz	x0, .LBB3_14
// %bb.13:
	bl	_ZdlPv
.LBB3_14:
	ldr	x0, [sp, #80]
	cbz	x0, .LBB3_16
// %bb.15:
	bl	_ZdlPv
.LBB3_16:
	ldr	x0, [sp, #56]
	cbz	x0, .LBB3_18
// %bb.17:
	bl	_ZdlPv
.LBB3_18:
	ldp	x20, x19, [sp, #192]            // 16-byte Folded Reload
	ldp	x22, x21, [sp, #176]            // 16-byte Folded Reload
	ldp	x24, x23, [sp, #160]            // 16-byte Folded Reload
	ldp	x26, x25, [sp, #144]            // 16-byte Folded Reload
	ldp	x29, x30, [sp, #128]            // 16-byte Folded Reload
	ldr	d8, [sp, #112]                  // 8-byte Folded Reload
	add	sp, sp, #208
	ret
.LBB3_19:
.Ltmp99:
	mov	x19, x0
	mov	x0, sp
	bl	_ZN9pocketfft6detail8arr_infoD2Ev
	b	.LBB3_21
.LBB3_20:
.Ltmp96:
	mov	x19, x0
.LBB3_21:
	add	x0, sp, #56
	bl	_ZN9pocketfft6detail8arr_infoD2Ev
	mov	x0, x19
	bl	_Unwind_Resume
.Lfunc_end3:
	.size	_ZN9pocketfft6detail3c2cIfEEvRKSt6vectorImSaImEERKS2_IlSaIlEESA_S6_bPKSt7complexIT_EPSD_SC_m, .Lfunc_end3-_ZN9pocketfft6detail3c2cIfEEvRKSt6vectorImSaImEERKS2_IlSaIlEESA_S6_bPKSt7complexIT_EPSD_SC_m
	.cfi_endproc
	.section	.gcc_except_table._ZN9pocketfft6detail3c2cIfEEvRKSt6vectorImSaImEERKS2_IlSaIlEESA_S6_bPKSt7complexIT_EPSD_SC_m,"aG",@progbits,_ZN9pocketfft6detail3c2cIfEEvRKSt6vectorImSaImEERKS2_IlSaIlEESA_S6_bPKSt7complexIT_EPSD_SC_m,comdat
	.p2align	2
GCC_except_table3:
.Lexception3:
	.byte	255                             // @LPStart Encoding = omit
	.byte	255                             // @TType Encoding = omit
	.byte	1                               // Call site Encoding = uleb128
	.uleb128 .Lcst_end3-.Lcst_begin3
.Lcst_begin3:
	.uleb128 .Lfunc_begin3-.Lfunc_begin3    // >> Call Site 1 <<
	.uleb128 .Ltmp94-.Lfunc_begin3          //   Call between .Lfunc_begin3 and .Ltmp94
	.byte	0                               //     has no landing pad
	.byte	0                               //   On action: cleanup
	.uleb128 .Ltmp94-.Lfunc_begin3          // >> Call Site 2 <<
	.uleb128 .Ltmp95-.Ltmp94                //   Call between .Ltmp94 and .Ltmp95
	.uleb128 .Ltmp96-.Lfunc_begin3          //     jumps to .Ltmp96
	.byte	0                               //   On action: cleanup
	.uleb128 .Ltmp97-.Lfunc_begin3          // >> Call Site 3 <<
	.uleb128 .Ltmp98-.Ltmp97                //   Call between .Ltmp97 and .Ltmp98
	.uleb128 .Ltmp99-.Lfunc_begin3          //     jumps to .Ltmp99
	.byte	0                               //   On action: cleanup
	.uleb128 .Ltmp98-.Lfunc_begin3          // >> Call Site 4 <<
	.uleb128 .Lfunc_end3-.Ltmp98            //   Call between .Ltmp98 and .Lfunc_end3
	.byte	0                               //     has no landing pad
	.byte	0                               //   On action: cleanup
.Lcst_end3:
	.p2align	2
                                        // -- End function
	.section	.rodata.cst16,"aM",@progbits,16
	.p2align	4                               // -- Begin function _Z5l2errISt7complexIeES0_IfEEeRKSt6vectorIT_SaIS4_EERKS3_IT0_SaIS9_EE
.LCPI4_0:
	.xword	0x0000000000000000              // fp128 NaN
	.xword	0x7fff800000000000
.LCPI4_1:
	.xword	0x0000000000000000              // fp128 0
	.xword	0x0000000000000000
	.section	.text._Z5l2errISt7complexIeES0_IfEEeRKSt6vectorIT_SaIS4_EERKS3_IT0_SaIS9_EE,"axG",@progbits,_Z5l2errISt7complexIeES0_IfEEeRKSt6vectorIT_SaIS4_EERKS3_IT0_SaIS9_EE,comdat
	.weak	_Z5l2errISt7complexIeES0_IfEEeRKSt6vectorIT_SaIS4_EERKS3_IT0_SaIS9_EE
	.p2align	2
	.type	_Z5l2errISt7complexIeES0_IfEEeRKSt6vectorIT_SaIS4_EERKS3_IT0_SaIS9_EE,@function
_Z5l2errISt7complexIeES0_IfEEeRKSt6vectorIT_SaIS4_EERKS3_IT0_SaIS9_EE: // @_Z5l2errISt7complexIeES0_IfEEeRKSt6vectorIT_SaIS4_EERKS3_IT0_SaIS9_EE
	.cfi_startproc
// %bb.0:
	sub	sp, sp, #144
	stp	x29, x30, [sp, #64]             // 16-byte Folded Spill
	add	x29, sp, #64
	str	x25, [sp, #80]                  // 8-byte Folded Spill
	stp	x24, x23, [sp, #96]             // 16-byte Folded Spill
	stp	x22, x21, [sp, #112]            // 16-byte Folded Spill
	stp	x20, x19, [sp, #128]            // 16-byte Folded Spill
	.cfi_def_cfa w29, 80
	.cfi_offset w19, -8
	.cfi_offset w20, -16
	.cfi_offset w21, -24
	.cfi_offset w22, -32
	.cfi_offset w23, -40
	.cfi_offset w24, -48
	.cfi_offset w25, -64
	.cfi_offset w30, -72
	.cfi_offset w29, -80
	ldp	x8, x9, [x0]
	cmp	x9, x8
	b.eq	.LBB4_4
// %bb.1:
	adrp	x9, .LCPI4_1
	mov	x19, x0
	mov	x20, x1
	mov	x21, xzr
	mov	x22, xzr
	mov	x23, xzr
	ldr	q0, [x9, :lo12:.LCPI4_1]
	mov	v1.16b, v0.16b
	stur	q0, [x29, #-16]                 // 16-byte Folded Spill
.LBB4_2:                                // =>This Inner Loop Header: Depth=1
	ldr	x9, [x20]
	add	x24, x8, x22
	add	x25, x9, x21
	ldr	q0, [x24]
	stp	q0, q1, [sp, #16]               // 32-byte Folded Spill
	ldr	s0, [x25]
	bl	__extendsftf2
	mov	v1.16b, v0.16b
	ldr	q0, [sp, #16]                   // 16-byte Folded Reload
	bl	__subtf3
	str	q0, [sp, #16]                   // 16-byte Folded Spill
	ldr	q0, [x24, #16]
	str	q0, [sp]                        // 16-byte Folded Spill
	ldr	s0, [x25, #4]
	bl	__extendsftf2
	mov	v1.16b, v0.16b
	ldr	q0, [sp]                        // 16-byte Folded Reload
	bl	__subtf3
	mov	v1.16b, v0.16b
	bl	__multf3
	str	q0, [sp]                        // 16-byte Folded Spill
	ldr	q0, [sp, #16]                   // 16-byte Folded Reload
	mov	v1.16b, v0.16b
	bl	__multf3
	ldr	q1, [sp]                        // 16-byte Folded Reload
	bl	__addtf3
	bl	sqrtl
	ldr	x8, [x19]
	str	q0, [sp]                        // 16-byte Folded Spill
	add	x8, x8, x22
	ldp	q0, q1, [x8]
	bl	cabsl
	str	q0, [sp, #16]                   // 16-byte Folded Spill
	ldr	q0, [sp]                        // 16-byte Folded Reload
	mov	v1.16b, v0.16b
	bl	__multf3
	ldur	q1, [x29, #-16]                 // 16-byte Folded Reload
	bl	__addtf3
	stur	q0, [x29, #-16]                 // 16-byte Folded Spill
	ldr	q0, [sp, #16]                   // 16-byte Folded Reload
	mov	v1.16b, v0.16b
	bl	__multf3
	ldr	q1, [sp, #32]                   // 16-byte Folded Reload
	bl	__addtf3
	ldp	x8, x9, [x19]
	mov	v1.16b, v0.16b
	add	x23, x23, #1
	add	x22, x22, #32
	add	x21, x21, #8
	sub	x9, x9, x8
	cmp	x23, x9, asr #5
	b.lo	.LBB4_2
// %bb.3:
	ldur	q0, [x29, #-16]                 // 16-byte Folded Reload
	bl	__divtf3
	b	.LBB4_5
.LBB4_4:
	adrp	x8, .LCPI4_0
	ldr	q0, [x8, :lo12:.LCPI4_0]
.LBB4_5:
	ldp	x20, x19, [sp, #128]            // 16-byte Folded Reload
	ldp	x22, x21, [sp, #112]            // 16-byte Folded Reload
	ldp	x24, x23, [sp, #96]             // 16-byte Folded Reload
	ldp	x29, x30, [sp, #64]             // 16-byte Folded Reload
	ldr	x25, [sp, #80]                  // 8-byte Folded Reload
	add	sp, sp, #144
	b	sqrtl
.Lfunc_end4:
	.size	_Z5l2errISt7complexIeES0_IfEEeRKSt6vectorIT_SaIS4_EERKS3_IT0_SaIS9_EE, .Lfunc_end4-_Z5l2errISt7complexIeES0_IfEEeRKSt6vectorIT_SaIS4_EERKS3_IT0_SaIS9_EE
	.cfi_endproc
                                        // -- End function
	.section	.text.__clang_call_terminate,"axG",@progbits,__clang_call_terminate,comdat
	.hidden	__clang_call_terminate          // -- Begin function __clang_call_terminate
	.weak	__clang_call_terminate
	.p2align	2
	.type	__clang_call_terminate,@function
__clang_call_terminate:                 // @__clang_call_terminate
// %bb.0:
	str	x30, [sp, #-16]!                // 8-byte Folded Spill
	bl	__cxa_begin_catch
	bl	_ZSt9terminatev
.Lfunc_end5:
	.size	__clang_call_terminate, .Lfunc_end5-__clang_call_terminate
                                        // -- End function
	.section	.text._ZN9pocketfft6detail4util12sanity_checkERKSt6vectorImSaImEERKS2_IlSaIlEESA_bS6_,"axG",@progbits,_ZN9pocketfft6detail4util12sanity_checkERKSt6vectorImSaImEERKS2_IlSaIlEESA_bS6_,comdat
	.weak	_ZN9pocketfft6detail4util12sanity_checkERKSt6vectorImSaImEERKS2_IlSaIlEESA_bS6_ // -- Begin function _ZN9pocketfft6detail4util12sanity_checkERKSt6vectorImSaImEERKS2_IlSaIlEESA_bS6_
	.p2align	2
	.type	_ZN9pocketfft6detail4util12sanity_checkERKSt6vectorImSaImEERKS2_IlSaIlEESA_bS6_,@function
_ZN9pocketfft6detail4util12sanity_checkERKSt6vectorImSaImEERKS2_IlSaIlEESA_bS6_: // @_ZN9pocketfft6detail4util12sanity_checkERKSt6vectorImSaImEERKS2_IlSaIlEESA_bS6_
.Lfunc_begin4:
	.cfi_startproc
	.cfi_personality 156, DW.ref.__gxx_personality_v0
	.cfi_lsda 28, .Lexception4
// %bb.0:
	stp	x29, x30, [sp, #-48]!           // 16-byte Folded Spill
	str	x21, [sp, #16]                  // 8-byte Folded Spill
	mov	x29, sp
	stp	x20, x19, [sp, #32]             // 16-byte Folded Spill
	.cfi_def_cfa w29, 48
	.cfi_offset w19, -8
	.cfi_offset w20, -16
	.cfi_offset w21, -32
	.cfi_offset w30, -40
	.cfi_offset w29, -48
	mov	x21, x4
	mov	x19, x0
	bl	_ZN9pocketfft6detail4util12sanity_checkERKSt6vectorImSaImEERKS2_IlSaIlEESA_b
	ldp	x9, x8, [x19]
	sub	x20, x8, x9
	mov	x8, #-7
	movk	x8, #32767, lsl #48
	cmp	x20, x8
	b.hs	.LBB6_16
// %bb.1:
	cbz	x20, .LBB6_3
// %bb.2:
	mov	x0, x20
	bl	_Znwm
	and	x2, x20, #0xfffffffffffffff8
	mov	w1, wzr
	mov	x19, x0
	bl	memset
	ldp	x8, x9, [x21]
	cmp	x8, x9
	b.ne	.LBB6_5
	b	.LBB6_9
.LBB6_3:
	ldp	x8, x9, [x21]
	cmp	x8, x9
	b.eq	.LBB6_10
// %bb.4:
	mov	x19, xzr
.LBB6_5:
	asr	x10, x20, #3
.LBB6_6:                                // =>This Inner Loop Header: Depth=1
	ldr	x11, [x8]
	cmp	x11, x10
	b.hs	.LBB6_13
// %bb.7:                               //   in Loop: Header=BB6_6 Depth=1
	lsl	x11, x11, #3
	ldr	x12, [x19, x11]
	add	x12, x12, #1
	cmp	x12, #2
	str	x12, [x19, x11]
	b.hs	.LBB6_11
// %bb.8:                               //   in Loop: Header=BB6_6 Depth=1
	add	x8, x8, #8
	cmp	x8, x9
	b.ne	.LBB6_6
.LBB6_9:
	mov	x0, x19
	ldr	x21, [sp, #16]                  // 8-byte Folded Reload
	ldp	x20, x19, [sp, #32]             // 16-byte Folded Reload
	ldp	x29, x30, [sp], #48             // 16-byte Folded Reload
	b	_ZdlPv
.LBB6_10:
	ldp	x20, x19, [sp, #32]             // 16-byte Folded Reload
	ldr	x21, [sp, #16]                  // 8-byte Folded Reload
	ldp	x29, x30, [sp], #48             // 16-byte Folded Reload
	ret
.LBB6_11:
	mov	w0, #16
	bl	__cxa_allocate_exception
	mov	x21, x0
.Ltmp105:
	adrp	x1, .L.str.4
	add	x1, x1, :lo12:.L.str.4
	bl	_ZNSt16invalid_argumentC1EPKc
.Ltmp106:
// %bb.12:
.Ltmp108:
	adrp	x1, :got:_ZTISt16invalid_argument
	adrp	x2, :got:_ZNSt16invalid_argumentD1Ev
	mov	x0, x21
	ldr	x1, [x1, :got_lo12:_ZTISt16invalid_argument]
	ldr	x2, [x2, :got_lo12:_ZNSt16invalid_argumentD1Ev]
	bl	__cxa_throw
.Ltmp109:
	b	.LBB6_15
.LBB6_13:
	mov	w0, #16
	bl	__cxa_allocate_exception
	mov	x21, x0
.Ltmp100:
	adrp	x1, .L.str.3
	add	x1, x1, :lo12:.L.str.3
	bl	_ZNSt16invalid_argumentC1EPKc
.Ltmp101:
// %bb.14:
.Ltmp103:
	adrp	x1, :got:_ZTISt16invalid_argument
	adrp	x2, :got:_ZNSt16invalid_argumentD1Ev
	mov	x0, x21
	ldr	x1, [x1, :got_lo12:_ZTISt16invalid_argument]
	ldr	x2, [x2, :got_lo12:_ZNSt16invalid_argumentD1Ev]
	bl	__cxa_throw
.Ltmp104:
.LBB6_15:
.LBB6_16:
	adrp	x0, .L.str
	add	x0, x0, :lo12:.L.str
	bl	_ZSt20__throw_length_errorPKc
.LBB6_17:
.Ltmp102:
	mov	x20, x0
	mov	x0, x21
	bl	__cxa_free_exception
	b	.LBB6_20
.LBB6_18:
.Ltmp107:
	mov	x20, x0
	mov	x0, x21
	bl	__cxa_free_exception
	b	.LBB6_21
.LBB6_19:
.Ltmp110:
	mov	x20, x0
.LBB6_20:
	cbz	x19, .LBB6_22
.LBB6_21:
	mov	x0, x19
	bl	_ZdlPv
.LBB6_22:
	mov	x0, x20
	bl	_Unwind_Resume
.Lfunc_end6:
	.size	_ZN9pocketfft6detail4util12sanity_checkERKSt6vectorImSaImEERKS2_IlSaIlEESA_bS6_, .Lfunc_end6-_ZN9pocketfft6detail4util12sanity_checkERKSt6vectorImSaImEERKS2_IlSaIlEESA_bS6_
	.cfi_endproc
	.section	.gcc_except_table._ZN9pocketfft6detail4util12sanity_checkERKSt6vectorImSaImEERKS2_IlSaIlEESA_bS6_,"aG",@progbits,_ZN9pocketfft6detail4util12sanity_checkERKSt6vectorImSaImEERKS2_IlSaIlEESA_bS6_,comdat
	.p2align	2
GCC_except_table6:
.Lexception4:
	.byte	255                             // @LPStart Encoding = omit
	.byte	255                             // @TType Encoding = omit
	.byte	1                               // Call site Encoding = uleb128
	.uleb128 .Lcst_end4-.Lcst_begin4
.Lcst_begin4:
	.uleb128 .Lfunc_begin4-.Lfunc_begin4    // >> Call Site 1 <<
	.uleb128 .Ltmp105-.Lfunc_begin4         //   Call between .Lfunc_begin4 and .Ltmp105
	.byte	0                               //     has no landing pad
	.byte	0                               //   On action: cleanup
	.uleb128 .Ltmp105-.Lfunc_begin4         // >> Call Site 2 <<
	.uleb128 .Ltmp106-.Ltmp105              //   Call between .Ltmp105 and .Ltmp106
	.uleb128 .Ltmp107-.Lfunc_begin4         //     jumps to .Ltmp107
	.byte	0                               //   On action: cleanup
	.uleb128 .Ltmp108-.Lfunc_begin4         // >> Call Site 3 <<
	.uleb128 .Ltmp109-.Ltmp108              //   Call between .Ltmp108 and .Ltmp109
	.uleb128 .Ltmp110-.Lfunc_begin4         //     jumps to .Ltmp110
	.byte	0                               //   On action: cleanup
	.uleb128 .Ltmp109-.Lfunc_begin4         // >> Call Site 4 <<
	.uleb128 .Ltmp100-.Ltmp109              //   Call between .Ltmp109 and .Ltmp100
	.byte	0                               //     has no landing pad
	.byte	0                               //   On action: cleanup
	.uleb128 .Ltmp100-.Lfunc_begin4         // >> Call Site 5 <<
	.uleb128 .Ltmp101-.Ltmp100              //   Call between .Ltmp100 and .Ltmp101
	.uleb128 .Ltmp102-.Lfunc_begin4         //     jumps to .Ltmp102
	.byte	0                               //   On action: cleanup
	.uleb128 .Ltmp103-.Lfunc_begin4         // >> Call Site 6 <<
	.uleb128 .Ltmp104-.Ltmp103              //   Call between .Ltmp103 and .Ltmp104
	.uleb128 .Ltmp110-.Lfunc_begin4         //     jumps to .Ltmp110
	.byte	0                               //   On action: cleanup
	.uleb128 .Ltmp104-.Lfunc_begin4         // >> Call Site 7 <<
	.uleb128 .Lfunc_end6-.Ltmp104           //   Call between .Ltmp104 and .Lfunc_end6
	.byte	0                               //     has no landing pad
	.byte	0                               //   On action: cleanup
.Lcst_end4:
	.p2align	2
                                        // -- End function
	.section	.rodata.cst16,"aM",@progbits,16
	.p2align	4                               // -- Begin function _ZN9pocketfft6detail10general_ndINS0_11pocketfft_cIeEENS0_5cmplxIeEEeNS0_7ExecC2CEEEvRKNS0_6cndarrIT0_EERNS0_5ndarrIS8_EERKSt6vectorImSaImEET1_mRKT2_b
.LCPI7_0:
	.xword	0x0000000000000000              // fp128 1
	.xword	0x3fff000000000000
	.section	.text._ZN9pocketfft6detail10general_ndINS0_11pocketfft_cIeEENS0_5cmplxIeEEeNS0_7ExecC2CEEEvRKNS0_6cndarrIT0_EERNS0_5ndarrIS8_EERKSt6vectorImSaImEET1_mRKT2_b,"axG",@progbits,_ZN9pocketfft6detail10general_ndINS0_11pocketfft_cIeEENS0_5cmplxIeEEeNS0_7ExecC2CEEEvRKNS0_6cndarrIT0_EERNS0_5ndarrIS8_EERKSt6vectorImSaImEET1_mRKT2_b,comdat
	.weak	_ZN9pocketfft6detail10general_ndINS0_11pocketfft_cIeEENS0_5cmplxIeEEeNS0_7ExecC2CEEEvRKNS0_6cndarrIT0_EERNS0_5ndarrIS8_EERKSt6vectorImSaImEET1_mRKT2_b
	.p2align	2
	.type	_ZN9pocketfft6detail10general_ndINS0_11pocketfft_cIeEENS0_5cmplxIeEEeNS0_7ExecC2CEEEvRKNS0_6cndarrIT0_EERNS0_5ndarrIS8_EERKSt6vectorImSaImEET1_mRKT2_b,@function
_ZN9pocketfft6detail10general_ndINS0_11pocketfft_cIeEENS0_5cmplxIeEEeNS0_7ExecC2CEEEvRKNS0_6cndarrIT0_EERNS0_5ndarrIS8_EERKSt6vectorImSaImEET1_mRKT2_b: // @_ZN9pocketfft6detail10general_ndINS0_11pocketfft_cIeEENS0_5cmplxIeEEeNS0_7ExecC2CEEEvRKNS0_6cndarrIT0_EERNS0_5ndarrIS8_EERKSt6vectorImSaImEET1_mRKT2_b
.Lfunc_begin5:
	.cfi_startproc
	.cfi_personality 156, DW.ref.__gxx_personality_v0
	.cfi_lsda 28, .Lexception5
// %bb.0:
	sub	sp, sp, #256
	str	d8, [sp, #144]                  // 8-byte Folded Spill
	stp	x29, x30, [sp, #160]            // 16-byte Folded Spill
	add	x29, sp, #160
	stp	x28, x27, [sp, #176]            // 16-byte Folded Spill
	stp	x26, x25, [sp, #192]            // 16-byte Folded Spill
	stp	x24, x23, [sp, #208]            // 16-byte Folded Spill
	stp	x22, x21, [sp, #224]            // 16-byte Folded Spill
	stp	x20, x19, [sp, #240]            // 16-byte Folded Spill
	.cfi_def_cfa w29, 96
	.cfi_offset w19, -8
	.cfi_offset w20, -16
	.cfi_offset w21, -24
	.cfi_offset w22, -32
	.cfi_offset w23, -40
	.cfi_offset w24, -48
	.cfi_offset w25, -56
	.cfi_offset w26, -64
	.cfi_offset w27, -72
	.cfi_offset w28, -80
	.cfi_offset w30, -88
	.cfi_offset w29, -96
	.cfi_offset b8, -112
	ldp	x8, x9, [x2]
	sturb	w5, [x29, #-4]
	stur	q0, [x29, #-32]
	stp	xzr, xzr, [x29, #-48]
	stur	xzr, [x29, #-56]
	cmp	x9, x8
	b.eq	.LBB7_36
// %bb.1:
	adrp	x11, .LCPI7_0
	movi	v8.2s, #1
	mov	x19, x4
	mov	x20, x2
	mov	x21, x3
	mov	x22, x1
	mov	x23, x0
	mov	x10, xzr
	mov	x9, xzr
	sub	x27, x29, #32
	sub	x28, x29, #4
	ldr	q0, [x11, :lo12:.LCPI7_0]
	str	q0, [sp]                        // 16-byte Folded Spill
	ldr	x8, [x8, x9, lsl #3]
	ldr	x9, [x23]
	ldr	x24, [x9, x8, lsl #3]
	stur	x24, [x29, #-64]
	cbz	x10, .LBB7_3
.LBB7_2:
	ldr	x8, [x10, #16]
	cmp	x24, x8
	b.eq	.LBB7_12
.LBB7_3:
.Ltmp111:
	mov	w0, #40
	bl	_Znwm
.Ltmp112:
// %bb.4:
	adrp	x8, _ZTVSt23_Sp_counted_ptr_inplaceIN9pocketfft6detail11pocketfft_cIeEESaIS3_ELN9__gnu_cxx12_Lock_policyE2EE+16
	mov	x25, x0
	add	x26, x0, #16
	add	x8, x8, :lo12:_ZTVSt23_Sp_counted_ptr_inplaceIN9pocketfft6detail11pocketfft_cIeEESaIS3_ELN9__gnu_cxx12_Lock_policyE2EE+16
	str	d8, [x0, #8]
	str	x8, [x0]
.Ltmp114:
	mov	x0, x26
	mov	x1, x24
	bl	_ZN9pocketfft6detail11pocketfft_cIeEC2Em
.Ltmp115:
// %bb.5:
	ldur	x24, [x29, #-40]
	stp	x26, x25, [x29, #-48]
	cbz	x24, .LBB7_12
// %bb.6:
	adrp	x8, :got:__libc_single_threaded
	ldr	x8, [x8, :got_lo12:__libc_single_threaded]
	ldrb	w8, [x8]
	cbz	w8, .LBB7_8
// %bb.7:
	ldr	w0, [x24, #8]
	sub	w8, w0, #1
	str	w8, [x24, #8]
	cmp	w0, #1
	b.eq	.LBB7_9
	b	.LBB7_12
.LBB7_8:
	add	x1, x24, #8
	mov	w0, #-1
	bl	__aarch64_ldadd4_acq_rel
	cmp	w0, #1
	b.ne	.LBB7_12
.LBB7_9:
	ldr	x8, [x24]
	mov	x0, x24
	ldr	x8, [x8, #16]
	blr	x8
	adrp	x8, :got:__libc_single_threaded
	ldr	x8, [x8, :got_lo12:__libc_single_threaded]
	ldrb	w8, [x8]
	cbz	w8, .LBB7_28
// %bb.10:
	ldr	w0, [x24, #12]
	sub	w8, w0, #1
	str	w8, [x24, #12]
	cmp	w0, #1
	b.ne	.LBB7_12
.LBB7_11:
	ldr	x8, [x24]
	mov	x0, x24
	ldr	x8, [x8, #24]
	blr	x8
.LBB7_12:
	cmp	x21, #1
	b.ne	.LBB7_14
// %bb.13:
	mov	w0, #1
	b	.LBB7_25
.LBB7_14:
	ldp	x8, x9, [x23]
	cmp	x8, x9
	b.eq	.LBB7_17
// %bb.15:
	sub	x10, x9, x8
	sub	x10, x10, #8
	cmp	x10, #8
	b.hs	.LBB7_18
// %bb.16:
	mov	w11, #1
	mov	x10, x8
	b	.LBB7_21
.LBB7_17:
	mov	w11, #1
	b	.LBB7_22
.LBB7_18:
	lsr	x10, x10, #3
	add	x11, x8, #8
	add	x12, x10, #1
	mov	w15, #1
	and	x13, x12, #0x3ffffffffffffffe
	mov	w16, #1
	mov	x14, x13
	add	x10, x8, x13, lsl #3
.LBB7_19:                               // =>This Inner Loop Header: Depth=1
	ldp	x17, x18, [x11, #-8]
	add	x11, x11, #16
	subs	x14, x14, #2
	mul	x15, x17, x15
	mul	x16, x18, x16
	b.ne	.LBB7_19
// %bb.20:
	mul	x11, x16, x15
	cmp	x12, x13
	b.eq	.LBB7_22
.LBB7_21:                               // =>This Inner Loop Header: Depth=1
	ldr	x12, [x10], #8
	cmp	x10, x9
	mul	x11, x12, x11
	b.ne	.LBB7_21
.LBB7_22:
	ldur	x9, [x29, #-56]
	ldr	x10, [x20]
	ldr	x9, [x10, x9, lsl #3]
	ldr	x8, [x8, x9, lsl #3]
	udiv	x9, x11, x8
	cmp	x8, #1000
	mov	x8, x21
	lsr	x10, x9, #2
	csel	x24, x10, x9, lo
	cbnz	x21, .LBB7_24
// %bb.23:
	bl	_ZNSt6thread20hardware_concurrencyEv
	mov	w8, w0
.LBB7_24:
	cmp	x8, x24
	csel	x8, x8, x24, lo
	cmp	x8, #1
	csinc	x0, x8, xzr, hi
.LBB7_25:
	sub	x8, x29, #64
	stp	x20, x19, [sp, #56]
	str	x28, [sp, #88]
	stp	x23, x8, [sp, #24]
	sub	x8, x29, #56
	stp	x8, x22, [sp, #40]
	sub	x8, x29, #48
	stp	x8, x27, [sp, #72]
.Ltmp117:
	add	x1, sp, #24
	bl	_ZN9pocketfft6detail9threading10thread_mapIZNS0_10general_ndINS0_11pocketfft_cIeEENS0_5cmplxIeEEeNS0_7ExecC2CEEEvRKNS0_6cndarrIT0_EERNS0_5ndarrISA_EERKSt6vectorImSaImEET1_mRKT2_bEUlvE_EEvmT_
.Ltmp118:
// %bb.26:
	ldp	x8, x10, [x20]
	ldur	x9, [x29, #-56]
	ldr	q0, [sp]                        // 16-byte Folded Reload
	add	x9, x9, #1
	sub	x10, x10, x8
	stur	q0, [x29, #-32]
	cmp	x9, x10, asr #3
	stur	x9, [x29, #-56]
	b.hs	.LBB7_29
// %bb.27:
	ldur	x10, [x29, #-48]
	ldr	x8, [x8, x9, lsl #3]
	ldr	x9, [x23]
	ldr	x24, [x9, x8, lsl #3]
	stur	x24, [x29, #-64]
	cbnz	x10, .LBB7_2
	b	.LBB7_3
.LBB7_28:
	add	x1, x24, #12
	mov	w0, #-1
	bl	__aarch64_ldadd4_acq_rel
	cmp	w0, #1
	b.eq	.LBB7_11
	b	.LBB7_12
.LBB7_29:
	ldur	x19, [x29, #-40]
	cbz	x19, .LBB7_36
// %bb.30:
	adrp	x8, :got:__libc_single_threaded
	ldr	x8, [x8, :got_lo12:__libc_single_threaded]
	ldrb	w8, [x8]
	cbz	w8, .LBB7_32
// %bb.31:
	ldr	w0, [x19, #8]
	sub	w8, w0, #1
	str	w8, [x19, #8]
	cmp	w0, #1
	b.eq	.LBB7_33
	b	.LBB7_36
.LBB7_32:
	add	x1, x19, #8
	mov	w0, #-1
	bl	__aarch64_ldadd4_acq_rel
	cmp	w0, #1
	b.ne	.LBB7_36
.LBB7_33:
	ldr	x8, [x19]
	mov	x0, x19
	ldr	x8, [x8, #16]
	blr	x8
	adrp	x8, :got:__libc_single_threaded
	ldr	x8, [x8, :got_lo12:__libc_single_threaded]
	ldrb	w8, [x8]
	cbz	w8, .LBB7_37
// %bb.34:
	ldr	w0, [x19, #12]
	sub	w8, w0, #1
	str	w8, [x19, #12]
	cmp	w0, #1
	b.ne	.LBB7_36
.LBB7_35:
	ldr	x8, [x19]
	mov	x0, x19
	ldr	x8, [x8, #24]
	blr	x8
.LBB7_36:
	ldp	x20, x19, [sp, #240]            // 16-byte Folded Reload
	ldp	x22, x21, [sp, #224]            // 16-byte Folded Reload
	ldp	x24, x23, [sp, #208]            // 16-byte Folded Reload
	ldp	x26, x25, [sp, #192]            // 16-byte Folded Reload
	ldp	x28, x27, [sp, #176]            // 16-byte Folded Reload
	ldp	x29, x30, [sp, #160]            // 16-byte Folded Reload
	ldr	d8, [sp, #144]                  // 8-byte Folded Reload
	add	sp, sp, #256
	ret
.LBB7_37:
	add	x1, x19, #12
	mov	w0, #-1
	bl	__aarch64_ldadd4_acq_rel
	cmp	w0, #1
	b.eq	.LBB7_35
	b	.LBB7_36
.LBB7_38:
.Ltmp113:
	b	.LBB7_41
.LBB7_39:
.Ltmp116:
	mov	x19, x0
	mov	x0, x25
	bl	_ZdlPv
	b	.LBB7_42
.LBB7_40:
.Ltmp119:
.LBB7_41:
	mov	x19, x0
.LBB7_42:
	sub	x0, x29, #48
	bl	_ZNSt12__shared_ptrIN9pocketfft6detail11pocketfft_cIeEELN9__gnu_cxx12_Lock_policyE2EED2Ev
	mov	x0, x19
	bl	_Unwind_Resume
.Lfunc_end7:
	.size	_ZN9pocketfft6detail10general_ndINS0_11pocketfft_cIeEENS0_5cmplxIeEEeNS0_7ExecC2CEEEvRKNS0_6cndarrIT0_EERNS0_5ndarrIS8_EERKSt6vectorImSaImEET1_mRKT2_b, .Lfunc_end7-_ZN9pocketfft6detail10general_ndINS0_11pocketfft_cIeEENS0_5cmplxIeEEeNS0_7ExecC2CEEEvRKNS0_6cndarrIT0_EERNS0_5ndarrIS8_EERKSt6vectorImSaImEET1_mRKT2_b
	.cfi_endproc
	.section	.gcc_except_table._ZN9pocketfft6detail10general_ndINS0_11pocketfft_cIeEENS0_5cmplxIeEEeNS0_7ExecC2CEEEvRKNS0_6cndarrIT0_EERNS0_5ndarrIS8_EERKSt6vectorImSaImEET1_mRKT2_b,"aG",@progbits,_ZN9pocketfft6detail10general_ndINS0_11pocketfft_cIeEENS0_5cmplxIeEEeNS0_7ExecC2CEEEvRKNS0_6cndarrIT0_EERNS0_5ndarrIS8_EERKSt6vectorImSaImEET1_mRKT2_b,comdat
	.p2align	2
GCC_except_table7:
.Lexception5:
	.byte	255                             // @LPStart Encoding = omit
	.byte	255                             // @TType Encoding = omit
	.byte	1                               // Call site Encoding = uleb128
	.uleb128 .Lcst_end5-.Lcst_begin5
.Lcst_begin5:
	.uleb128 .Ltmp111-.Lfunc_begin5         // >> Call Site 1 <<
	.uleb128 .Ltmp112-.Ltmp111              //   Call between .Ltmp111 and .Ltmp112
	.uleb128 .Ltmp113-.Lfunc_begin5         //     jumps to .Ltmp113
	.byte	0                               //   On action: cleanup
	.uleb128 .Ltmp114-.Lfunc_begin5         // >> Call Site 2 <<
	.uleb128 .Ltmp115-.Ltmp114              //   Call between .Ltmp114 and .Ltmp115
	.uleb128 .Ltmp116-.Lfunc_begin5         //     jumps to .Ltmp116
	.byte	0                               //   On action: cleanup
	.uleb128 .Ltmp115-.Lfunc_begin5         // >> Call Site 3 <<
	.uleb128 .Ltmp117-.Ltmp115              //   Call between .Ltmp115 and .Ltmp117
	.byte	0                               //     has no landing pad
	.byte	0                               //   On action: cleanup
	.uleb128 .Ltmp117-.Lfunc_begin5         // >> Call Site 4 <<
	.uleb128 .Ltmp118-.Ltmp117              //   Call between .Ltmp117 and .Ltmp118
	.uleb128 .Ltmp119-.Lfunc_begin5         //     jumps to .Ltmp119
	.byte	0                               //   On action: cleanup
	.uleb128 .Ltmp118-.Lfunc_begin5         // >> Call Site 5 <<
	.uleb128 .Lfunc_end7-.Ltmp118           //   Call between .Ltmp118 and .Lfunc_end7
	.byte	0                               //     has no landing pad
	.byte	0                               //   On action: cleanup
.Lcst_end5:
	.p2align	2
                                        // -- End function
	.section	.text._ZN9pocketfft6detail4util12sanity_checkERKSt6vectorImSaImEERKS2_IlSaIlEESA_b,"axG",@progbits,_ZN9pocketfft6detail4util12sanity_checkERKSt6vectorImSaImEERKS2_IlSaIlEESA_b,comdat
	.weak	_ZN9pocketfft6detail4util12sanity_checkERKSt6vectorImSaImEERKS2_IlSaIlEESA_b // -- Begin function _ZN9pocketfft6detail4util12sanity_checkERKSt6vectorImSaImEERKS2_IlSaIlEESA_b
	.p2align	2
	.type	_ZN9pocketfft6detail4util12sanity_checkERKSt6vectorImSaImEERKS2_IlSaIlEESA_b,@function
_ZN9pocketfft6detail4util12sanity_checkERKSt6vectorImSaImEERKS2_IlSaIlEESA_b: // @_ZN9pocketfft6detail4util12sanity_checkERKSt6vectorImSaImEERKS2_IlSaIlEESA_b
.Lfunc_begin6:
	.cfi_startproc
	.cfi_personality 156, DW.ref.__gxx_personality_v0
	.cfi_lsda 28, .Lexception6
// %bb.0:
	stp	x29, x30, [sp, #-32]!           // 16-byte Folded Spill
	stp	x20, x19, [sp, #16]             // 16-byte Folded Spill
	mov	x29, sp
	.cfi_def_cfa w29, 32
	.cfi_offset w19, -8
	.cfi_offset w20, -16
	.cfi_offset w30, -24
	.cfi_offset w29, -32
	ldp	x10, x9, [x0]
	subs	x9, x9, x10
	b.eq	.LBB8_9
// %bb.1:
	ldp	x0, x10, [x1]
	mov	x8, x2
	asr	x9, x9, #3
	sub	x2, x10, x0
	cmp	x9, x2, asr #3
	b.ne	.LBB8_8
// %bb.2:
	ldp	x1, x10, [x8]
	sub	x8, x10, x1
	cmp	x9, x8, asr #3
	b.ne	.LBB8_8
// %bb.3:
	tbz	w3, #0, .LBB8_7
// %bb.4:
	cmp	x2, x8
	b.ne	.LBB8_10
// %bb.5:
	cbz	x2, .LBB8_7
// %bb.6:
	bl	bcmp
	cbnz	w0, .LBB8_10
.LBB8_7:
	ldp	x20, x19, [sp, #16]             // 16-byte Folded Reload
	ldp	x29, x30, [sp], #32             // 16-byte Folded Reload
	ret
.LBB8_8:
	mov	w0, #16
	bl	__cxa_allocate_exception
	mov	x19, x0
.Ltmp120:
	adrp	x1, .L.str.6
	add	x1, x1, :lo12:.L.str.6
	bl	_ZNSt13runtime_errorC1EPKc
.Ltmp121:
	b	.LBB8_11
.LBB8_9:
	mov	w0, #16
	bl	__cxa_allocate_exception
	mov	x19, x0
.Ltmp126:
	adrp	x1, .L.str.5
	add	x1, x1, :lo12:.L.str.5
	bl	_ZNSt13runtime_errorC1EPKc
.Ltmp127:
	b	.LBB8_11
.LBB8_10:
	mov	w0, #16
	bl	__cxa_allocate_exception
	mov	x19, x0
.Ltmp123:
	adrp	x1, .L.str.7
	add	x1, x1, :lo12:.L.str.7
	bl	_ZNSt13runtime_errorC1EPKc
.Ltmp124:
.LBB8_11:
	adrp	x1, :got:_ZTISt13runtime_error
	adrp	x2, :got:_ZNSt13runtime_errorD1Ev
	mov	x0, x19
	ldr	x1, [x1, :got_lo12:_ZTISt13runtime_error]
	ldr	x2, [x2, :got_lo12:_ZNSt13runtime_errorD1Ev]
	bl	__cxa_throw
.LBB8_12:
.Ltmp125:
	b	.LBB8_15
.LBB8_13:
.Ltmp128:
	b	.LBB8_15
.LBB8_14:
.Ltmp122:
.LBB8_15:
	mov	x20, x0
	mov	x0, x19
	bl	__cxa_free_exception
	mov	x0, x20
	bl	_Unwind_Resume
.Lfunc_end8:
	.size	_ZN9pocketfft6detail4util12sanity_checkERKSt6vectorImSaImEERKS2_IlSaIlEESA_b, .Lfunc_end8-_ZN9pocketfft6detail4util12sanity_checkERKSt6vectorImSaImEERKS2_IlSaIlEESA_b
	.cfi_endproc
	.section	.gcc_except_table._ZN9pocketfft6detail4util12sanity_checkERKSt6vectorImSaImEERKS2_IlSaIlEESA_b,"aG",@progbits,_ZN9pocketfft6detail4util12sanity_checkERKSt6vectorImSaImEERKS2_IlSaIlEESA_b,comdat
	.p2align	2
GCC_except_table8:
.Lexception6:
	.byte	255                             // @LPStart Encoding = omit
	.byte	255                             // @TType Encoding = omit
	.byte	1                               // Call site Encoding = uleb128
	.uleb128 .Lcst_end6-.Lcst_begin6
.Lcst_begin6:
	.uleb128 .Lfunc_begin6-.Lfunc_begin6    // >> Call Site 1 <<
	.uleb128 .Ltmp120-.Lfunc_begin6         //   Call between .Lfunc_begin6 and .Ltmp120
	.byte	0                               //     has no landing pad
	.byte	0                               //   On action: cleanup
	.uleb128 .Ltmp120-.Lfunc_begin6         // >> Call Site 2 <<
	.uleb128 .Ltmp121-.Ltmp120              //   Call between .Ltmp120 and .Ltmp121
	.uleb128 .Ltmp122-.Lfunc_begin6         //     jumps to .Ltmp122
	.byte	0                               //   On action: cleanup
	.uleb128 .Ltmp121-.Lfunc_begin6         // >> Call Site 3 <<
	.uleb128 .Ltmp126-.Ltmp121              //   Call between .Ltmp121 and .Ltmp126
	.byte	0                               //     has no landing pad
	.byte	0                               //   On action: cleanup
	.uleb128 .Ltmp126-.Lfunc_begin6         // >> Call Site 4 <<
	.uleb128 .Ltmp127-.Ltmp126              //   Call between .Ltmp126 and .Ltmp127
	.uleb128 .Ltmp128-.Lfunc_begin6         //     jumps to .Ltmp128
	.byte	0                               //   On action: cleanup
	.uleb128 .Ltmp127-.Lfunc_begin6         // >> Call Site 5 <<
	.uleb128 .Ltmp123-.Ltmp127              //   Call between .Ltmp127 and .Ltmp123
	.byte	0                               //     has no landing pad
	.byte	0                               //   On action: cleanup
	.uleb128 .Ltmp123-.Lfunc_begin6         // >> Call Site 6 <<
	.uleb128 .Ltmp124-.Ltmp123              //   Call between .Ltmp123 and .Ltmp124
	.uleb128 .Ltmp125-.Lfunc_begin6         //     jumps to .Ltmp125
	.byte	0                               //   On action: cleanup
	.uleb128 .Ltmp124-.Lfunc_begin6         // >> Call Site 7 <<
	.uleb128 .Lfunc_end8-.Ltmp124           //   Call between .Ltmp124 and .Lfunc_end8
	.byte	0                               //     has no landing pad
	.byte	0                               //   On action: cleanup
.Lcst_end6:
	.p2align	2
                                        // -- End function
	.section	.text._ZN9pocketfft6detail8arr_infoC2ERKSt6vectorImSaImEERKS2_IlSaIlEE,"axG",@progbits,_ZN9pocketfft6detail8arr_infoC2ERKSt6vectorImSaImEERKS2_IlSaIlEE,comdat
	.weak	_ZN9pocketfft6detail8arr_infoC2ERKSt6vectorImSaImEERKS2_IlSaIlEE // -- Begin function _ZN9pocketfft6detail8arr_infoC2ERKSt6vectorImSaImEERKS2_IlSaIlEE
	.p2align	2
	.type	_ZN9pocketfft6detail8arr_infoC2ERKSt6vectorImSaImEERKS2_IlSaIlEE,@function
_ZN9pocketfft6detail8arr_infoC2ERKSt6vectorImSaImEERKS2_IlSaIlEE: // @_ZN9pocketfft6detail8arr_infoC2ERKSt6vectorImSaImEERKS2_IlSaIlEE
.Lfunc_begin7:
	.cfi_startproc
	.cfi_personality 156, DW.ref.__gxx_personality_v0
	.cfi_lsda 28, .Lexception7
// %bb.0:
	stp	x29, x30, [sp, #-64]!           // 16-byte Folded Spill
	str	x23, [sp, #16]                  // 8-byte Folded Spill
	mov	x29, sp
	stp	x22, x21, [sp, #32]             // 16-byte Folded Spill
	stp	x20, x19, [sp, #48]             // 16-byte Folded Spill
	.cfi_def_cfa w29, 64
	.cfi_offset w19, -8
	.cfi_offset w20, -16
	.cfi_offset w21, -24
	.cfi_offset w22, -32
	.cfi_offset w23, -48
	.cfi_offset w30, -56
	.cfi_offset w29, -64
	ldp	x9, x8, [x1]
	mov	x20, x2
	mov	x21, x1
	mov	x19, x0
	stp	xzr, xzr, [x0]
	str	xzr, [x0, #16]
	subs	x23, x8, x9
	b.eq	.LBB9_3
// %bb.1:
	mov	x8, #-7
	movk	x8, #32767, lsl #48
	cmp	x23, x8
	b.hs	.LBB9_14
// %bb.2:
	mov	x0, x23
	bl	_Znwm
	mov	x22, x0
	b	.LBB9_4
.LBB9_3:
	mov	x22, xzr
.LBB9_4:
	asr	x8, x23, #3
	stp	x22, x22, [x19]
	add	x8, x22, x8, lsl #3
	str	x8, [x19, #16]
	ldp	x1, x8, [x21]
	subs	x21, x8, x1
	b.eq	.LBB9_6
// %bb.5:
	mov	x0, x22
	mov	x2, x21
	bl	memmove
.LBB9_6:
	ldp	x10, x9, [x20]
	add	x8, x22, x21
	stp	xzr, xzr, [x19, #24]
	str	xzr, [x19, #40]
	str	x8, [x19, #8]
	subs	x21, x9, x10
	b.eq	.LBB9_10
// %bb.7:
	mov	x8, #-7
	movk	x8, #32767, lsl #48
	cmp	x21, x8
	b.hs	.LBB9_15
// %bb.8:
.Ltmp129:
	mov	x0, x21
	bl	_Znwm
.Ltmp130:
// %bb.9:
	mov	x22, x0
	b	.LBB9_11
.LBB9_10:
	mov	x22, xzr
.LBB9_11:
	asr	x8, x21, #3
	stp	x22, x22, [x19, #24]
	add	x8, x22, x8, lsl #3
	str	x8, [x19, #40]
	ldp	x1, x8, [x20]
	subs	x20, x8, x1
	b.eq	.LBB9_13
// %bb.12:
	mov	x0, x22
	mov	x2, x20
	bl	memmove
.LBB9_13:
	add	x8, x22, x20
	ldr	x23, [sp, #16]                  // 8-byte Folded Reload
	ldp	x22, x21, [sp, #32]             // 16-byte Folded Reload
	str	x8, [x19, #32]
	ldp	x20, x19, [sp, #48]             // 16-byte Folded Reload
	ldp	x29, x30, [sp], #64             // 16-byte Folded Reload
	ret
.LBB9_14:
	bl	_ZSt28__throw_bad_array_new_lengthv
.LBB9_15:
.Ltmp131:
	bl	_ZSt28__throw_bad_array_new_lengthv
.Ltmp132:
// %bb.16:
.LBB9_17:
.Ltmp133:
	ldr	x8, [x19]
	mov	x19, x0
	cbz	x8, .LBB9_19
// %bb.18:
	mov	x0, x8
	bl	_ZdlPv
.LBB9_19:
	mov	x0, x19
	bl	_Unwind_Resume
.Lfunc_end9:
	.size	_ZN9pocketfft6detail8arr_infoC2ERKSt6vectorImSaImEERKS2_IlSaIlEE, .Lfunc_end9-_ZN9pocketfft6detail8arr_infoC2ERKSt6vectorImSaImEERKS2_IlSaIlEE
	.cfi_endproc
	.section	.gcc_except_table._ZN9pocketfft6detail8arr_infoC2ERKSt6vectorImSaImEERKS2_IlSaIlEE,"aG",@progbits,_ZN9pocketfft6detail8arr_infoC2ERKSt6vectorImSaImEERKS2_IlSaIlEE,comdat
	.p2align	2
GCC_except_table9:
.Lexception7:
	.byte	255                             // @LPStart Encoding = omit
	.byte	255                             // @TType Encoding = omit
	.byte	1                               // Call site Encoding = uleb128
	.uleb128 .Lcst_end7-.Lcst_begin7
.Lcst_begin7:
	.uleb128 .Lfunc_begin7-.Lfunc_begin7    // >> Call Site 1 <<
	.uleb128 .Ltmp129-.Lfunc_begin7         //   Call between .Lfunc_begin7 and .Ltmp129
	.byte	0                               //     has no landing pad
	.byte	0                               //   On action: cleanup
	.uleb128 .Ltmp129-.Lfunc_begin7         // >> Call Site 2 <<
	.uleb128 .Ltmp130-.Ltmp129              //   Call between .Ltmp129 and .Ltmp130
	.uleb128 .Ltmp133-.Lfunc_begin7         //     jumps to .Ltmp133
	.byte	0                               //   On action: cleanup
	.uleb128 .Ltmp130-.Lfunc_begin7         // >> Call Site 3 <<
	.uleb128 .Ltmp131-.Ltmp130              //   Call between .Ltmp130 and .Ltmp131
	.byte	0                               //     has no landing pad
	.byte	0                               //   On action: cleanup
	.uleb128 .Ltmp131-.Lfunc_begin7         // >> Call Site 4 <<
	.uleb128 .Ltmp132-.Ltmp131              //   Call between .Ltmp131 and .Ltmp132
	.uleb128 .Ltmp133-.Lfunc_begin7         //     jumps to .Ltmp133
	.byte	0                               //   On action: cleanup
	.uleb128 .Ltmp132-.Lfunc_begin7         // >> Call Site 5 <<
	.uleb128 .Lfunc_end9-.Ltmp132           //   Call between .Ltmp132 and .Lfunc_end9
	.byte	0                               //     has no landing pad
	.byte	0                               //   On action: cleanup
.Lcst_end7:
	.p2align	2
                                        // -- End function
	.section	.text._ZN9pocketfft6detail9threading10thread_mapIZNS0_10general_ndINS0_11pocketfft_cIeEENS0_5cmplxIeEEeNS0_7ExecC2CEEEvRKNS0_6cndarrIT0_EERNS0_5ndarrISA_EERKSt6vectorImSaImEET1_mRKT2_bEUlvE_EEvmT_,"axG",@progbits,_ZN9pocketfft6detail9threading10thread_mapIZNS0_10general_ndINS0_11pocketfft_cIeEENS0_5cmplxIeEEeNS0_7ExecC2CEEEvRKNS0_6cndarrIT0_EERNS0_5ndarrISA_EERKSt6vectorImSaImEET1_mRKT2_bEUlvE_EEvmT_,comdat
	.weak	_ZN9pocketfft6detail9threading10thread_mapIZNS0_10general_ndINS0_11pocketfft_cIeEENS0_5cmplxIeEEeNS0_7ExecC2CEEEvRKNS0_6cndarrIT0_EERNS0_5ndarrISA_EERKSt6vectorImSaImEET1_mRKT2_bEUlvE_EEvmT_ // -- Begin function _ZN9pocketfft6detail9threading10thread_mapIZNS0_10general_ndINS0_11pocketfft_cIeEENS0_5cmplxIeEEeNS0_7ExecC2CEEEvRKNS0_6cndarrIT0_EERNS0_5ndarrISA_EERKSt6vectorImSaImEET1_mRKT2_bEUlvE_EEvmT_
	.p2align	2
	.type	_ZN9pocketfft6detail9threading10thread_mapIZNS0_10general_ndINS0_11pocketfft_cIeEENS0_5cmplxIeEEeNS0_7ExecC2CEEEvRKNS0_6cndarrIT0_EERNS0_5ndarrISA_EERKSt6vectorImSaImEET1_mRKT2_bEUlvE_EEvmT_,@function
_ZN9pocketfft6detail9threading10thread_mapIZNS0_10general_ndINS0_11pocketfft_cIeEENS0_5cmplxIeEEeNS0_7ExecC2CEEEvRKNS0_6cndarrIT0_EERNS0_5ndarrISA_EERKSt6vectorImSaImEET1_mRKT2_bEUlvE_EEvmT_: // @_ZN9pocketfft6detail9threading10thread_mapIZNS0_10general_ndINS0_11pocketfft_cIeEENS0_5cmplxIeEEeNS0_7ExecC2CEEEvRKNS0_6cndarrIT0_EERNS0_5ndarrISA_EERKSt6vectorImSaImEET1_mRKT2_bEUlvE_EEvmT_
.Lfunc_begin8:
	.cfi_startproc
	.cfi_personality 156, DW.ref.__gxx_personality_v0
	.cfi_lsda 28, .Lexception8
// %bb.0:
	sub	sp, sp, #336
	stp	x29, x30, [sp, #240]            // 16-byte Folded Spill
	add	x29, sp, #240
	stp	x28, x27, [sp, #256]            // 16-byte Folded Spill
	stp	x26, x25, [sp, #272]            // 16-byte Folded Spill
	stp	x24, x23, [sp, #288]            // 16-byte Folded Spill
	stp	x22, x21, [sp, #304]            // 16-byte Folded Spill
	stp	x20, x19, [sp, #320]            // 16-byte Folded Spill
	.cfi_def_cfa w29, 96
	.cfi_offset w19, -8
	.cfi_offset w20, -16
	.cfi_offset w21, -24
	.cfi_offset w22, -32
	.cfi_offset w23, -40
	.cfi_offset w24, -48
	.cfi_offset w25, -56
	.cfi_offset w26, -64
	.cfi_offset w27, -72
	.cfi_offset w28, -80
	.cfi_offset w30, -88
	.cfi_offset w29, -96
	adrp	x8, .L_MergedGlobals+8
	cmp	x0, #0
	mov	x20, x1
	ldr	x8, [x8, :lo12:.L_MergedGlobals+8]
	csel	x22, x8, x0, eq
	cmp	x22, #1
	b.ne	.LBB10_2
// %bb.1:
	mov	x0, x20
	ldp	x20, x19, [sp, #320]            // 16-byte Folded Reload
	ldp	x22, x21, [sp, #304]            // 16-byte Folded Reload
	ldp	x24, x23, [sp, #288]            // 16-byte Folded Reload
	ldp	x26, x25, [sp, #272]            // 16-byte Folded Reload
	ldp	x28, x27, [sp, #256]            // 16-byte Folded Reload
	ldp	x29, x30, [sp, #240]            // 16-byte Folded Reload
	add	sp, sp, #336
	b	_ZZN9pocketfft6detail10general_ndINS0_11pocketfft_cIeEENS0_5cmplxIeEEeNS0_7ExecC2CEEEvRKNS0_6cndarrIT0_EERNS0_5ndarrIS8_EERKSt6vectorImSaImEET1_mRKT2_bENKUlvE_clEv
.LBB10_2:
	adrp	x8, _ZGVZN9pocketfft6detail9threading8get_poolEvE4pool
	add	x8, x8, :lo12:_ZGVZN9pocketfft6detail9threading8get_poolEvE4pool
	ldarb	w8, [x8]
	tbz	w8, #0, .LBB10_18
.LBB10_3:
	add	x23, sp, #112
	str	x22, [sp, #112]
	movi	v0.2d, #0000000000000000
	add	x19, x23, #56
	mov	x0, x19
	str	xzr, [sp, #152]
	stur	q0, [sp, #120]
	stur	q0, [sp, #136]
	bl	_ZNSt18condition_variableC1Ev
	movi	v0.2d, #0000000000000000
	str	xzr, [sp, #104]
	str	xzr, [sp, #80]
	stp	q0, q0, [sp, #48]
	cbz	x22, .LBB10_10
// %bb.4:
	adrp	x27, _ZNSt17_Function_handlerIFvvEZN9pocketfft6detail9threading10thread_mapIZNS2_10general_ndINS2_11pocketfft_cIeEENS2_5cmplxIeEEeNS2_7ExecC2CEEEvRKNS2_6cndarrIT0_EERNS2_5ndarrISC_EERKSt6vectorImSaImEET1_mRKT2_bEUlvE_EEvmT_EUlvE_E9_M_invokeERKSt9_Any_data
	adrp	x28, _ZNSt17_Function_handlerIFvvEZN9pocketfft6detail9threading10thread_mapIZNS2_10general_ndINS2_11pocketfft_cIeEENS2_5cmplxIeEEeNS2_7ExecC2CEEEvRKNS2_6cndarrIT0_EERNS2_5ndarrISC_EERKSt6vectorImSaImEET1_mRKT2_bEUlvE_EEvmT_EUlvE_E10_M_managerERSt9_Any_dataRKSW_St18_Manager_operation
	adrp	x21, _ZZN9pocketfft6detail9threading8get_poolEvE4pool
	mov	x24, xzr
	add	x25, sp, #104
	add	x26, sp, #48
	add	x27, x27, :lo12:_ZNSt17_Function_handlerIFvvEZN9pocketfft6detail9threading10thread_mapIZNS2_10general_ndINS2_11pocketfft_cIeEENS2_5cmplxIeEEeNS2_7ExecC2CEEEvRKNS2_6cndarrIT0_EERNS2_5ndarrISC_EERKSt6vectorImSaImEET1_mRKT2_bEUlvE_EEvmT_EUlvE_E9_M_invokeERKSt9_Any_data
	add	x28, x28, :lo12:_ZNSt17_Function_handlerIFvvEZN9pocketfft6detail9threading10thread_mapIZNS2_10general_ndINS2_11pocketfft_cIeEENS2_5cmplxIeEEeNS2_7ExecC2CEEEvRKNS2_6cndarrIT0_EERNS2_5ndarrISC_EERKSt6vectorImSaImEET1_mRKT2_bEUlvE_EEvmT_EUlvE_E10_M_managerERSt9_Any_dataRKSW_St18_Manager_operation
	add	x21, x21, :lo12:_ZZN9pocketfft6detail9threading8get_poolEvE4pool
	b	.LBB10_6
.LBB10_5:                               //   in Loop: Header=BB10_6 Depth=1
	add	x24, x24, #1
	cmp	x22, x24
	b.eq	.LBB10_10
.LBB10_6:                               // =>This Inner Loop Header: Depth=1
	movi	v0.2d, #0000000000000000
	stp	q0, q0, [sp, #16]
.Ltmp137:
	mov	w0, #48
	bl	_Znwm
.Ltmp138:
// %bb.7:                               //   in Loop: Header=BB10_6 Depth=1
	stp	x20, x23, [x0]
	stp	x25, x26, [x0, #16]
	stp	x24, x22, [x0, #32]
	stp	x28, x27, [sp, #32]
	str	x0, [sp, #16]
.Ltmp140:
	add	x1, sp, #16
	mov	x0, x21
	bl	_ZN9pocketfft6detail9threading11thread_pool6submitESt8functionIFvvEE
.Ltmp141:
// %bb.8:                               //   in Loop: Header=BB10_6 Depth=1
	ldr	x8, [sp, #32]
	cbz	x8, .LBB10_5
// %bb.9:                               //   in Loop: Header=BB10_6 Depth=1
.Ltmp146:
	add	x0, sp, #16
	add	x1, sp, #16
	mov	w2, #3
	blr	x8
.Ltmp147:
	b	.LBB10_5
.LBB10_10:
	add	x0, x23, #8
	stur	x0, [x29, #-24]
	bl	pthread_mutex_lock
	cbnz	w0, .LBB10_21
// %bb.11:
	mov	w8, #1
	add	x20, sp, #112
	sturb	w8, [x29, #-16]
	ldar	x8, [x20]
	cbz	x8, .LBB10_13
.LBB10_12:                              // =>This Inner Loop Header: Depth=1
	sub	x1, x29, #24
	mov	x0, x19
	bl	_ZNSt18condition_variable4waitERSt11unique_lockISt5mutexE
	ldar	x8, [x20]
	cbnz	x8, .LBB10_12
.LBB10_13:
	ldurb	w8, [x29, #-16]
	cbz	w8, .LBB10_16
// %bb.14:
	ldur	x0, [x29, #-24]
	cbz	x0, .LBB10_16
// %bb.15:
	bl	pthread_mutex_unlock
.LBB10_16:
	ldr	x8, [sp, #104]
	cbnz	x8, .LBB10_23
// %bb.17:
	mov	x0, x19
	bl	_ZNSt18condition_variableD1Ev
	ldp	x20, x19, [sp, #320]            // 16-byte Folded Reload
	ldp	x22, x21, [sp, #304]            // 16-byte Folded Reload
	ldp	x24, x23, [sp, #288]            // 16-byte Folded Reload
	ldp	x26, x25, [sp, #272]            // 16-byte Folded Reload
	ldp	x28, x27, [sp, #256]            // 16-byte Folded Reload
	ldp	x29, x30, [sp, #240]            // 16-byte Folded Reload
	add	sp, sp, #336
	ret
.LBB10_18:
	adrp	x0, _ZGVZN9pocketfft6detail9threading8get_poolEvE4pool
	add	x0, x0, :lo12:_ZGVZN9pocketfft6detail9threading8get_poolEvE4pool
	bl	__cxa_guard_acquire
	cbz	w0, .LBB10_3
// %bb.19:
.Ltmp134:
	adrp	x0, _ZZN9pocketfft6detail9threading8get_poolEvE4pool
	add	x0, x0, :lo12:_ZZN9pocketfft6detail9threading8get_poolEvE4pool
	bl	_ZN9pocketfft6detail9threading11thread_poolC2Ev
.Ltmp135:
// %bb.20:
	adrp	x0, _ZN9pocketfft6detail9threading11thread_poolD2Ev
	adrp	x1, _ZZN9pocketfft6detail9threading8get_poolEvE4pool
	adrp	x2, __dso_handle
	add	x0, x0, :lo12:_ZN9pocketfft6detail9threading11thread_poolD2Ev
	add	x1, x1, :lo12:_ZZN9pocketfft6detail9threading8get_poolEvE4pool
	add	x2, x2, :lo12:__dso_handle
	bl	__cxa_atexit
	adrp	x0, _ZGVZN9pocketfft6detail9threading8get_poolEvE4pool
	add	x0, x0, :lo12:_ZGVZN9pocketfft6detail9threading8get_poolEvE4pool
	bl	__cxa_guard_release
	b	.LBB10_3
.LBB10_21:
.Ltmp149:
	bl	_ZSt20__throw_system_errori
.Ltmp150:
// %bb.22:
.LBB10_23:
	add	x0, sp, #8
	str	x8, [sp, #8]
	bl	_ZNSt15__exception_ptr13exception_ptr9_M_addrefEv
.Ltmp152:
	add	x0, sp, #8
	bl	_ZSt17rethrow_exceptionNSt15__exception_ptr13exception_ptrE
.Ltmp153:
// %bb.24:
.LBB10_25:
.Ltmp136:
	mov	x20, x0
	adrp	x0, _ZGVZN9pocketfft6detail9threading8get_poolEvE4pool
	add	x0, x0, :lo12:_ZGVZN9pocketfft6detail9threading8get_poolEvE4pool
	bl	__cxa_guard_abort
	mov	x0, x20
	bl	_Unwind_Resume
.LBB10_26:
.Ltmp154:
	ldr	x8, [sp, #8]
	mov	x20, x0
	cbz	x8, .LBB10_34
// %bb.27:
	add	x0, sp, #8
	bl	_ZNSt15__exception_ptr13exception_ptr10_M_releaseEv
	b	.LBB10_34
.LBB10_28:
.Ltmp151:
	b	.LBB10_31
.LBB10_29:
.Ltmp148:
	bl	__clang_call_terminate
.LBB10_30:
.Ltmp139:
.LBB10_31:
	mov	x20, x0
	b	.LBB10_34
.LBB10_32:
.Ltmp142:
	ldr	x8, [sp, #32]
	mov	x20, x0
	cbz	x8, .LBB10_34
// %bb.33:
.Ltmp143:
	add	x0, sp, #16
	add	x1, sp, #16
	mov	w2, #3
	blr	x8
.Ltmp144:
.LBB10_34:
	ldr	x8, [sp, #104]
	cbz	x8, .LBB10_36
// %bb.35:
	add	x0, sp, #104
	bl	_ZNSt15__exception_ptr13exception_ptr10_M_releaseEv
.LBB10_36:
	mov	x0, x19
	bl	_ZNSt18condition_variableD1Ev
	mov	x0, x20
	bl	_Unwind_Resume
.LBB10_37:
.Ltmp145:
	bl	__clang_call_terminate
.Lfunc_end10:
	.size	_ZN9pocketfft6detail9threading10thread_mapIZNS0_10general_ndINS0_11pocketfft_cIeEENS0_5cmplxIeEEeNS0_7ExecC2CEEEvRKNS0_6cndarrIT0_EERNS0_5ndarrISA_EERKSt6vectorImSaImEET1_mRKT2_bEUlvE_EEvmT_, .Lfunc_end10-_ZN9pocketfft6detail9threading10thread_mapIZNS0_10general_ndINS0_11pocketfft_cIeEENS0_5cmplxIeEEeNS0_7ExecC2CEEEvRKNS0_6cndarrIT0_EERNS0_5ndarrISA_EERKSt6vectorImSaImEET1_mRKT2_bEUlvE_EEvmT_
	.cfi_endproc
	.section	.gcc_except_table._ZN9pocketfft6detail9threading10thread_mapIZNS0_10general_ndINS0_11pocketfft_cIeEENS0_5cmplxIeEEeNS0_7ExecC2CEEEvRKNS0_6cndarrIT0_EERNS0_5ndarrISA_EERKSt6vectorImSaImEET1_mRKT2_bEUlvE_EEvmT_,"aG",@progbits,_ZN9pocketfft6detail9threading10thread_mapIZNS0_10general_ndINS0_11pocketfft_cIeEENS0_5cmplxIeEEeNS0_7ExecC2CEEEvRKNS0_6cndarrIT0_EERNS0_5ndarrISA_EERKSt6vectorImSaImEET1_mRKT2_bEUlvE_EEvmT_,comdat
	.p2align	2
GCC_except_table10:
.Lexception8:
	.byte	255                             // @LPStart Encoding = omit
	.byte	156                             // @TType Encoding = indirect pcrel sdata8
	.uleb128 .Lttbase0-.Lttbaseref0
.Lttbaseref0:
	.byte	1                               // Call site Encoding = uleb128
	.uleb128 .Lcst_end8-.Lcst_begin8
.Lcst_begin8:
	.uleb128 .Lfunc_begin8-.Lfunc_begin8    // >> Call Site 1 <<
	.uleb128 .Ltmp137-.Lfunc_begin8         //   Call between .Lfunc_begin8 and .Ltmp137
	.byte	0                               //     has no landing pad
	.byte	0                               //   On action: cleanup
	.uleb128 .Ltmp137-.Lfunc_begin8         // >> Call Site 2 <<
	.uleb128 .Ltmp138-.Ltmp137              //   Call between .Ltmp137 and .Ltmp138
	.uleb128 .Ltmp139-.Lfunc_begin8         //     jumps to .Ltmp139
	.byte	0                               //   On action: cleanup
	.uleb128 .Ltmp140-.Lfunc_begin8         // >> Call Site 3 <<
	.uleb128 .Ltmp141-.Ltmp140              //   Call between .Ltmp140 and .Ltmp141
	.uleb128 .Ltmp142-.Lfunc_begin8         //     jumps to .Ltmp142
	.byte	0                               //   On action: cleanup
	.uleb128 .Ltmp146-.Lfunc_begin8         // >> Call Site 4 <<
	.uleb128 .Ltmp147-.Ltmp146              //   Call between .Ltmp146 and .Ltmp147
	.uleb128 .Ltmp148-.Lfunc_begin8         //     jumps to .Ltmp148
	.byte	1                               //   On action: 1
	.uleb128 .Ltmp134-.Lfunc_begin8         // >> Call Site 5 <<
	.uleb128 .Ltmp135-.Ltmp134              //   Call between .Ltmp134 and .Ltmp135
	.uleb128 .Ltmp136-.Lfunc_begin8         //     jumps to .Ltmp136
	.byte	0                               //   On action: cleanup
	.uleb128 .Ltmp149-.Lfunc_begin8         // >> Call Site 6 <<
	.uleb128 .Ltmp150-.Ltmp149              //   Call between .Ltmp149 and .Ltmp150
	.uleb128 .Ltmp151-.Lfunc_begin8         //     jumps to .Ltmp151
	.byte	0                               //   On action: cleanup
	.uleb128 .Ltmp152-.Lfunc_begin8         // >> Call Site 7 <<
	.uleb128 .Ltmp153-.Ltmp152              //   Call between .Ltmp152 and .Ltmp153
	.uleb128 .Ltmp154-.Lfunc_begin8         //     jumps to .Ltmp154
	.byte	0                               //   On action: cleanup
	.uleb128 .Ltmp153-.Lfunc_begin8         // >> Call Site 8 <<
	.uleb128 .Ltmp143-.Ltmp153              //   Call between .Ltmp153 and .Ltmp143
	.byte	0                               //     has no landing pad
	.byte	0                               //   On action: cleanup
	.uleb128 .Ltmp143-.Lfunc_begin8         // >> Call Site 9 <<
	.uleb128 .Ltmp144-.Ltmp143              //   Call between .Ltmp143 and .Ltmp144
	.uleb128 .Ltmp145-.Lfunc_begin8         //     jumps to .Ltmp145
	.byte	1                               //   On action: 1
	.uleb128 .Ltmp144-.Lfunc_begin8         // >> Call Site 10 <<
	.uleb128 .Lfunc_end10-.Ltmp144          //   Call between .Ltmp144 and .Lfunc_end10
	.byte	0                               //     has no landing pad
	.byte	0                               //   On action: cleanup
.Lcst_end8:
	.byte	1                               // >> Action Record 1 <<
                                        //   Catch TypeInfo 1
	.byte	0                               //   No further actions
	.p2align	2
                                        // >> Catch TypeInfos <<
	.xword	0                               // TypeInfo 1
.Lttbase0:
	.p2align	2
                                        // -- End function
	.section	.text._ZNSt23_Sp_counted_ptr_inplaceIN9pocketfft6detail11pocketfft_cIeEESaIS3_ELN9__gnu_cxx12_Lock_policyE2EED2Ev,"axG",@progbits,_ZNSt23_Sp_counted_ptr_inplaceIN9pocketfft6detail11pocketfft_cIeEESaIS3_ELN9__gnu_cxx12_Lock_policyE2EED2Ev,comdat
	.weak	_ZNSt23_Sp_counted_ptr_inplaceIN9pocketfft6detail11pocketfft_cIeEESaIS3_ELN9__gnu_cxx12_Lock_policyE2EED2Ev // -- Begin function _ZNSt23_Sp_counted_ptr_inplaceIN9pocketfft6detail11pocketfft_cIeEESaIS3_ELN9__gnu_cxx12_Lock_policyE2EED2Ev
	.p2align	2
	.type	_ZNSt23_Sp_counted_ptr_inplaceIN9pocketfft6detail11pocketfft_cIeEESaIS3_ELN9__gnu_cxx12_Lock_policyE2EED2Ev,@function
_ZNSt23_Sp_counted_ptr_inplaceIN9pocketfft6detail11pocketfft_cIeEESaIS3_ELN9__gnu_cxx12_Lock_policyE2EED2Ev: // @_ZNSt23_Sp_counted_ptr_inplaceIN9pocketfft6detail11pocketfft_cIeEESaIS3_ELN9__gnu_cxx12_Lock_policyE2EED2Ev
	.cfi_startproc
// %bb.0:
	ret
.Lfunc_end11:
	.size	_ZNSt23_Sp_counted_ptr_inplaceIN9pocketfft6detail11pocketfft_cIeEESaIS3_ELN9__gnu_cxx12_Lock_policyE2EED2Ev, .Lfunc_end11-_ZNSt23_Sp_counted_ptr_inplaceIN9pocketfft6detail11pocketfft_cIeEESaIS3_ELN9__gnu_cxx12_Lock_policyE2EED2Ev
	.cfi_endproc
                                        // -- End function
	.section	.text._ZNSt23_Sp_counted_ptr_inplaceIN9pocketfft6detail11pocketfft_cIeEESaIS3_ELN9__gnu_cxx12_Lock_policyE2EED0Ev,"axG",@progbits,_ZNSt23_Sp_counted_ptr_inplaceIN9pocketfft6detail11pocketfft_cIeEESaIS3_ELN9__gnu_cxx12_Lock_policyE2EED0Ev,comdat
	.weak	_ZNSt23_Sp_counted_ptr_inplaceIN9pocketfft6detail11pocketfft_cIeEESaIS3_ELN9__gnu_cxx12_Lock_policyE2EED0Ev // -- Begin function _ZNSt23_Sp_counted_ptr_inplaceIN9pocketfft6detail11pocketfft_cIeEESaIS3_ELN9__gnu_cxx12_Lock_policyE2EED0Ev
	.p2align	2
	.type	_ZNSt23_Sp_counted_ptr_inplaceIN9pocketfft6detail11pocketfft_cIeEESaIS3_ELN9__gnu_cxx12_Lock_policyE2EED0Ev,@function
_ZNSt23_Sp_counted_ptr_inplaceIN9pocketfft6detail11pocketfft_cIeEESaIS3_ELN9__gnu_cxx12_Lock_policyE2EED0Ev: // @_ZNSt23_Sp_counted_ptr_inplaceIN9pocketfft6detail11pocketfft_cIeEESaIS3_ELN9__gnu_cxx12_Lock_policyE2EED0Ev
	.cfi_startproc
// %bb.0:
	b	_ZdlPv
.Lfunc_end12:
	.size	_ZNSt23_Sp_counted_ptr_inplaceIN9pocketfft6detail11pocketfft_cIeEESaIS3_ELN9__gnu_cxx12_Lock_policyE2EED0Ev, .Lfunc_end12-_ZNSt23_Sp_counted_ptr_inplaceIN9pocketfft6detail11pocketfft_cIeEESaIS3_ELN9__gnu_cxx12_Lock_policyE2EED0Ev
	.cfi_endproc
                                        // -- End function
	.section	.text._ZNSt23_Sp_counted_ptr_inplaceIN9pocketfft6detail11pocketfft_cIeEESaIS3_ELN9__gnu_cxx12_Lock_policyE2EE10_M_disposeEv,"axG",@progbits,_ZNSt23_Sp_counted_ptr_inplaceIN9pocketfft6detail11pocketfft_cIeEESaIS3_ELN9__gnu_cxx12_Lock_policyE2EE10_M_disposeEv,comdat
	.weak	_ZNSt23_Sp_counted_ptr_inplaceIN9pocketfft6detail11pocketfft_cIeEESaIS3_ELN9__gnu_cxx12_Lock_policyE2EE10_M_disposeEv // -- Begin function _ZNSt23_Sp_counted_ptr_inplaceIN9pocketfft6detail11pocketfft_cIeEESaIS3_ELN9__gnu_cxx12_Lock_policyE2EE10_M_disposeEv
	.p2align	2
	.type	_ZNSt23_Sp_counted_ptr_inplaceIN9pocketfft6detail11pocketfft_cIeEESaIS3_ELN9__gnu_cxx12_Lock_policyE2EE10_M_disposeEv,@function
_ZNSt23_Sp_counted_ptr_inplaceIN9pocketfft6detail11pocketfft_cIeEESaIS3_ELN9__gnu_cxx12_Lock_policyE2EE10_M_disposeEv: // @_ZNSt23_Sp_counted_ptr_inplaceIN9pocketfft6detail11pocketfft_cIeEESaIS3_ELN9__gnu_cxx12_Lock_policyE2EE10_M_disposeEv
	.cfi_startproc
// %bb.0:
	add	x0, x0, #16
	b	_ZN9pocketfft6detail11pocketfft_cIeED2Ev
.Lfunc_end13:
	.size	_ZNSt23_Sp_counted_ptr_inplaceIN9pocketfft6detail11pocketfft_cIeEESaIS3_ELN9__gnu_cxx12_Lock_policyE2EE10_M_disposeEv, .Lfunc_end13-_ZNSt23_Sp_counted_ptr_inplaceIN9pocketfft6detail11pocketfft_cIeEESaIS3_ELN9__gnu_cxx12_Lock_policyE2EE10_M_disposeEv
	.cfi_endproc
                                        // -- End function
	.section	.text._ZNSt23_Sp_counted_ptr_inplaceIN9pocketfft6detail11pocketfft_cIeEESaIS3_ELN9__gnu_cxx12_Lock_policyE2EE10_M_destroyEv,"axG",@progbits,_ZNSt23_Sp_counted_ptr_inplaceIN9pocketfft6detail11pocketfft_cIeEESaIS3_ELN9__gnu_cxx12_Lock_policyE2EE10_M_destroyEv,comdat
	.weak	_ZNSt23_Sp_counted_ptr_inplaceIN9pocketfft6detail11pocketfft_cIeEESaIS3_ELN9__gnu_cxx12_Lock_policyE2EE10_M_destroyEv // -- Begin function _ZNSt23_Sp_counted_ptr_inplaceIN9pocketfft6detail11pocketfft_cIeEESaIS3_ELN9__gnu_cxx12_Lock_policyE2EE10_M_destroyEv
	.p2align	2
	.type	_ZNSt23_Sp_counted_ptr_inplaceIN9pocketfft6detail11pocketfft_cIeEESaIS3_ELN9__gnu_cxx12_Lock_policyE2EE10_M_destroyEv,@function
_ZNSt23_Sp_counted_ptr_inplaceIN9pocketfft6detail11pocketfft_cIeEESaIS3_ELN9__gnu_cxx12_Lock_policyE2EE10_M_destroyEv: // @_ZNSt23_Sp_counted_ptr_inplaceIN9pocketfft6detail11pocketfft_cIeEESaIS3_ELN9__gnu_cxx12_Lock_policyE2EE10_M_destroyEv
	.cfi_startproc
// %bb.0:
	b	_ZdlPv
.Lfunc_end14:
	.size	_ZNSt23_Sp_counted_ptr_inplaceIN9pocketfft6detail11pocketfft_cIeEESaIS3_ELN9__gnu_cxx12_Lock_policyE2EE10_M_destroyEv, .Lfunc_end14-_ZNSt23_Sp_counted_ptr_inplaceIN9pocketfft6detail11pocketfft_cIeEESaIS3_ELN9__gnu_cxx12_Lock_policyE2EE10_M_destroyEv
	.cfi_endproc
                                        // -- End function
	.section	.text._ZNSt23_Sp_counted_ptr_inplaceIN9pocketfft6detail11pocketfft_cIeEESaIS3_ELN9__gnu_cxx12_Lock_policyE2EE14_M_get_deleterERKSt9type_info,"axG",@progbits,_ZNSt23_Sp_counted_ptr_inplaceIN9pocketfft6detail11pocketfft_cIeEESaIS3_ELN9__gnu_cxx12_Lock_policyE2EE14_M_get_deleterERKSt9type_info,comdat
	.weak	_ZNSt23_Sp_counted_ptr_inplaceIN9pocketfft6detail11pocketfft_cIeEESaIS3_ELN9__gnu_cxx12_Lock_policyE2EE14_M_get_deleterERKSt9type_info // -- Begin function _ZNSt23_Sp_counted_ptr_inplaceIN9pocketfft6detail11pocketfft_cIeEESaIS3_ELN9__gnu_cxx12_Lock_policyE2EE14_M_get_deleterERKSt9type_info
	.p2align	2
	.type	_ZNSt23_Sp_counted_ptr_inplaceIN9pocketfft6detail11pocketfft_cIeEESaIS3_ELN9__gnu_cxx12_Lock_policyE2EE14_M_get_deleterERKSt9type_info,@function
_ZNSt23_Sp_counted_ptr_inplaceIN9pocketfft6detail11pocketfft_cIeEESaIS3_ELN9__gnu_cxx12_Lock_policyE2EE14_M_get_deleterERKSt9type_info: // @_ZNSt23_Sp_counted_ptr_inplaceIN9pocketfft6detail11pocketfft_cIeEESaIS3_ELN9__gnu_cxx12_Lock_policyE2EE14_M_get_deleterERKSt9type_info
	.cfi_startproc
// %bb.0:
	stp	x29, x30, [sp, #-32]!           // 16-byte Folded Spill
	str	x19, [sp, #16]                  // 8-byte Folded Spill
	mov	x29, sp
	.cfi_def_cfa w29, 32
	.cfi_offset w19, -16
	.cfi_offset w30, -24
	.cfi_offset w29, -32
	mov	x19, x0
	adrp	x8, _ZZNSt19_Sp_make_shared_tag5_S_tiEvE5__tag
	add	x8, x8, :lo12:_ZZNSt19_Sp_make_shared_tag5_S_tiEvE5__tag
	cmp	x1, x8
	b.eq	.LBB15_6
// %bb.1:
	ldr	x0, [x1, #8]
	adrp	x8, _ZTSSt19_Sp_make_shared_tag
	add	x8, x8, :lo12:_ZTSSt19_Sp_make_shared_tag
	cmp	x0, x8
	b.eq	.LBB15_6
// %bb.2:
	ldrb	w8, [x0]
	cmp	w8, #42
	b.ne	.LBB15_4
// %bb.3:
	mov	x0, xzr
	ldr	x19, [sp, #16]                  // 8-byte Folded Reload
	ldp	x29, x30, [sp], #32             // 16-byte Folded Reload
	ret
.LBB15_4:
	adrp	x1, _ZTSSt19_Sp_make_shared_tag
	add	x1, x1, :lo12:_ZTSSt19_Sp_make_shared_tag
	bl	strcmp
	cbz	w0, .LBB15_6
// %bb.5:
	mov	x0, xzr
	ldr	x19, [sp, #16]                  // 8-byte Folded Reload
	ldp	x29, x30, [sp], #32             // 16-byte Folded Reload
	ret
.LBB15_6:
	add	x0, x19, #16
	ldr	x19, [sp, #16]                  // 8-byte Folded Reload
	ldp	x29, x30, [sp], #32             // 16-byte Folded Reload
	ret
.Lfunc_end15:
	.size	_ZNSt23_Sp_counted_ptr_inplaceIN9pocketfft6detail11pocketfft_cIeEESaIS3_ELN9__gnu_cxx12_Lock_policyE2EE14_M_get_deleterERKSt9type_info, .Lfunc_end15-_ZNSt23_Sp_counted_ptr_inplaceIN9pocketfft6detail11pocketfft_cIeEESaIS3_ELN9__gnu_cxx12_Lock_policyE2EE14_M_get_deleterERKSt9type_info
	.cfi_endproc
                                        // -- End function
	.section	.text._ZN9pocketfft6detail11pocketfft_cIeEC2Em,"axG",@progbits,_ZN9pocketfft6detail11pocketfft_cIeEC2Em,comdat
	.weak	_ZN9pocketfft6detail11pocketfft_cIeEC2Em // -- Begin function _ZN9pocketfft6detail11pocketfft_cIeEC2Em
	.p2align	2
	.type	_ZN9pocketfft6detail11pocketfft_cIeEC2Em,@function
_ZN9pocketfft6detail11pocketfft_cIeEC2Em: // @_ZN9pocketfft6detail11pocketfft_cIeEC2Em
.Lfunc_begin9:
	.cfi_startproc
	.cfi_personality 156, DW.ref.__gxx_personality_v0
	.cfi_lsda 28, .Lexception9
// %bb.0:
	str	d8, [sp, #-64]!                 // 8-byte Folded Spill
	stp	x29, x30, [sp, #16]             // 16-byte Folded Spill
	add	x29, sp, #16
	stp	x22, x21, [sp, #32]             // 16-byte Folded Spill
	stp	x20, x19, [sp, #48]             // 16-byte Folded Spill
	.cfi_def_cfa w29, 48
	.cfi_offset w19, -8
	.cfi_offset w20, -16
	.cfi_offset w21, -24
	.cfi_offset w22, -32
	.cfi_offset w30, -40
	.cfi_offset w29, -48
	.cfi_offset b8, -64
	mov	x19, x0
	mov	x20, x0
	str	xzr, [x0]
	str	x1, [x0, #16]
	str	xzr, [x20, #8]!
	cbz	x1, .LBB16_24
// %bb.1:
	mov	x21, x1
	cmp	x1, #50
	b.hs	.LBB16_5
// %bb.2:
	mov	x0, xzr
	mul	x8, x0, x0
	cmp	x8, x21
	b.hi	.LBB16_6
.LBB16_3:
.Ltmp155:
	mov	w0, #48
	bl	_Znwm
.Ltmp156:
// %bb.4:
	mov	x22, x0
.Ltmp158:
	mov	x1, x21
	bl	_ZN9pocketfft6detail5cfftpIeEC2Em
.Ltmp159:
	b	.LBB16_17
.LBB16_5:
	mov	x0, x21
	bl	_ZN9pocketfft6detail4util20largest_prime_factorEm
	mul	x8, x0, x0
	cmp	x8, x21
	b.ls	.LBB16_3
.LBB16_6:
	mov	x0, x21
	bl	_ZN9pocketfft6detail4util10cost_guessEm
	lsl	x8, x21, #1
	fmov	d8, d0
	sub	x0, x8, #1
	bl	_ZN9pocketfft6detail4util15good_size_cmplxEm
	bl	_ZN9pocketfft6detail4util10cost_guessEm
	fadd	d0, d0, d0
	fmov	d1, #1.50000000
	fmul	d0, d0, d1
	fcmp	d0, d8
	b.pl	.LBB16_15
// %bb.7:
.Ltmp167:
	mov	w0, #96
	bl	_Znwm
.Ltmp168:
// %bb.8:
	mov	x22, x0
.Ltmp170:
	mov	x1, x21
	bl	_ZN9pocketfft6detail7fftblueIeEC2Em
.Ltmp171:
// %bb.9:
	ldr	x21, [x20]
	str	x22, [x20]
	cbz	x21, .LBB16_23
// %bb.10:
	ldr	x8, [x21, #64]
	cbz	x8, .LBB16_12
// %bb.11:
	ldur	x0, [x8, #-8]
	bl	free
.LBB16_12:
	ldr	x0, [x21, #40]
	cbz	x0, .LBB16_14
// %bb.13:
	bl	_ZdlPv
.LBB16_14:
	ldr	x8, [x21, #24]
	cbnz	x8, .LBB16_21
	b	.LBB16_22
.LBB16_15:
.Ltmp161:
	mov	w0, #48
	bl	_Znwm
.Ltmp162:
// %bb.16:
	mov	x22, x0
.Ltmp164:
	mov	x1, x21
	bl	_ZN9pocketfft6detail5cfftpIeEC2Em
.Ltmp165:
.LBB16_17:
	ldr	x21, [x19]
	str	x22, [x19]
	cbz	x21, .LBB16_23
// %bb.18:
	ldr	x0, [x21, #24]
	cbz	x0, .LBB16_20
// %bb.19:
	bl	_ZdlPv
.LBB16_20:
	ldr	x8, [x21, #8]
	cbz	x8, .LBB16_22
.LBB16_21:
	ldur	x0, [x8, #-8]
	bl	free
.LBB16_22:
	mov	x0, x21
	ldp	x20, x19, [sp, #48]             // 16-byte Folded Reload
	ldp	x22, x21, [sp, #32]             // 16-byte Folded Reload
	ldp	x29, x30, [sp, #16]             // 16-byte Folded Reload
	ldr	d8, [sp], #64                   // 8-byte Folded Reload
	b	_ZdlPv
.LBB16_23:
	ldp	x20, x19, [sp, #48]             // 16-byte Folded Reload
	ldp	x22, x21, [sp, #32]             // 16-byte Folded Reload
	ldp	x29, x30, [sp, #16]             // 16-byte Folded Reload
	ldr	d8, [sp], #64                   // 8-byte Folded Reload
	ret
.LBB16_24:
	mov	w0, #16
	bl	__cxa_allocate_exception
	mov	x22, x0
.Ltmp173:
	adrp	x1, .L.str.8
	add	x1, x1, :lo12:.L.str.8
	bl	_ZNSt13runtime_errorC1EPKc
.Ltmp174:
// %bb.25:
.Ltmp176:
	adrp	x1, :got:_ZTISt13runtime_error
	adrp	x2, :got:_ZNSt13runtime_errorD1Ev
	mov	x0, x22
	ldr	x1, [x1, :got_lo12:_ZTISt13runtime_error]
	ldr	x2, [x2, :got_lo12:_ZNSt13runtime_errorD1Ev]
	bl	__cxa_throw
.Ltmp177:
// %bb.26:
.LBB16_27:
.Ltmp166:
	b	.LBB16_32
.LBB16_28:
.Ltmp172:
	b	.LBB16_32
.LBB16_29:
.Ltmp163:
	mov	x21, x0
	b	.LBB16_36
.LBB16_30:
.Ltmp169:
	mov	x21, x0
	b	.LBB16_36
.LBB16_31:
.Ltmp160:
.LBB16_32:
	mov	x21, x0
	mov	x0, x22
	bl	_ZdlPv
	b	.LBB16_36
.LBB16_33:
.Ltmp157:
	mov	x21, x0
	b	.LBB16_36
.LBB16_34:
.Ltmp178:
	mov	x21, x0
	b	.LBB16_36
.LBB16_35:
.Ltmp175:
	mov	x21, x0
	mov	x0, x22
	bl	__cxa_free_exception
.LBB16_36:
	mov	x0, x20
	bl	_ZNSt10unique_ptrIN9pocketfft6detail7fftblueIeEESt14default_deleteIS3_EED2Ev
	mov	x0, x19
	bl	_ZNSt10unique_ptrIN9pocketfft6detail5cfftpIeEESt14default_deleteIS3_EED2Ev
	mov	x0, x21
	bl	_Unwind_Resume
.Lfunc_end16:
	.size	_ZN9pocketfft6detail11pocketfft_cIeEC2Em, .Lfunc_end16-_ZN9pocketfft6detail11pocketfft_cIeEC2Em
	.cfi_endproc
	.section	.gcc_except_table._ZN9pocketfft6detail11pocketfft_cIeEC2Em,"aG",@progbits,_ZN9pocketfft6detail11pocketfft_cIeEC2Em,comdat
	.p2align	2
GCC_except_table16:
.Lexception9:
	.byte	255                             // @LPStart Encoding = omit
	.byte	255                             // @TType Encoding = omit
	.byte	1                               // Call site Encoding = uleb128
	.uleb128 .Lcst_end9-.Lcst_begin9
.Lcst_begin9:
	.uleb128 .Ltmp155-.Lfunc_begin9         // >> Call Site 1 <<
	.uleb128 .Ltmp156-.Ltmp155              //   Call between .Ltmp155 and .Ltmp156
	.uleb128 .Ltmp157-.Lfunc_begin9         //     jumps to .Ltmp157
	.byte	0                               //   On action: cleanup
	.uleb128 .Ltmp158-.Lfunc_begin9         // >> Call Site 2 <<
	.uleb128 .Ltmp159-.Ltmp158              //   Call between .Ltmp158 and .Ltmp159
	.uleb128 .Ltmp160-.Lfunc_begin9         //     jumps to .Ltmp160
	.byte	0                               //   On action: cleanup
	.uleb128 .Ltmp167-.Lfunc_begin9         // >> Call Site 3 <<
	.uleb128 .Ltmp168-.Ltmp167              //   Call between .Ltmp167 and .Ltmp168
	.uleb128 .Ltmp169-.Lfunc_begin9         //     jumps to .Ltmp169
	.byte	0                               //   On action: cleanup
	.uleb128 .Ltmp170-.Lfunc_begin9         // >> Call Site 4 <<
	.uleb128 .Ltmp171-.Ltmp170              //   Call between .Ltmp170 and .Ltmp171
	.uleb128 .Ltmp172-.Lfunc_begin9         //     jumps to .Ltmp172
	.byte	0                               //   On action: cleanup
	.uleb128 .Ltmp161-.Lfunc_begin9         // >> Call Site 5 <<
	.uleb128 .Ltmp162-.Ltmp161              //   Call between .Ltmp161 and .Ltmp162
	.uleb128 .Ltmp163-.Lfunc_begin9         //     jumps to .Ltmp163
	.byte	0                               //   On action: cleanup
	.uleb128 .Ltmp164-.Lfunc_begin9         // >> Call Site 6 <<
	.uleb128 .Ltmp165-.Ltmp164              //   Call between .Ltmp164 and .Ltmp165
	.uleb128 .Ltmp166-.Lfunc_begin9         //     jumps to .Ltmp166
	.byte	0                               //   On action: cleanup
	.uleb128 .Ltmp165-.Lfunc_begin9         // >> Call Site 7 <<
	.uleb128 .Ltmp173-.Ltmp165              //   Call between .Ltmp165 and .Ltmp173
	.byte	0                               //     has no landing pad
	.byte	0                               //   On action: cleanup
	.uleb128 .Ltmp173-.Lfunc_begin9         // >> Call Site 8 <<
	.uleb128 .Ltmp174-.Ltmp173              //   Call between .Ltmp173 and .Ltmp174
	.uleb128 .Ltmp175-.Lfunc_begin9         //     jumps to .Ltmp175
	.byte	0                               //   On action: cleanup
	.uleb128 .Ltmp176-.Lfunc_begin9         // >> Call Site 9 <<
	.uleb128 .Ltmp177-.Ltmp176              //   Call between .Ltmp176 and .Ltmp177
	.uleb128 .Ltmp178-.Lfunc_begin9         //     jumps to .Ltmp178
	.byte	0                               //   On action: cleanup
	.uleb128 .Ltmp177-.Lfunc_begin9         // >> Call Site 10 <<
	.uleb128 .Lfunc_end16-.Ltmp177          //   Call between .Ltmp177 and .Lfunc_end16
	.byte	0                               //     has no landing pad
	.byte	0                               //   On action: cleanup
.Lcst_end9:
	.p2align	2
                                        // -- End function
	.section	.text._ZN9pocketfft6detail4util20largest_prime_factorEm,"axG",@progbits,_ZN9pocketfft6detail4util20largest_prime_factorEm,comdat
	.weak	_ZN9pocketfft6detail4util20largest_prime_factorEm // -- Begin function _ZN9pocketfft6detail4util20largest_prime_factorEm
	.p2align	2
	.type	_ZN9pocketfft6detail4util20largest_prime_factorEm,@function
_ZN9pocketfft6detail4util20largest_prime_factorEm: // @_ZN9pocketfft6detail4util20largest_prime_factorEm
	.cfi_startproc
// %bb.0:
	tbnz	w0, #0, .LBB17_4
// %bb.1:
	mov	w8, #2
.LBB17_2:                               // =>This Inner Loop Header: Depth=1
	mov	x9, x0
	lsr	x0, x0, #1
	tbz	w9, #1, .LBB17_2
// %bb.3:
	cmp	x0, #9
	b.lo	.LBB17_5
	b	.LBB17_6
.LBB17_4:
	mov	w8, #1
	cmp	x0, #9
	b.hs	.LBB17_6
.LBB17_5:
	cmp	x0, #1
	csel	x0, x0, x8, hi
	ret
.LBB17_6:
	mov	w9, #3
	b	.LBB17_8
.LBB17_7:                               //   in Loop: Header=BB17_8 Depth=1
	add	x9, x9, #2
	mul	x10, x9, x9
	cmp	x10, x0
	b.hi	.LBB17_5
.LBB17_8:                               // =>This Loop Header: Depth=1
                                        //     Child Loop BB17_9 Depth 2
	udiv	x10, x0, x9
	msub	x10, x10, x9, x0
	cbnz	x10, .LBB17_7
.LBB17_9:                               //   Parent Loop BB17_8 Depth=1
                                        // =>  This Inner Loop Header: Depth=2
	udiv	x0, x0, x9
	udiv	x8, x0, x9
	msub	x8, x8, x9, x0
	cbz	x8, .LBB17_9
// %bb.10:                              //   in Loop: Header=BB17_8 Depth=1
	mov	x8, x9
	b	.LBB17_7
.Lfunc_end17:
	.size	_ZN9pocketfft6detail4util20largest_prime_factorEm, .Lfunc_end17-_ZN9pocketfft6detail4util20largest_prime_factorEm
	.cfi_endproc
                                        // -- End function
	.section	.text._ZN9pocketfft6detail5cfftpIeEC2Em,"axG",@progbits,_ZN9pocketfft6detail5cfftpIeEC2Em,comdat
	.weak	_ZN9pocketfft6detail5cfftpIeEC2Em // -- Begin function _ZN9pocketfft6detail5cfftpIeEC2Em
	.p2align	2
	.type	_ZN9pocketfft6detail5cfftpIeEC2Em,@function
_ZN9pocketfft6detail5cfftpIeEC2Em:      // @_ZN9pocketfft6detail5cfftpIeEC2Em
.Lfunc_begin10:
	.cfi_startproc
	.cfi_personality 156, DW.ref.__gxx_personality_v0
	.cfi_lsda 28, .Lexception10
// %bb.0:
	stp	x29, x30, [sp, #-48]!           // 16-byte Folded Spill
	stp	x22, x21, [sp, #16]             // 16-byte Folded Spill
	mov	x29, sp
	stp	x20, x19, [sp, #32]             // 16-byte Folded Spill
	.cfi_def_cfa w29, 48
	.cfi_offset w19, -8
	.cfi_offset w20, -16
	.cfi_offset w21, -24
	.cfi_offset w22, -32
	.cfi_offset w30, -40
	.cfi_offset w29, -48
	movi	v0.2d, #0000000000000000
	mov	x22, x0
	cmp	x1, #1
	str	x1, [x0]
	str	xzr, [x0, #40]
	stur	q0, [x0, #24]
	str	q0, [x22, #8]!
	b.eq	.LBB18_15
// %bb.1:
	mov	x19, x0
	cbz	x1, .LBB18_16
// %bb.2:
.Ltmp184:
	mov	x0, x19
	bl	_ZN9pocketfft6detail5cfftpIeE9factorizeEv
.Ltmp185:
// %bb.3:
	ldp	x8, x9, [x19, #24]
	mov	x20, xzr
	subs	x9, x9, x8
	b.eq	.LBB18_6
// %bb.4:
	mov	x10, #-6148914691236517206
	mov	w11, #1
	movk	x10, #43691
	movk	x10, #10922, lsl #48
	smulh	x9, x9, x10
	asr	x10, x9, #2
	add	x10, x10, x9, lsr #63
	ldr	x9, [x19]
	cmp	x10, #1
	csinc	x10, x10, xzr, hi
.LBB18_5:                               // =>This Inner Loop Header: Depth=1
	ldr	x12, [x8], #24
	mul	x11, x12, x11
	cmp	x12, #11
	sub	x14, x12, #1
	csel	x12, x12, xzr, hi
	add	x12, x12, x20
	subs	x10, x10, #1
	udiv	x13, x9, x11
	sub	x13, x13, #1
	madd	x20, x13, x14, x12
	b.ne	.LBB18_5
.LBB18_6:
	ldr	x8, [x19, #16]
	cmp	x8, x20
	b.eq	.LBB18_14
// %bb.7:
	ldr	x8, [x22]
	cbz	x8, .LBB18_9
// %bb.8:
	ldur	x0, [x8, #-8]
	bl	free
.LBB18_9:
	cbz	x20, .LBB18_12
// %bb.10:
	lsl	x8, x20, #5
	add	x0, x8, #64
	bl	malloc
	cbz	x0, .LBB18_19
// %bb.11:
	add	x8, x0, #64
	and	x8, x8, #0xffffffffffffffc0
	stur	x0, [x8, #-8]
	b	.LBB18_13
.LBB18_12:
	mov	x8, xzr
.LBB18_13:
	stp	x8, x20, [x19, #8]
.LBB18_14:
.Ltmp188:
	mov	x0, x19
	bl	_ZN9pocketfft6detail5cfftpIeE12comp_twiddleEv
.Ltmp189:
.LBB18_15:
	ldp	x20, x19, [sp, #32]             // 16-byte Folded Reload
	ldp	x22, x21, [sp, #16]             // 16-byte Folded Reload
	ldp	x29, x30, [sp], #48             // 16-byte Folded Reload
	ret
.LBB18_16:
	mov	w0, #16
	bl	__cxa_allocate_exception
	mov	x21, x0
.Ltmp179:
	adrp	x1, .L.str.8
	add	x1, x1, :lo12:.L.str.8
	bl	_ZNSt13runtime_errorC1EPKc
.Ltmp180:
// %bb.17:
.Ltmp182:
	adrp	x1, :got:_ZTISt13runtime_error
	adrp	x2, :got:_ZNSt13runtime_errorD1Ev
	mov	x0, x21
	ldr	x1, [x1, :got_lo12:_ZTISt13runtime_error]
	ldr	x2, [x2, :got_lo12:_ZNSt13runtime_errorD1Ev]
	bl	__cxa_throw
.Ltmp183:
// %bb.18:
.LBB18_19:
	mov	w0, #8
	bl	__cxa_allocate_exception
	adrp	x8, :got:_ZTVSt9bad_alloc
	ldr	x8, [x8, :got_lo12:_ZTVSt9bad_alloc]
	add	x8, x8, #16
	str	x8, [x0]
.Ltmp186:
	adrp	x1, :got:_ZTISt9bad_alloc
	adrp	x2, :got:_ZNSt9bad_allocD1Ev
	ldr	x1, [x1, :got_lo12:_ZTISt9bad_alloc]
	ldr	x2, [x2, :got_lo12:_ZNSt9bad_allocD1Ev]
	bl	__cxa_throw
.Ltmp187:
// %bb.20:
.LBB18_21:
.Ltmp181:
	mov	x20, x0
	mov	x0, x21
	bl	__cxa_free_exception
	b	.LBB18_23
.LBB18_22:
.Ltmp190:
	mov	x20, x0
.LBB18_23:
	ldr	x0, [x19, #24]
	cbnz	x0, .LBB18_26
// %bb.24:
	ldr	x8, [x22]
	cbnz	x8, .LBB18_27
.LBB18_25:
	mov	x0, x20
	bl	_Unwind_Resume
.LBB18_26:
	bl	_ZdlPv
	ldr	x8, [x22]
	cbz	x8, .LBB18_25
.LBB18_27:
	ldur	x0, [x8, #-8]
	bl	free
	mov	x0, x20
	bl	_Unwind_Resume
.Lfunc_end18:
	.size	_ZN9pocketfft6detail5cfftpIeEC2Em, .Lfunc_end18-_ZN9pocketfft6detail5cfftpIeEC2Em
	.cfi_endproc
	.section	.gcc_except_table._ZN9pocketfft6detail5cfftpIeEC2Em,"aG",@progbits,_ZN9pocketfft6detail5cfftpIeEC2Em,comdat
	.p2align	2
GCC_except_table18:
.Lexception10:
	.byte	255                             // @LPStart Encoding = omit
	.byte	255                             // @TType Encoding = omit
	.byte	1                               // Call site Encoding = uleb128
	.uleb128 .Lcst_end10-.Lcst_begin10
.Lcst_begin10:
	.uleb128 .Ltmp184-.Lfunc_begin10        // >> Call Site 1 <<
	.uleb128 .Ltmp189-.Ltmp184              //   Call between .Ltmp184 and .Ltmp189
	.uleb128 .Ltmp190-.Lfunc_begin10        //     jumps to .Ltmp190
	.byte	0                               //   On action: cleanup
	.uleb128 .Ltmp189-.Lfunc_begin10        // >> Call Site 2 <<
	.uleb128 .Ltmp179-.Ltmp189              //   Call between .Ltmp189 and .Ltmp179
	.byte	0                               //     has no landing pad
	.byte	0                               //   On action: cleanup
	.uleb128 .Ltmp179-.Lfunc_begin10        // >> Call Site 3 <<
	.uleb128 .Ltmp180-.Ltmp179              //   Call between .Ltmp179 and .Ltmp180
	.uleb128 .Ltmp181-.Lfunc_begin10        //     jumps to .Ltmp181
	.byte	0                               //   On action: cleanup
	.uleb128 .Ltmp182-.Lfunc_begin10        // >> Call Site 4 <<
	.uleb128 .Ltmp183-.Ltmp182              //   Call between .Ltmp182 and .Ltmp183
	.uleb128 .Ltmp190-.Lfunc_begin10        //     jumps to .Ltmp190
	.byte	0                               //   On action: cleanup
	.uleb128 .Ltmp183-.Lfunc_begin10        // >> Call Site 5 <<
	.uleb128 .Ltmp186-.Ltmp183              //   Call between .Ltmp183 and .Ltmp186
	.byte	0                               //     has no landing pad
	.byte	0                               //   On action: cleanup
	.uleb128 .Ltmp186-.Lfunc_begin10        // >> Call Site 6 <<
	.uleb128 .Ltmp187-.Ltmp186              //   Call between .Ltmp186 and .Ltmp187
	.uleb128 .Ltmp190-.Lfunc_begin10        //     jumps to .Ltmp190
	.byte	0                               //   On action: cleanup
	.uleb128 .Ltmp187-.Lfunc_begin10        // >> Call Site 7 <<
	.uleb128 .Lfunc_end18-.Ltmp187          //   Call between .Ltmp187 and .Lfunc_end18
	.byte	0                               //     has no landing pad
	.byte	0                               //   On action: cleanup
.Lcst_end10:
	.p2align	2
                                        // -- End function
	.section	.text._ZNSt10unique_ptrIN9pocketfft6detail5cfftpIeEESt14default_deleteIS3_EED2Ev,"axG",@progbits,_ZNSt10unique_ptrIN9pocketfft6detail5cfftpIeEESt14default_deleteIS3_EED2Ev,comdat
	.weak	_ZNSt10unique_ptrIN9pocketfft6detail5cfftpIeEESt14default_deleteIS3_EED2Ev // -- Begin function _ZNSt10unique_ptrIN9pocketfft6detail5cfftpIeEESt14default_deleteIS3_EED2Ev
	.p2align	2
	.type	_ZNSt10unique_ptrIN9pocketfft6detail5cfftpIeEESt14default_deleteIS3_EED2Ev,@function
_ZNSt10unique_ptrIN9pocketfft6detail5cfftpIeEESt14default_deleteIS3_EED2Ev: // @_ZNSt10unique_ptrIN9pocketfft6detail5cfftpIeEESt14default_deleteIS3_EED2Ev
	.cfi_startproc
// %bb.0:
	stp	x29, x30, [sp, #-32]!           // 16-byte Folded Spill
	stp	x20, x19, [sp, #16]             // 16-byte Folded Spill
	mov	x29, sp
	.cfi_def_cfa w29, 32
	.cfi_offset w19, -8
	.cfi_offset w20, -16
	.cfi_offset w30, -24
	.cfi_offset w29, -32
	mov	x19, x0
	ldr	x20, [x0]
	cbz	x20, .LBB19_6
// %bb.1:
	ldr	x0, [x20, #24]
	cbz	x0, .LBB19_3
// %bb.2:
	bl	_ZdlPv
.LBB19_3:
	ldr	x8, [x20, #8]
	cbz	x8, .LBB19_5
// %bb.4:
	ldur	x0, [x8, #-8]
	bl	free
.LBB19_5:
	mov	x0, x20
	bl	_ZdlPv
.LBB19_6:
	str	xzr, [x19]
	ldp	x20, x19, [sp, #16]             // 16-byte Folded Reload
	ldp	x29, x30, [sp], #32             // 16-byte Folded Reload
	ret
.Lfunc_end19:
	.size	_ZNSt10unique_ptrIN9pocketfft6detail5cfftpIeEESt14default_deleteIS3_EED2Ev, .Lfunc_end19-_ZNSt10unique_ptrIN9pocketfft6detail5cfftpIeEESt14default_deleteIS3_EED2Ev
	.cfi_endproc
                                        // -- End function
	.section	.rodata.cst8,"aM",@progbits,8
	.p2align	3                               // -- Begin function _ZN9pocketfft6detail4util10cost_guessEm
.LCPI20_0:
	.xword	0x3ff199999999999a              // double 1.1000000000000001
	.section	.text._ZN9pocketfft6detail4util10cost_guessEm,"axG",@progbits,_ZN9pocketfft6detail4util10cost_guessEm,comdat
	.weak	_ZN9pocketfft6detail4util10cost_guessEm
	.p2align	2
	.type	_ZN9pocketfft6detail4util10cost_guessEm,@function
_ZN9pocketfft6detail4util10cost_guessEm: // @_ZN9pocketfft6detail4util10cost_guessEm
	.cfi_startproc
// %bb.0:
	movi	d0, #0000000000000000
	mov	x8, x0
	tbnz	w0, #0, .LBB20_3
// %bb.1:
	movi	d0, #0000000000000000
	fmov	d1, #2.00000000
	mov	x9, x0
.LBB20_2:                               // =>This Inner Loop Header: Depth=1
	lsr	x8, x9, #1
	fadd	d0, d0, d1
	mov	w10, w9
	mov	x9, x8
	tbz	w10, #1, .LBB20_2
.LBB20_3:
	adrp	x9, .LCPI20_0
	cmp	x8, #9
	b.hs	.LBB20_7
.LBB20_4:
	cmp	x8, #1
	b.ls	.LBB20_6
// %bb.5:
	ucvtf	d1, x8
	ldr	d2, [x9, :lo12:.LCPI20_0]
	cmp	x8, #6
	fmul	d2, d1, d2
	fcsel	d1, d1, d2, lo
	fadd	d0, d0, d1
.LBB20_6:
	ucvtf	d1, x0
	fmul	d0, d0, d1
	ret
.LBB20_7:
	mov	w10, #3
	ldr	d1, [x9, :lo12:.LCPI20_0]
	b	.LBB20_9
.LBB20_8:                               //   in Loop: Header=BB20_9 Depth=1
	add	x10, x10, #2
	mul	x11, x10, x10
	cmp	x11, x8
	b.hi	.LBB20_4
.LBB20_9:                               // =>This Loop Header: Depth=1
                                        //     Child Loop BB20_11 Depth 2
	udiv	x11, x8, x10
	msub	x11, x11, x10, x8
	cbnz	x11, .LBB20_8
// %bb.10:                              //   in Loop: Header=BB20_9 Depth=1
	ucvtf	d2, x10
	cmp	x10, #6
	fmul	d3, d2, d1
	fcsel	d2, d2, d3, lo
.LBB20_11:                              //   Parent Loop BB20_9 Depth=1
                                        // =>  This Inner Loop Header: Depth=2
	udiv	x8, x8, x10
	fadd	d0, d2, d0
	udiv	x11, x8, x10
	msub	x11, x11, x10, x8
	cbz	x11, .LBB20_11
	b	.LBB20_8
.Lfunc_end20:
	.size	_ZN9pocketfft6detail4util10cost_guessEm, .Lfunc_end20-_ZN9pocketfft6detail4util10cost_guessEm
	.cfi_endproc
                                        // -- End function
	.section	.text._ZN9pocketfft6detail4util15good_size_cmplxEm,"axG",@progbits,_ZN9pocketfft6detail4util15good_size_cmplxEm,comdat
	.weak	_ZN9pocketfft6detail4util15good_size_cmplxEm // -- Begin function _ZN9pocketfft6detail4util15good_size_cmplxEm
	.p2align	2
	.type	_ZN9pocketfft6detail4util15good_size_cmplxEm,@function
_ZN9pocketfft6detail4util15good_size_cmplxEm: // @_ZN9pocketfft6detail4util15good_size_cmplxEm
	.cfi_startproc
// %bb.0:
	mov	x8, x0
	cmp	x0, #13
	b.hs	.LBB21_2
.LBB21_1:
	mov	x0, x8
	ret
.LBB21_2:
	lsl	x0, x8, #1
	cbz	x0, .LBB21_18
// %bb.3:
	mov	w9, #1
	mov	w10, #11
.LBB21_4:                               // =>This Loop Header: Depth=1
                                        //     Child Loop BB21_6 Depth 2
                                        //       Child Loop BB21_8 Depth 3
                                        //         Child Loop BB21_9 Depth 4
                                        //         Child Loop BB21_11 Depth 4
                                        //           Child Loop BB21_12 Depth 5
	cmp	x9, x0
	b.hs	.LBB21_17
// %bb.5:                               //   in Loop: Header=BB21_4 Depth=1
	mov	x11, x9
.LBB21_6:                               //   Parent Loop BB21_4 Depth=1
                                        // =>  This Loop Header: Depth=2
                                        //       Child Loop BB21_8 Depth 3
                                        //         Child Loop BB21_9 Depth 4
                                        //         Child Loop BB21_11 Depth 4
                                        //           Child Loop BB21_12 Depth 5
	cmp	x11, x0
	b.hs	.LBB21_16
// %bb.7:                               //   in Loop: Header=BB21_6 Depth=2
	mov	x12, x11
.LBB21_8:                               //   Parent Loop BB21_4 Depth=1
                                        //     Parent Loop BB21_6 Depth=2
                                        // =>    This Loop Header: Depth=3
                                        //         Child Loop BB21_9 Depth 4
                                        //         Child Loop BB21_11 Depth 4
                                        //           Child Loop BB21_12 Depth 5
	mov	x14, x12
.LBB21_9:                               //   Parent Loop BB21_4 Depth=1
                                        //     Parent Loop BB21_6 Depth=2
                                        //       Parent Loop BB21_8 Depth=3
                                        // =>      This Inner Loop Header: Depth=4
	mov	x13, x14
	lsl	x14, x14, #1
	cmp	x13, x8
	b.lo	.LBB21_9
	b	.LBB21_11
.LBB21_10:                              //   in Loop: Header=BB21_11 Depth=4
	add	x13, x13, x13, lsl #1
.LBB21_11:                              //   Parent Loop BB21_4 Depth=1
                                        //     Parent Loop BB21_6 Depth=2
                                        //       Parent Loop BB21_8 Depth=3
                                        // =>      This Loop Header: Depth=4
                                        //           Child Loop BB21_12 Depth 5
	cmp	x13, x8
	b.lo	.LBB21_10
.LBB21_12:                              //   Parent Loop BB21_4 Depth=1
                                        //     Parent Loop BB21_6 Depth=2
                                        //       Parent Loop BB21_8 Depth=3
                                        //         Parent Loop BB21_11 Depth=4
                                        // =>        This Inner Loop Header: Depth=5
	b.ls	.LBB21_1
// %bb.13:                              //   in Loop: Header=BB21_12 Depth=5
	cmp	x13, x0
	csel	x0, x13, x0, lo
	tbnz	w13, #0, .LBB21_15
// %bb.14:                              //   in Loop: Header=BB21_12 Depth=5
	lsr	x13, x13, #1
	cmp	x13, x8
	b.lo	.LBB21_10
	b	.LBB21_12
.LBB21_15:                              //   in Loop: Header=BB21_8 Depth=3
	add	x12, x12, x12, lsl #2
	cmp	x12, x0
	b.lo	.LBB21_8
.LBB21_16:                              //   in Loop: Header=BB21_6 Depth=2
	lsl	x12, x11, #3
	sub	x11, x12, x11
	cmp	x11, x0
	b.lo	.LBB21_6
.LBB21_17:                              //   in Loop: Header=BB21_4 Depth=1
	mul	x9, x9, x10
	cmp	x9, x0
	b.lo	.LBB21_4
.LBB21_18:
	ret
.Lfunc_end21:
	.size	_ZN9pocketfft6detail4util15good_size_cmplxEm, .Lfunc_end21-_ZN9pocketfft6detail4util15good_size_cmplxEm
	.cfi_endproc
                                        // -- End function
	.section	.rodata.cst16,"aM",@progbits,16
	.p2align	4                               // -- Begin function _ZN9pocketfft6detail7fftblueIeEC2Em
.LCPI22_0:
	.xword	0x0000000000000000              // fp128 1
	.xword	0x3fff000000000000
.LCPI22_1:
	.xword	0x0000000000000000              // fp128 0
	.xword	0x0000000000000000
	.section	.text._ZN9pocketfft6detail7fftblueIeEC2Em,"axG",@progbits,_ZN9pocketfft6detail7fftblueIeEC2Em,comdat
	.weak	_ZN9pocketfft6detail7fftblueIeEC2Em
	.p2align	2
	.type	_ZN9pocketfft6detail7fftblueIeEC2Em,@function
_ZN9pocketfft6detail7fftblueIeEC2Em:    // @_ZN9pocketfft6detail7fftblueIeEC2Em
.Lfunc_begin11:
	.cfi_startproc
	.cfi_personality 156, DW.ref.__gxx_personality_v0
	.cfi_lsda 28, .Lexception11
// %bb.0:
	sub	sp, sp, #256
	stp	x29, x30, [sp, #176]            // 16-byte Folded Spill
	add	x29, sp, #176
	stp	x26, x25, [sp, #192]            // 16-byte Folded Spill
	stp	x24, x23, [sp, #208]            // 16-byte Folded Spill
	stp	x22, x21, [sp, #224]            // 16-byte Folded Spill
	stp	x20, x19, [sp, #240]            // 16-byte Folded Spill
	.cfi_def_cfa w29, 80
	.cfi_offset w19, -8
	.cfi_offset w20, -16
	.cfi_offset w21, -24
	.cfi_offset w22, -32
	.cfi_offset w23, -40
	.cfi_offset w24, -48
	.cfi_offset w25, -56
	.cfi_offset w26, -64
	.cfi_offset w30, -72
	.cfi_offset w29, -80
	lsl	x8, x1, #1
	mov	x20, x0
	sub	x0, x8, #1
	str	x1, [x20]
	bl	_ZN9pocketfft6detail4util15good_size_cmplxEm
	add	x19, x20, #16
	mov	x1, x0
	str	x0, [x20, #8]
	mov	x0, x19
	bl	_ZN9pocketfft6detail5cfftpIeEC2Em
	ldp	x21, x8, [x20]
	add	x8, x21, x8, lsr #1
	adds	x22, x8, #1
	b.eq	.LBB22_3
// %bb.1:
	lsl	x8, x22, #5
	add	x0, x8, #64
	bl	malloc
	cbz	x0, .LBB22_27
// %bb.2:
	add	x8, x0, #64
	and	x8, x8, #0xffffffffffffffc0
	stur	x0, [x8, #-8]
	b	.LBB22_4
.LBB22_3:
	mov	x8, xzr
.LBB22_4:
	add	x9, x8, x21, lsl #5
	lsl	x1, x21, #1
	stp	x8, x22, [x20, #64]
	stp	x8, x9, [x20, #80]
.Ltmp194:
	sub	x0, x29, #56
	bl	_ZN9pocketfft6detail13sincos_2pibynIeEC2Em
.Ltmp195:
// %bb.5:
	adrp	x8, .LCPI22_0
	adrp	x9, .LCPI22_1
	ldr	x10, [x20, #80]
	ldr	q1, [x8, :lo12:.LCPI22_0]
	ldr	q0, [x9, :lo12:.LCPI22_1]
	str	q1, [sp]                        // 16-byte Folded Spill
	stp	q1, q0, [x10]
	ldr	x8, [x20]
	cmp	x8, #2
	b.lo	.LBB22_11
// %bb.6:
	mov	x21, xzr
	mov	x23, xzr
	mov	x22, #-1
	mov	w24, #1
	b	.LBB22_9
.LBB22_7:                               //   in Loop: Header=BB22_9 Depth=1
	add	x8, x25, x9
	ldur	x11, [x29, #-32]
	ldp	x9, x10, [x29, #-48]
	sub	x8, x8, x23
	add	x8, x22, x8
	ldur	x12, [x29, #-16]
	and	x9, x9, x8
	lsr	x8, x8, x10
	add	x9, x11, x9, lsl #5
	add	x8, x12, x8, lsl #5
	ldp	q2, q1, [x9]
	ldr	q0, [x8]
	stp	q0, q2, [sp, #48]               // 32-byte Folded Spill
	ldr	q0, [x8, #16]
	stp	q1, q0, [sp, #16]               // 32-byte Folded Spill
	bl	__multf3
	str	q0, [sp, #80]                   // 16-byte Folded Spill
	ldp	q1, q0, [sp, #48]               // 32-byte Folded Reload
	bl	__multf3
	ldr	q1, [sp, #80]                   // 16-byte Folded Reload
	bl	__subtf3
	str	q0, [sp, #80]                   // 16-byte Folded Spill
	ldr	q0, [sp, #16]                   // 16-byte Folded Reload
	ldr	q1, [sp, #48]                   // 16-byte Folded Reload
	bl	__multf3
	str	q0, [sp, #48]                   // 16-byte Folded Spill
	ldr	q0, [sp, #64]                   // 16-byte Folded Reload
	ldr	q1, [sp, #32]                   // 16-byte Folded Reload
	bl	__multf3
	ldr	q1, [sp, #48]                   // 16-byte Folded Reload
	bl	__addtf3
	stur	q0, [x29, #-80]
	ldurb	w8, [x29, #-65]
	eor	w8, w8, #0x80
	sturb	w8, [x29, #-65]
	ldur	q0, [x29, #-80]
.LBB22_8:                               //   in Loop: Header=BB22_9 Depth=1
	ldr	x8, [x20, #80]
	add	x9, x23, x24, lsl #1
	ldr	q1, [sp, #80]                   // 16-byte Folded Reload
	mvn	x10, x25
	add	x23, x10, x9
	add	x24, x24, #1
	add	x8, x8, x21, lsl #4
	add	x21, x21, #2
	sub	x22, x22, #2
	stp	q1, q0, [x8, #32]
	ldr	x8, [x20]
	cmp	x24, x8
	b.hs	.LBB22_11
.LBB22_9:                               // =>This Inner Loop Header: Depth=1
	add	x9, x23, x21
	lsl	x8, x8, #1
	add	x9, x9, #1
	cmp	x9, x8
	ldur	x9, [x29, #-56]
	csel	x25, xzr, x8, lo
	sub	x8, x23, x25
	add	x8, x21, x8
	add	x8, x8, #1
	cmp	x9, x8, lsl #1
	b.lo	.LBB22_7
// %bb.10:                              //   in Loop: Header=BB22_9 Depth=1
	ldp	x9, x10, [x29, #-48]
	ldur	x11, [x29, #-32]
	ldur	x12, [x29, #-16]
	and	x9, x9, x8
	lsr	x8, x8, x10
	add	x9, x11, x9, lsl #5
	add	x8, x12, x8, lsl #5
	ldp	q2, q1, [x9]
	ldr	q0, [x8]
	stp	q0, q2, [sp, #48]               // 32-byte Folded Spill
	ldr	q0, [x8, #16]
	stp	q1, q0, [sp, #16]               // 32-byte Folded Spill
	bl	__multf3
	str	q0, [sp, #80]                   // 16-byte Folded Spill
	ldp	q1, q0, [sp, #48]               // 32-byte Folded Reload
	bl	__multf3
	ldr	q1, [sp, #80]                   // 16-byte Folded Reload
	bl	__subtf3
	str	q0, [sp, #80]                   // 16-byte Folded Spill
	ldr	q0, [sp, #16]                   // 16-byte Folded Reload
	ldr	q1, [sp, #48]                   // 16-byte Folded Reload
	bl	__multf3
	str	q0, [sp, #48]                   // 16-byte Folded Spill
	ldr	q0, [sp, #64]                   // 16-byte Folded Reload
	ldr	q1, [sp, #32]                   // 16-byte Folded Reload
	bl	__multf3
	ldr	q1, [sp, #48]                   // 16-byte Folded Reload
	bl	__addtf3
	b	.LBB22_8
.LBB22_11:
	ldr	x22, [x20, #8]
	lsl	x8, x22, #5
	add	x0, x8, #64
	bl	malloc
	cbz	x0, .LBB22_25
// %bb.12:
	add	x8, x0, #64
	and	x21, x8, #0xffffffffffffffc0
	stur	x0, [x21, #-8]
	mov	x0, x22
	bl	__floatunditf
	mov	v1.16b, v0.16b
	ldr	q0, [sp]                        // 16-byte Folded Reload
	bl	__divtf3
	ldr	x22, [x20, #80]
	str	q0, [sp, #80]                   // 16-byte Folded Spill
	ldr	q1, [x22]
	bl	__multf3
	str	q0, [sp, #64]                   // 16-byte Folded Spill
	ldr	q1, [x22, #16]
	ldr	q0, [sp, #80]                   // 16-byte Folded Reload
	bl	__multf3
	ldr	q1, [sp, #64]                   // 16-byte Folded Reload
	stp	q1, q0, [x21]
	ldr	x8, [x20]
	cmp	x8, #2
	b.lo	.LBB22_15
// %bb.13:
	mov	x22, xzr
	add	x23, x21, #32
	mov	x24, #-1
	mov	w25, #1
.LBB22_14:                              // =>This Inner Loop Header: Depth=1
	ldr	x8, [x20, #80]
	ldr	q0, [sp, #80]                   // 16-byte Folded Reload
	add	x26, x8, x22
	ldr	q1, [x26, #32]
	bl	__multf3
	str	q0, [sp, #64]                   // 16-byte Folded Spill
	ldr	q1, [x26, #48]
	ldr	q0, [sp, #80]                   // 16-byte Folded Reload
	bl	__multf3
	ldr	x8, [x20, #8]
	add	x9, x23, x22
	ldr	q1, [sp, #64]                   // 16-byte Folded Reload
	add	x25, x25, #1
	add	x22, x22, #32
	add	x8, x24, x8
	sub	x24, x24, #1
	add	x8, x21, x8, lsl #5
	stp	q1, q0, [x8]
	stp	q1, q0, [x9]
	ldr	x8, [x20]
	cmp	x25, x8
	b.lo	.LBB22_14
.LBB22_15:
	ldr	x9, [x20, #8]
	sub	x9, x9, x8
	cmp	x8, x9
	b.hi	.LBB22_17
// %bb.16:
	add	x9, x9, #1
	add	x10, x8, #1
	cmp	x9, x10
	add	x0, x21, x8, lsl #5
	csinc	x9, x9, x8, hi
	mov	w1, wzr
	sub	x9, x9, x8
	lsl	x2, x9, #5
	bl	memset
.LBB22_17:
.Ltmp197:
	mov	x0, x19
	mov	x1, x21
	ldr	q0, [sp]                        // 16-byte Folded Reload
	bl	_ZNK9pocketfft6detail5cfftpIeE8pass_allILb1ENS0_5cmplxIeEEEEvPT0_e
.Ltmp198:
// %bb.18:
	mov	x8, xzr
	mov	x9, #-1
.LBB22_19:                              // =>This Inner Loop Header: Depth=1
	add	x11, x21, x8
	ldr	x10, [x20, #88]
	add	x9, x9, #1
	ldp	q1, q0, [x11]
	add	x10, x10, x8
	add	x8, x8, #32
	stp	q1, q0, [x10]
	ldr	x10, [x20, #8]
	cmp	x9, x10, lsr #1
	b.lo	.LBB22_19
// %bb.20:
	ldur	x0, [x21, #-8]
	bl	free
	ldur	x8, [x29, #-16]
	cbz	x8, .LBB22_22
// %bb.21:
	ldur	x0, [x8, #-8]
	bl	free
.LBB22_22:
	ldur	x8, [x29, #-32]
	cbz	x8, .LBB22_24
// %bb.23:
	ldur	x0, [x8, #-8]
	bl	free
.LBB22_24:
	ldp	x20, x19, [sp, #240]            // 16-byte Folded Reload
	ldp	x22, x21, [sp, #224]            // 16-byte Folded Reload
	ldp	x24, x23, [sp, #208]            // 16-byte Folded Reload
	ldp	x26, x25, [sp, #192]            // 16-byte Folded Reload
	ldp	x29, x30, [sp, #176]            // 16-byte Folded Reload
	add	sp, sp, #256
	ret
.LBB22_25:
	mov	w0, #8
	bl	__cxa_allocate_exception
	adrp	x8, :got:_ZTVSt9bad_alloc
	ldr	x8, [x8, :got_lo12:_ZTVSt9bad_alloc]
	add	x8, x8, #16
	str	x8, [x0]
.Ltmp200:
	adrp	x1, :got:_ZTISt9bad_alloc
	adrp	x2, :got:_ZNSt9bad_allocD1Ev
	ldr	x1, [x1, :got_lo12:_ZTISt9bad_alloc]
	ldr	x2, [x2, :got_lo12:_ZNSt9bad_allocD1Ev]
	bl	__cxa_throw
.Ltmp201:
// %bb.26:
.LBB22_27:
	mov	w0, #8
	bl	__cxa_allocate_exception
	adrp	x8, :got:_ZTVSt9bad_alloc
	ldr	x8, [x8, :got_lo12:_ZTVSt9bad_alloc]
	add	x8, x8, #16
	str	x8, [x0]
.Ltmp191:
	adrp	x1, :got:_ZTISt9bad_alloc
	adrp	x2, :got:_ZNSt9bad_allocD1Ev
	ldr	x1, [x1, :got_lo12:_ZTISt9bad_alloc]
	ldr	x2, [x2, :got_lo12:_ZNSt9bad_allocD1Ev]
	bl	__cxa_throw
.Ltmp192:
// %bb.28:
.LBB22_29:
.Ltmp193:
	mov	x22, x0
	b	.LBB22_36
.LBB22_30:
.Ltmp199:
	mov	x22, x0
	ldur	x0, [x21, #-8]
	bl	free
	b	.LBB22_32
.LBB22_31:
.Ltmp202:
	mov	x22, x0
.LBB22_32:
	sub	x0, x29, #56
	bl	_ZN9pocketfft6detail13sincos_2pibynIeED2Ev
	b	.LBB22_34
.LBB22_33:
.Ltmp196:
	mov	x22, x0
.LBB22_34:
	ldr	x8, [x20, #64]
	cbz	x8, .LBB22_36
// %bb.35:
	ldur	x0, [x8, #-8]
	bl	free
.LBB22_36:
	mov	x0, x19
	bl	_ZN9pocketfft6detail5cfftpIeED2Ev
	mov	x0, x22
	bl	_Unwind_Resume
.Lfunc_end22:
	.size	_ZN9pocketfft6detail7fftblueIeEC2Em, .Lfunc_end22-_ZN9pocketfft6detail7fftblueIeEC2Em
	.cfi_endproc
	.section	.gcc_except_table._ZN9pocketfft6detail7fftblueIeEC2Em,"aG",@progbits,_ZN9pocketfft6detail7fftblueIeEC2Em,comdat
	.p2align	2
GCC_except_table22:
.Lexception11:
	.byte	255                             // @LPStart Encoding = omit
	.byte	255                             // @TType Encoding = omit
	.byte	1                               // Call site Encoding = uleb128
	.uleb128 .Lcst_end11-.Lcst_begin11
.Lcst_begin11:
	.uleb128 .Lfunc_begin11-.Lfunc_begin11  // >> Call Site 1 <<
	.uleb128 .Ltmp194-.Lfunc_begin11        //   Call between .Lfunc_begin11 and .Ltmp194
	.byte	0                               //     has no landing pad
	.byte	0                               //   On action: cleanup
	.uleb128 .Ltmp194-.Lfunc_begin11        // >> Call Site 2 <<
	.uleb128 .Ltmp195-.Ltmp194              //   Call between .Ltmp194 and .Ltmp195
	.uleb128 .Ltmp196-.Lfunc_begin11        //     jumps to .Ltmp196
	.byte	0                               //   On action: cleanup
	.uleb128 .Ltmp195-.Lfunc_begin11        // >> Call Site 3 <<
	.uleb128 .Ltmp197-.Ltmp195              //   Call between .Ltmp195 and .Ltmp197
	.byte	0                               //     has no landing pad
	.byte	0                               //   On action: cleanup
	.uleb128 .Ltmp197-.Lfunc_begin11        // >> Call Site 4 <<
	.uleb128 .Ltmp198-.Ltmp197              //   Call between .Ltmp197 and .Ltmp198
	.uleb128 .Ltmp199-.Lfunc_begin11        //     jumps to .Ltmp199
	.byte	0                               //   On action: cleanup
	.uleb128 .Ltmp198-.Lfunc_begin11        // >> Call Site 5 <<
	.uleb128 .Ltmp200-.Ltmp198              //   Call between .Ltmp198 and .Ltmp200
	.byte	0                               //     has no landing pad
	.byte	0                               //   On action: cleanup
	.uleb128 .Ltmp200-.Lfunc_begin11        // >> Call Site 6 <<
	.uleb128 .Ltmp201-.Ltmp200              //   Call between .Ltmp200 and .Ltmp201
	.uleb128 .Ltmp202-.Lfunc_begin11        //     jumps to .Ltmp202
	.byte	0                               //   On action: cleanup
	.uleb128 .Ltmp201-.Lfunc_begin11        // >> Call Site 7 <<
	.uleb128 .Ltmp191-.Ltmp201              //   Call between .Ltmp201 and .Ltmp191
	.byte	0                               //     has no landing pad
	.byte	0                               //   On action: cleanup
	.uleb128 .Ltmp191-.Lfunc_begin11        // >> Call Site 8 <<
	.uleb128 .Ltmp192-.Ltmp191              //   Call between .Ltmp191 and .Ltmp192
	.uleb128 .Ltmp193-.Lfunc_begin11        //     jumps to .Ltmp193
	.byte	0                               //   On action: cleanup
	.uleb128 .Ltmp192-.Lfunc_begin11        // >> Call Site 9 <<
	.uleb128 .Lfunc_end22-.Ltmp192          //   Call between .Ltmp192 and .Lfunc_end22
	.byte	0                               //     has no landing pad
	.byte	0                               //   On action: cleanup
.Lcst_end11:
	.p2align	2
                                        // -- End function
	.section	.text._ZNSt10unique_ptrIN9pocketfft6detail7fftblueIeEESt14default_deleteIS3_EED2Ev,"axG",@progbits,_ZNSt10unique_ptrIN9pocketfft6detail7fftblueIeEESt14default_deleteIS3_EED2Ev,comdat
	.weak	_ZNSt10unique_ptrIN9pocketfft6detail7fftblueIeEESt14default_deleteIS3_EED2Ev // -- Begin function _ZNSt10unique_ptrIN9pocketfft6detail7fftblueIeEESt14default_deleteIS3_EED2Ev
	.p2align	2
	.type	_ZNSt10unique_ptrIN9pocketfft6detail7fftblueIeEESt14default_deleteIS3_EED2Ev,@function
_ZNSt10unique_ptrIN9pocketfft6detail7fftblueIeEESt14default_deleteIS3_EED2Ev: // @_ZNSt10unique_ptrIN9pocketfft6detail7fftblueIeEESt14default_deleteIS3_EED2Ev
	.cfi_startproc
// %bb.0:
	stp	x29, x30, [sp, #-32]!           // 16-byte Folded Spill
	stp	x20, x19, [sp, #16]             // 16-byte Folded Spill
	mov	x29, sp
	.cfi_def_cfa w29, 32
	.cfi_offset w19, -8
	.cfi_offset w20, -16
	.cfi_offset w30, -24
	.cfi_offset w29, -32
	mov	x19, x0
	ldr	x20, [x0]
	cbz	x20, .LBB23_8
// %bb.1:
	ldr	x8, [x20, #64]
	cbz	x8, .LBB23_3
// %bb.2:
	ldur	x0, [x8, #-8]
	bl	free
.LBB23_3:
	ldr	x0, [x20, #40]
	cbz	x0, .LBB23_5
// %bb.4:
	bl	_ZdlPv
.LBB23_5:
	ldr	x8, [x20, #24]
	cbz	x8, .LBB23_7
// %bb.6:
	ldur	x0, [x8, #-8]
	bl	free
.LBB23_7:
	mov	x0, x20
	bl	_ZdlPv
.LBB23_8:
	str	xzr, [x19]
	ldp	x20, x19, [sp, #16]             // 16-byte Folded Reload
	ldp	x29, x30, [sp], #32             // 16-byte Folded Reload
	ret
.Lfunc_end23:
	.size	_ZNSt10unique_ptrIN9pocketfft6detail7fftblueIeEESt14default_deleteIS3_EED2Ev, .Lfunc_end23-_ZNSt10unique_ptrIN9pocketfft6detail7fftblueIeEESt14default_deleteIS3_EED2Ev
	.cfi_endproc
                                        // -- End function
	.section	.text._ZN9pocketfft6detail5cfftpIeE9factorizeEv,"axG",@progbits,_ZN9pocketfft6detail5cfftpIeE9factorizeEv,comdat
	.weak	_ZN9pocketfft6detail5cfftpIeE9factorizeEv // -- Begin function _ZN9pocketfft6detail5cfftpIeE9factorizeEv
	.p2align	2
	.type	_ZN9pocketfft6detail5cfftpIeE9factorizeEv,@function
_ZN9pocketfft6detail5cfftpIeE9factorizeEv: // @_ZN9pocketfft6detail5cfftpIeE9factorizeEv
	.cfi_startproc
// %bb.0:
	stp	x29, x30, [sp, #-96]!           // 16-byte Folded Spill
	stp	x28, x27, [sp, #16]             // 16-byte Folded Spill
	mov	x29, sp
	stp	x26, x25, [sp, #32]             // 16-byte Folded Spill
	stp	x24, x23, [sp, #48]             // 16-byte Folded Spill
	stp	x22, x21, [sp, #64]             // 16-byte Folded Spill
	stp	x20, x19, [sp, #80]             // 16-byte Folded Spill
	.cfi_def_cfa w29, 96
	.cfi_offset w19, -8
	.cfi_offset w20, -16
	.cfi_offset w21, -24
	.cfi_offset w22, -32
	.cfi_offset w23, -40
	.cfi_offset w24, -48
	.cfi_offset w25, -56
	.cfi_offset w26, -64
	.cfi_offset w27, -72
	.cfi_offset w28, -80
	.cfi_offset w30, -88
	.cfi_offset w29, -96
	ldr	x24, [x0]
	mov	x19, x0
	tst	x24, #0x7
	b.eq	.LBB24_7
// %bb.1:
	mov	x25, x24
.LBB24_2:
	tst	x25, #0x3
	b.eq	.LBB24_16
// %bb.3:
	mov	x24, x25
.LBB24_4:
	tbnz	w24, #0, .LBB24_32
// %bb.5:
	ldp	x8, x9, [x19, #32]
	cmp	x8, x9
	b.eq	.LBB24_25
// %bb.6:
	mov	w9, #2
	stp	xzr, xzr, [x8, #8]
	str	x9, [x8]
	ldp	x21, x25, [x19, #24]
	add	x8, x25, #24
	str	x8, [x19, #32]
	b	.LBB24_31
.LBB24_7:
	ldr	x8, [x19, #32]
	mov	x27, #9223372036854775800
	mov	w28, #24
	mov	w26, #8
	b	.LBB24_9
.LBB24_8:                               //   in Loop: Header=BB24_9 Depth=1
	stp	xzr, xzr, [x8, #8]
	str	x26, [x8]
	ldr	x8, [x19, #32]
	add	x8, x8, #24
	str	x8, [x19, #32]
	lsr	x25, x24, #3
	tst	x24, #0x38
	mov	x24, x25
	b.ne	.LBB24_2
.LBB24_9:                               // =>This Inner Loop Header: Depth=1
	ldr	x9, [x19, #40]
	cmp	x8, x9
	b.ne	.LBB24_8
// %bb.10:                              //   in Loop: Header=BB24_9 Depth=1
	ldr	x20, [x19, #24]
	sub	x21, x8, x20
	cmp	x21, x27
	b.eq	.LBB24_55
// %bb.11:                              //   in Loop: Header=BB24_9 Depth=1
	mov	x9, #-6148914691236517206
	asr	x8, x21, #3
	movk	x9, #43691
	cmp	x21, #0
	mov	x11, #6148914691236517205
	mul	x23, x8, x9
	movk	x11, #1365, lsl #48
	csinc	x8, x23, xzr, ne
	adds	x8, x8, x23
	cset	w9, hs
	cmp	x8, x11
	cset	w10, hi
	orr	w9, w9, w10
	cmp	w9, #0
	csel	x25, x11, x8, ne
	add	x8, x25, x25, lsl #1
	lsl	x0, x8, #3
	bl	_Znwm
	madd	x23, x23, x28, x0
	mov	x22, x0
	cmp	x21, #1
	stp	xzr, xzr, [x23, #8]
	str	x26, [x23]
	b.lt	.LBB24_13
// %bb.12:                              //   in Loop: Header=BB24_9 Depth=1
	mov	x0, x22
	mov	x1, x20
	mov	x2, x21
	bl	memmove
.LBB24_13:                              //   in Loop: Header=BB24_9 Depth=1
	cbz	x20, .LBB24_15
// %bb.14:                              //   in Loop: Header=BB24_9 Depth=1
	mov	x0, x20
	bl	_ZdlPv
.LBB24_15:                              //   in Loop: Header=BB24_9 Depth=1
	madd	x9, x25, x28, x22
	add	x8, x23, #24
	stp	x22, x8, [x19, #24]
	str	x9, [x19, #40]
	lsr	x25, x24, #3
	tst	x24, #0x38
	mov	x24, x25
	b.eq	.LBB24_9
	b	.LBB24_2
.LBB24_16:
	ldr	x8, [x19, #32]
	mov	x27, #9223372036854775800
	mov	w28, #24
	mov	w26, #4
	b	.LBB24_18
.LBB24_17:                              //   in Loop: Header=BB24_18 Depth=1
	stp	xzr, xzr, [x8, #8]
	str	x26, [x8]
	ldr	x8, [x19, #32]
	add	x8, x8, #24
	str	x8, [x19, #32]
	lsr	x24, x25, #2
	tst	x25, #0xc
	mov	x25, x24
	b.ne	.LBB24_4
.LBB24_18:                              // =>This Inner Loop Header: Depth=1
	ldr	x9, [x19, #40]
	cmp	x8, x9
	b.ne	.LBB24_17
// %bb.19:                              //   in Loop: Header=BB24_18 Depth=1
	ldr	x20, [x19, #24]
	sub	x21, x8, x20
	cmp	x21, x27
	b.eq	.LBB24_55
// %bb.20:                              //   in Loop: Header=BB24_18 Depth=1
	mov	x9, #-6148914691236517206
	asr	x8, x21, #3
	movk	x9, #43691
	cmp	x21, #0
	mov	x11, #6148914691236517205
	mul	x23, x8, x9
	movk	x11, #1365, lsl #48
	csinc	x8, x23, xzr, ne
	adds	x8, x8, x23
	cset	w9, hs
	cmp	x8, x11
	cset	w10, hi
	orr	w9, w9, w10
	cmp	w9, #0
	csel	x24, x11, x8, ne
	add	x8, x24, x24, lsl #1
	lsl	x0, x8, #3
	bl	_Znwm
	madd	x23, x23, x28, x0
	mov	x22, x0
	cmp	x21, #1
	stp	xzr, xzr, [x23, #8]
	str	x26, [x23]
	b.lt	.LBB24_22
// %bb.21:                              //   in Loop: Header=BB24_18 Depth=1
	mov	x0, x22
	mov	x1, x20
	mov	x2, x21
	bl	memmove
.LBB24_22:                              //   in Loop: Header=BB24_18 Depth=1
	cbz	x20, .LBB24_24
// %bb.23:                              //   in Loop: Header=BB24_18 Depth=1
	mov	x0, x20
	bl	_ZdlPv
.LBB24_24:                              //   in Loop: Header=BB24_18 Depth=1
	madd	x9, x24, x28, x22
	add	x8, x23, #24
	stp	x22, x8, [x19, #24]
	str	x9, [x19, #40]
	lsr	x24, x25, #2
	tst	x25, #0xc
	mov	x25, x24
	b.eq	.LBB24_18
	b	.LBB24_4
.LBB24_25:
	ldr	x20, [x19, #24]
	sub	x22, x8, x20
	mov	x8, #9223372036854775800
	cmp	x22, x8
	b.eq	.LBB24_55
// %bb.26:
	mov	x9, #-6148914691236517206
	asr	x8, x22, #3
	movk	x9, #43691
	cmp	x22, #0
	mov	x11, #6148914691236517205
	mul	x23, x8, x9
	movk	x11, #1365, lsl #48
	csinc	x8, x23, xzr, ne
	adds	x8, x8, x23
	cset	w9, hs
	cmp	x8, x11
	cset	w10, hi
	orr	w9, w9, w10
	cmp	w9, #0
	csel	x26, x11, x8, ne
	add	x8, x26, x26, lsl #1
	lsl	x0, x8, #3
	bl	_Znwm
	mov	w8, #24
	mov	x21, x0
	cmp	x22, #1
	madd	x25, x23, x8, x0
	mov	w8, #2
	stp	xzr, xzr, [x25, #8]
	str	x8, [x25]
	b.lt	.LBB24_28
// %bb.27:
	mov	x0, x21
	mov	x1, x20
	mov	x2, x22
	bl	memmove
.LBB24_28:
	add	x22, x25, #24
	cbz	x20, .LBB24_30
// %bb.29:
	mov	x0, x20
	bl	_ZdlPv
.LBB24_30:
	mov	w8, #24
	stp	x21, x22, [x19, #24]
	madd	x8, x26, x8, x21
	str	x8, [x19, #40]
.LBB24_31:
	ldr	x8, [x25]
	lsr	x24, x24, #1
	ldr	x9, [x21]
	str	x8, [x21]
	str	x9, [x25]
.LBB24_32:
	cmp	x24, #9
	b.hs	.LBB24_36
.LBB24_33:
	cmp	x24, #1
	b.ls	.LBB24_54
// %bb.34:
	ldp	x8, x9, [x19, #32]
	cmp	x8, x9
	b.eq	.LBB24_48
// %bb.35:
	stp	xzr, xzr, [x8, #8]
	str	x24, [x8]
	ldr	x8, [x19, #32]
	add	x8, x8, #24
	str	x8, [x19, #32]
	b	.LBB24_54
.LBB24_36:
	mov	w25, #3
	mov	x27, #9223372036854775800
	mov	w28, #24
	b	.LBB24_38
.LBB24_37:                              //   in Loop: Header=BB24_38 Depth=1
	add	x25, x25, #2
	mul	x8, x25, x25
	cmp	x8, x24
	b.hi	.LBB24_33
.LBB24_38:                              // =>This Loop Header: Depth=1
                                        //     Child Loop BB24_41 Depth 2
	udiv	x8, x24, x25
	msub	x8, x8, x25, x24
	cbnz	x8, .LBB24_37
// %bb.39:                              //   in Loop: Header=BB24_38 Depth=1
	ldr	x8, [x19, #32]
	b	.LBB24_41
.LBB24_40:                              //   in Loop: Header=BB24_41 Depth=2
	stp	xzr, xzr, [x8, #8]
	str	x25, [x8]
	ldr	x8, [x19, #32]
	add	x8, x8, #24
	str	x8, [x19, #32]
	udiv	x24, x24, x25
	udiv	x9, x24, x25
	msub	x9, x9, x25, x24
	cbnz	x9, .LBB24_37
.LBB24_41:                              //   Parent Loop BB24_38 Depth=1
                                        // =>  This Inner Loop Header: Depth=2
	ldr	x9, [x19, #40]
	cmp	x8, x9
	b.ne	.LBB24_40
// %bb.42:                              //   in Loop: Header=BB24_41 Depth=2
	ldr	x20, [x19, #24]
	sub	x21, x8, x20
	cmp	x21, x27
	b.eq	.LBB24_55
// %bb.43:                              //   in Loop: Header=BB24_41 Depth=2
	mov	x9, #-6148914691236517206
	asr	x8, x21, #3
	movk	x9, #43691
	cmp	x21, #0
	mov	x11, #6148914691236517205
	mul	x26, x8, x9
	movk	x11, #1365, lsl #48
	csinc	x8, x26, xzr, ne
	adds	x8, x8, x26
	cset	w9, hs
	cmp	x8, x11
	cset	w10, hi
	orr	w9, w9, w10
	cmp	w9, #0
	csel	x23, x11, x8, ne
	add	x8, x23, x23, lsl #1
	lsl	x0, x8, #3
	bl	_Znwm
	madd	x26, x26, x28, x0
	mov	x22, x0
	cmp	x21, #1
	stp	xzr, xzr, [x26, #8]
	str	x25, [x26]
	b.lt	.LBB24_45
// %bb.44:                              //   in Loop: Header=BB24_41 Depth=2
	mov	x0, x22
	mov	x1, x20
	mov	x2, x21
	bl	memmove
.LBB24_45:                              //   in Loop: Header=BB24_41 Depth=2
	cbz	x20, .LBB24_47
// %bb.46:                              //   in Loop: Header=BB24_41 Depth=2
	mov	x0, x20
	bl	_ZdlPv
.LBB24_47:                              //   in Loop: Header=BB24_41 Depth=2
	madd	x9, x23, x28, x22
	add	x8, x26, #24
	stp	x22, x8, [x19, #24]
	str	x9, [x19, #40]
	udiv	x24, x24, x25
	udiv	x9, x24, x25
	msub	x9, x9, x25, x24
	cbz	x9, .LBB24_41
	b	.LBB24_37
.LBB24_48:
	ldr	x20, [x19, #24]
	sub	x21, x8, x20
	mov	x8, #9223372036854775800
	cmp	x21, x8
	b.eq	.LBB24_55
// %bb.49:
	mov	x9, #-6148914691236517206
	asr	x8, x21, #3
	movk	x9, #43691
	cmp	x21, #0
	mov	x11, #6148914691236517205
	mul	x25, x8, x9
	movk	x11, #1365, lsl #48
	csinc	x8, x25, xzr, ne
	adds	x8, x8, x25
	cset	w9, hs
	cmp	x8, x11
	cset	w10, hi
	orr	w9, w9, w10
	cmp	w9, #0
	csel	x23, x11, x8, ne
	add	x8, x23, x23, lsl #1
	lsl	x0, x8, #3
	bl	_Znwm
	mov	w8, #24
	mov	x22, x0
	cmp	x21, #1
	madd	x25, x25, x8, x0
	stp	xzr, xzr, [x25, #8]
	str	x24, [x25]
	b.lt	.LBB24_51
// %bb.50:
	mov	x0, x22
	mov	x1, x20
	mov	x2, x21
	bl	memmove
.LBB24_51:
	add	x21, x25, #24
	cbz	x20, .LBB24_53
// %bb.52:
	mov	x0, x20
	bl	_ZdlPv
.LBB24_53:
	mov	w8, #24
	stp	x22, x21, [x19, #24]
	madd	x8, x23, x8, x22
	str	x8, [x19, #40]
.LBB24_54:
	ldp	x20, x19, [sp, #80]             // 16-byte Folded Reload
	ldp	x22, x21, [sp, #64]             // 16-byte Folded Reload
	ldp	x24, x23, [sp, #48]             // 16-byte Folded Reload
	ldp	x26, x25, [sp, #32]             // 16-byte Folded Reload
	ldp	x28, x27, [sp, #16]             // 16-byte Folded Reload
	ldp	x29, x30, [sp], #96             // 16-byte Folded Reload
	ret
.LBB24_55:
	adrp	x0, .L.str.2
	add	x0, x0, :lo12:.L.str.2
	bl	_ZSt20__throw_length_errorPKc
.Lfunc_end24:
	.size	_ZN9pocketfft6detail5cfftpIeE9factorizeEv, .Lfunc_end24-_ZN9pocketfft6detail5cfftpIeE9factorizeEv
	.cfi_endproc
                                        // -- End function
	.section	.text._ZN9pocketfft6detail5cfftpIeE12comp_twiddleEv,"axG",@progbits,_ZN9pocketfft6detail5cfftpIeE12comp_twiddleEv,comdat
	.weak	_ZN9pocketfft6detail5cfftpIeE12comp_twiddleEv // -- Begin function _ZN9pocketfft6detail5cfftpIeE12comp_twiddleEv
	.p2align	2
	.type	_ZN9pocketfft6detail5cfftpIeE12comp_twiddleEv,@function
_ZN9pocketfft6detail5cfftpIeE12comp_twiddleEv: // @_ZN9pocketfft6detail5cfftpIeE12comp_twiddleEv
	.cfi_startproc
// %bb.0:
	sub	sp, sp, #352
	stp	x29, x30, [sp, #256]            // 16-byte Folded Spill
	add	x29, sp, #256
	stp	x28, x27, [sp, #272]            // 16-byte Folded Spill
	stp	x26, x25, [sp, #288]            // 16-byte Folded Spill
	stp	x24, x23, [sp, #304]            // 16-byte Folded Spill
	stp	x22, x21, [sp, #320]            // 16-byte Folded Spill
	stp	x20, x19, [sp, #336]            // 16-byte Folded Spill
	.cfi_def_cfa w29, 96
	.cfi_offset w19, -8
	.cfi_offset w20, -16
	.cfi_offset w21, -24
	.cfi_offset w22, -32
	.cfi_offset w23, -40
	.cfi_offset w24, -48
	.cfi_offset w25, -56
	.cfi_offset w26, -64
	.cfi_offset w27, -72
	.cfi_offset w28, -80
	.cfi_offset w30, -88
	.cfi_offset w29, -96
	mov	x24, x0
	ldr	x1, [x0]
	sub	x0, x29, #64
	bl	_ZN9pocketfft6detail13sincos_2pibynIeEC2Em
	ldp	x8, x9, [x24, #24]
	cmp	x9, x8
	b.eq	.LBB25_19
// %bb.1:
	mov	x26, #-6148914691236517206
	mov	x21, xzr
	mov	x25, xzr
	mov	w11, #1
	movk	x26, #43691
	b	.LBB25_4
.LBB25_2:                               //   in Loop: Header=BB25_4 Depth=1
	ldr	x8, [sp, #48]                   // 8-byte Folded Reload
	add	x21, x21, x8
.LBB25_3:                               //   in Loop: Header=BB25_4 Depth=1
	ldp	x8, x9, [x24, #24]
	add	x25, x25, #1
	mov	x11, x27
	sub	x9, x9, x8
	asr	x9, x9, #3
	mul	x9, x9, x26
	cmp	x25, x9
	b.hs	.LBB25_19
.LBB25_4:                               // =>This Loop Header: Depth=1
                                        //     Child Loop BB25_8 Depth 2
                                        //       Child Loop BB25_11 Depth 3
                                        //     Child Loop BB25_17 Depth 2
	mov	w9, #24
	madd	x8, x25, x9, x8
	ldp	x9, x10, [x24]
	ldr	x19, [x8]
	add	x10, x10, x21, lsl #5
	mul	x27, x19, x11
	cmp	x19, #2
	str	x10, [x8, #8]
	udiv	x12, x9, x27
	sub	x9, x19, #1
	sub	x13, x12, #1
	madd	x21, x13, x9, x21
	b.lo	.LBB25_3
// %bb.5:                               //   in Loop: Header=BB25_4 Depth=1
	stp	x27, x21, [sp, #8]              // 16-byte Folded Spill
	mov	x21, x24
	cmp	x12, #2
	str	x25, [sp, #104]                 // 8-byte Folded Spill
	str	x19, [sp, #48]                  // 8-byte Folded Spill
	b.lo	.LBB25_13
// %bb.6:                               //   in Loop: Header=BB25_4 Depth=1
	lsl	x28, x11, #1
	neg	x20, x11
	mov	x25, x11
	mov	w9, #1
	mov	x27, x12
	str	x11, [sp, #40]                  // 8-byte Folded Spill
	stp	x28, x13, [sp, #24]             // 16-byte Folded Spill
	b	.LBB25_8
.LBB25_7:                               //   in Loop: Header=BB25_8 Depth=2
	ldp	x19, x9, [sp, #48]              // 16-byte Folded Reload
	ldp	x13, x11, [sp, #32]             // 16-byte Folded Reload
	ldr	x8, [sp, #24]                   // 8-byte Folded Reload
	add	x9, x9, #1
	cmp	x9, x19
	sub	x20, x20, x11
	add	x25, x25, x11
	add	x28, x28, x8
	b.eq	.LBB25_13
.LBB25_8:                               //   Parent Loop BB25_4 Depth=1
                                        // =>  This Loop Header: Depth=2
                                        //       Child Loop BB25_11 Depth 3
	sub	x8, x9, #1
	mov	x23, x28
	mov	x26, x25
	mov	x24, x20
	mul	x8, x8, x13
	mov	w19, #1
	str	x9, [sp, #56]                   // 8-byte Folded Spill
	sub	x22, x8, #1
	b	.LBB25_11
.LBB25_9:                               //   in Loop: Header=BB25_11 Depth=3
	ldp	x9, x10, [x29, #-56]
	add	x8, x24, x8
	ldur	x11, [x29, #-40]
	ldur	x12, [x29, #-24]
	and	x9, x9, x8
	lsr	x8, x8, x10
	add	x9, x11, x9, lsl #5
	add	x8, x12, x8, lsl #5
	ldp	q2, q1, [x9]
	ldr	q0, [x8]
	stp	q0, q2, [sp, #112]              // 32-byte Folded Spill
	ldr	q0, [x8, #16]
	stp	q1, q0, [sp, #64]               // 32-byte Folded Spill
	bl	__multf3
	stur	q0, [x29, #-112]                // 16-byte Folded Spill
	ldp	q1, q0, [sp, #112]              // 32-byte Folded Reload
	bl	__multf3
	ldur	q1, [x29, #-112]                // 16-byte Folded Reload
	bl	__subtf3
	stur	q0, [x29, #-112]                // 16-byte Folded Spill
	ldr	q0, [sp, #64]                   // 16-byte Folded Reload
	ldr	q1, [sp, #112]                  // 16-byte Folded Reload
	bl	__multf3
	str	q0, [sp, #112]                  // 16-byte Folded Spill
	ldr	q0, [sp, #128]                  // 16-byte Folded Reload
	ldr	q1, [sp, #80]                   // 16-byte Folded Reload
	bl	__multf3
	ldr	q1, [sp, #112]                  // 16-byte Folded Reload
	bl	__addtf3
	stur	q0, [x29, #-80]
	ldur	q1, [x29, #-112]                // 16-byte Folded Reload
	ldurb	w8, [x29, #-65]
	mov	x12, x27
	eor	w8, w8, #0x80
	sturb	w8, [x29, #-65]
	ldur	q0, [x29, #-80]
.LBB25_10:                              //   in Loop: Header=BB25_11 Depth=3
	ldr	x8, [x21, #24]
	mov	w9, #24
	ldr	x10, [sp, #104]                 // 8-byte Folded Reload
	add	x24, x24, x20
	add	x26, x26, x25
	add	x23, x23, x28
	madd	x8, x10, x9, x8
	add	x9, x22, x19
	add	x19, x19, #1
	cmp	x19, x12
	ldr	x8, [x8, #8]
	add	x8, x8, x9, lsl #5
	stp	q1, q0, [x8]
	b.eq	.LBB25_7
.LBB25_11:                              //   Parent Loop BB25_4 Depth=1
                                        //     Parent Loop BB25_8 Depth=2
                                        // =>    This Inner Loop Header: Depth=3
	ldur	x8, [x29, #-64]
	cmp	x23, x8
	b.hi	.LBB25_9
// %bb.12:                              //   in Loop: Header=BB25_11 Depth=3
	ldp	x8, x9, [x29, #-56]
	ldur	x10, [x29, #-40]
	ldur	x11, [x29, #-24]
	and	x8, x8, x26
	lsr	x9, x26, x9
	add	x8, x10, x8, lsl #5
	add	x9, x11, x9, lsl #5
	ldp	q2, q1, [x8]
	ldr	q0, [x9]
	stp	q0, q2, [sp, #112]              // 32-byte Folded Spill
	ldr	q0, [x9, #16]
	stp	q1, q0, [sp, #64]               // 32-byte Folded Spill
	bl	__multf3
	stur	q0, [x29, #-112]                // 16-byte Folded Spill
	ldp	q1, q0, [sp, #112]              // 32-byte Folded Reload
	bl	__multf3
	ldur	q1, [x29, #-112]                // 16-byte Folded Reload
	bl	__subtf3
	stur	q0, [x29, #-112]                // 16-byte Folded Spill
	ldr	q0, [sp, #64]                   // 16-byte Folded Reload
	ldr	q1, [sp, #112]                  // 16-byte Folded Reload
	bl	__multf3
	str	q0, [sp, #112]                  // 16-byte Folded Spill
	ldr	q0, [sp, #128]                  // 16-byte Folded Reload
	ldr	q1, [sp, #80]                   // 16-byte Folded Reload
	bl	__multf3
	ldr	q1, [sp, #112]                  // 16-byte Folded Reload
	bl	__addtf3
	ldur	q1, [x29, #-112]                // 16-byte Folded Reload
	mov	x12, x27
	b	.LBB25_10
.LBB25_13:                              //   in Loop: Header=BB25_4 Depth=1
	mov	x24, x21
	mov	x26, #-6148914691236517206
	ldp	x27, x21, [sp, #8]              // 16-byte Folded Reload
	movk	x26, #43691
	cmp	x19, #12
	ldr	x25, [sp, #104]                 // 8-byte Folded Reload
	b.lo	.LBB25_3
// %bb.14:                              //   in Loop: Header=BB25_4 Depth=1
	ldr	x8, [x24, #24]
	mov	w10, #24
	ldr	x9, [x24, #8]
	mul	x22, x12, x11
	mov	x20, xzr
	mov	x23, xzr
	madd	x8, x25, x10, x8
	add	x9, x9, x21, lsl #5
	str	x9, [x8, #16]
	b	.LBB25_17
.LBB25_15:                              //   in Loop: Header=BB25_17 Depth=2
	ldp	x10, x11, [x29, #-56]
	sub	x8, x9, x8
	ldur	x9, [x29, #-40]
	ldur	x12, [x29, #-24]
	and	x10, x10, x8
	lsr	x8, x8, x11
	add	x9, x9, x10, lsl #5
	add	x8, x12, x8, lsl #5
	ldp	q2, q1, [x9]
	ldr	q0, [x8]
	stp	q0, q2, [sp, #112]              // 32-byte Folded Spill
	ldr	q0, [x8, #16]
	stp	q1, q0, [sp, #64]               // 32-byte Folded Spill
	bl	__multf3
	stur	q0, [x29, #-112]                // 16-byte Folded Spill
	ldp	q1, q0, [sp, #112]              // 32-byte Folded Reload
	bl	__multf3
	ldur	q1, [x29, #-112]                // 16-byte Folded Reload
	bl	__subtf3
	stur	q0, [x29, #-112]                // 16-byte Folded Spill
	ldr	q0, [sp, #64]                   // 16-byte Folded Reload
	ldr	q1, [sp, #112]                  // 16-byte Folded Reload
	bl	__multf3
	str	q0, [sp, #112]                  // 16-byte Folded Spill
	ldr	q0, [sp, #128]                  // 16-byte Folded Reload
	ldr	q1, [sp, #80]                   // 16-byte Folded Reload
	bl	__multf3
	ldr	q1, [sp, #112]                  // 16-byte Folded Reload
	bl	__addtf3
	stur	q0, [x29, #-96]
	ldurb	w8, [x29, #-81]
	eor	w8, w8, #0x80
	sturb	w8, [x29, #-81]
	ldp	q1, q0, [x29, #-112]            // 16-byte Folded Reload
.LBB25_16:                              //   in Loop: Header=BB25_17 Depth=2
	ldr	x8, [x24, #24]
	mov	w9, #24
	add	x23, x23, #1
	subs	x19, x19, #1
	madd	x8, x25, x9, x8
	ldr	x8, [x8, #16]
	add	x8, x8, x20
	add	x20, x20, #32
	stp	q1, q0, [x8]
	b.eq	.LBB25_2
.LBB25_17:                              //   Parent Loop BB25_4 Depth=1
                                        // =>  This Inner Loop Header: Depth=2
	mul	x8, x22, x23
	ldur	x9, [x29, #-64]
	cmp	x9, x8, lsl #1
	b.lo	.LBB25_15
// %bb.18:                              //   in Loop: Header=BB25_17 Depth=2
	ldp	x9, x10, [x29, #-56]
	ldur	x11, [x29, #-40]
	ldur	x12, [x29, #-24]
	and	x9, x9, x8
	lsr	x8, x8, x10
	add	x9, x11, x9, lsl #5
	add	x8, x12, x8, lsl #5
	ldp	q2, q1, [x9]
	ldr	q0, [x8]
	stp	q0, q2, [sp, #112]              // 32-byte Folded Spill
	ldr	q0, [x8, #16]
	stp	q1, q0, [sp, #64]               // 32-byte Folded Spill
	bl	__multf3
	stur	q0, [x29, #-112]                // 16-byte Folded Spill
	ldp	q1, q0, [sp, #112]              // 32-byte Folded Reload
	bl	__multf3
	ldur	q1, [x29, #-112]                // 16-byte Folded Reload
	bl	__subtf3
	stur	q0, [x29, #-112]                // 16-byte Folded Spill
	ldr	q0, [sp, #64]                   // 16-byte Folded Reload
	ldr	q1, [sp, #112]                  // 16-byte Folded Reload
	bl	__multf3
	str	q0, [sp, #112]                  // 16-byte Folded Spill
	ldr	q0, [sp, #128]                  // 16-byte Folded Reload
	ldr	q1, [sp, #80]                   // 16-byte Folded Reload
	bl	__multf3
	ldr	q1, [sp, #112]                  // 16-byte Folded Reload
	bl	__addtf3
	ldur	q1, [x29, #-112]                // 16-byte Folded Reload
	b	.LBB25_16
.LBB25_19:
	ldur	x8, [x29, #-24]
	cbz	x8, .LBB25_21
// %bb.20:
	ldur	x0, [x8, #-8]
	bl	free
.LBB25_21:
	ldur	x8, [x29, #-40]
	cbz	x8, .LBB25_23
// %bb.22:
	ldur	x0, [x8, #-8]
	bl	free
.LBB25_23:
	ldp	x20, x19, [sp, #336]            // 16-byte Folded Reload
	ldp	x22, x21, [sp, #320]            // 16-byte Folded Reload
	ldp	x24, x23, [sp, #304]            // 16-byte Folded Reload
	ldp	x26, x25, [sp, #288]            // 16-byte Folded Reload
	ldp	x28, x27, [sp, #272]            // 16-byte Folded Reload
	ldp	x29, x30, [sp, #256]            // 16-byte Folded Reload
	add	sp, sp, #352
	ret
.Lfunc_end25:
	.size	_ZN9pocketfft6detail5cfftpIeE12comp_twiddleEv, .Lfunc_end25-_ZN9pocketfft6detail5cfftpIeE12comp_twiddleEv
	.cfi_endproc
                                        // -- End function
	.section	.rodata.cst16,"aM",@progbits,16
	.p2align	4                               // -- Begin function _ZN9pocketfft6detail13sincos_2pibynIeEC2Em
.LCPI26_0:
	.xword	0x8469898cc51701b8              // fp128 0.785398163397448309615660845819875699
	.xword	0x3ffe921fb54442d1
.LCPI26_1:
	.xword	0x0000000000000000              // fp128 1
	.xword	0x3fff000000000000
.LCPI26_2:
	.xword	0x0000000000000000              // fp128 0
	.xword	0x0000000000000000
	.section	.text._ZN9pocketfft6detail13sincos_2pibynIeEC2Em,"axG",@progbits,_ZN9pocketfft6detail13sincos_2pibynIeEC2Em,comdat
	.weak	_ZN9pocketfft6detail13sincos_2pibynIeEC2Em
	.p2align	2
	.type	_ZN9pocketfft6detail13sincos_2pibynIeEC2Em,@function
_ZN9pocketfft6detail13sincos_2pibynIeEC2Em: // @_ZN9pocketfft6detail13sincos_2pibynIeEC2Em
.Lfunc_begin12:
	.cfi_startproc
	.cfi_personality 156, DW.ref.__gxx_personality_v0
	.cfi_lsda 28, .Lexception12
// %bb.0:
	sub	sp, sp, #128
	stp	x29, x30, [sp, #48]             // 16-byte Folded Spill
	add	x29, sp, #48
	str	x25, [sp, #64]                  // 8-byte Folded Spill
	stp	x24, x23, [sp, #80]             // 16-byte Folded Spill
	stp	x22, x21, [sp, #96]             // 16-byte Folded Spill
	stp	x20, x19, [sp, #112]            // 16-byte Folded Spill
	.cfi_def_cfa w29, 80
	.cfi_offset w19, -8
	.cfi_offset w20, -16
	.cfi_offset w21, -24
	.cfi_offset w22, -32
	.cfi_offset w23, -40
	.cfi_offset w24, -48
	.cfi_offset w25, -64
	.cfi_offset w30, -72
	.cfi_offset w29, -80
	movi	v0.2d, #0000000000000000
	mov	x19, x0
	mov	x22, x0
	str	x1, [x0]
	mov	x0, x1
	mov	x20, x1
	str	q0, [x22, #24]!
	bl	__floatunditf
	mov	v1.16b, v0.16b
	add	x8, x20, #2
	movi	v0.2d, #0000000000000000
	mov	x21, xzr
	lsr	x23, x8, #1
	mov	w8, #1
	stur	q0, [x19, #40]
.LBB26_1:                               // =>This Inner Loop Header: Depth=1
	add	x21, x21, #1
	lsl	x25, x8, x21
	lsl	x9, x25, x21
	cmp	x9, x23
	b.lo	.LBB26_1
// %bb.2:
	adrp	x8, .LCPI26_0
	ldr	q0, [x8, :lo12:.LCPI26_0]
	bl	__divtf3
	lsl	x8, x25, #5
	sub	x24, x25, #1
	add	x0, x8, #64
	stur	q0, [x29, #-16]                 // 16-byte Folded Spill
	stp	x24, x21, [x19, #8]
	bl	malloc
	cbz	x0, .LBB26_21
// %bb.3:
	adrp	x9, .LCPI26_1
	adrp	x10, .LCPI26_2
	add	x8, x0, #64
	and	x8, x8, #0xffffffffffffffc0
	ldr	q0, [x9, :lo12:.LCPI26_1]
	ldr	q1, [x10, :lo12:.LCPI26_2]
	stur	x0, [x8, #-8]
	stp	x8, x25, [x19, #24]
	stp	q1, q0, [sp]                    // 32-byte Folded Spill
	stp	q0, q1, [x8]
	cbz	x21, .LBB26_9
// %bb.4:
	mov	x24, xzr
	mov	w21, #1
.LBB26_5:                               // =>This Inner Loop Header: Depth=1
.Ltmp203:
	mov	x0, x21
	mov	x1, x20
	ldur	q0, [x29, #-16]                 // 16-byte Folded Reload
	bl	_ZN9pocketfft6detail13sincos_2pibynIeE4calcEmme
.Ltmp204:
// %bb.6:                               //   in Loop: Header=BB26_5 Depth=1
	ldr	x8, [x19, #24]
	add	x21, x21, #1
	add	x8, x8, x24
	add	x24, x24, #32
	stp	q0, q1, [x8, #32]
	ldr	x8, [x19, #32]
	cmp	x21, x8
	b.lo	.LBB26_5
// %bb.7:
	ldr	x24, [x19, #8]
	ldp	x8, x9, [x19, #40]
	add	x23, x24, x23
	add	x24, x24, #1
	udiv	x21, x23, x24
	cmp	x9, x21
	b.ne	.LBB26_10
.LBB26_8:
	ldp	q0, q1, [sp]                    // 32-byte Folded Reload
	cmp	x9, #2
	stp	q1, q0, [x8]
	b.hs	.LBB26_17
	b	.LBB26_20
.LBB26_9:
	mov	x9, xzr
	add	x23, x24, x23
	add	x24, x24, #1
	ldr	x8, [x19, #40]
	udiv	x21, x23, x24
	cmp	x9, x21
	b.eq	.LBB26_8
.LBB26_10:
	cbz	x8, .LBB26_12
// %bb.11:
	ldur	x0, [x8, #-8]
	bl	free
.LBB26_12:
	cmp	x24, x23
	b.ls	.LBB26_14
// %bb.13:
	mov	x8, xzr
	b	.LBB26_16
.LBB26_14:
	lsl	x8, x21, #5
	add	x0, x8, #64
	bl	malloc
	cbz	x0, .LBB26_23
// %bb.15:
	add	x8, x0, #64
	and	x8, x8, #0xffffffffffffffc0
	stur	x0, [x8, #-8]
.LBB26_16:
	mov	x9, x21
	stp	x8, x21, [x19, #40]
	ldp	q0, q1, [sp]                    // 32-byte Folded Reload
	cmp	x9, #2
	stp	q1, q0, [x8]
	b.lo	.LBB26_20
.LBB26_17:
	mov	x21, xzr
	mov	w23, #1
.LBB26_18:                              // =>This Inner Loop Header: Depth=1
	ldr	x8, [x19, #8]
	madd	x0, x23, x8, x23
.Ltmp208:
	mov	x1, x20
	ldur	q0, [x29, #-16]                 // 16-byte Folded Reload
	bl	_ZN9pocketfft6detail13sincos_2pibynIeE4calcEmme
.Ltmp209:
// %bb.19:                              //   in Loop: Header=BB26_18 Depth=1
	ldr	x8, [x19, #40]
	add	x23, x23, #1
	add	x8, x8, x21
	add	x21, x21, #32
	stp	q0, q1, [x8, #32]
	ldr	x8, [x19, #48]
	cmp	x23, x8
	b.lo	.LBB26_18
.LBB26_20:
	ldp	x20, x19, [sp, #112]            // 16-byte Folded Reload
	ldp	x22, x21, [sp, #96]             // 16-byte Folded Reload
	ldp	x24, x23, [sp, #80]             // 16-byte Folded Reload
	ldp	x29, x30, [sp, #48]             // 16-byte Folded Reload
	ldr	x25, [sp, #64]                  // 8-byte Folded Reload
	add	sp, sp, #128
	ret
.LBB26_21:
	mov	w0, #8
	bl	__cxa_allocate_exception
	adrp	x8, :got:_ZTVSt9bad_alloc
	ldr	x8, [x8, :got_lo12:_ZTVSt9bad_alloc]
	add	x8, x8, #16
	str	x8, [x0]
.Ltmp211:
	adrp	x1, :got:_ZTISt9bad_alloc
	adrp	x2, :got:_ZNSt9bad_allocD1Ev
	ldr	x1, [x1, :got_lo12:_ZTISt9bad_alloc]
	ldr	x2, [x2, :got_lo12:_ZNSt9bad_allocD1Ev]
	bl	__cxa_throw
.Ltmp212:
// %bb.22:
.LBB26_23:
	mov	w0, #8
	bl	__cxa_allocate_exception
	adrp	x8, :got:_ZTVSt9bad_alloc
	ldr	x8, [x8, :got_lo12:_ZTVSt9bad_alloc]
	add	x8, x8, #16
	str	x8, [x0]
.Ltmp206:
	adrp	x1, :got:_ZTISt9bad_alloc
	adrp	x2, :got:_ZNSt9bad_allocD1Ev
	ldr	x1, [x1, :got_lo12:_ZTISt9bad_alloc]
	ldr	x2, [x2, :got_lo12:_ZNSt9bad_allocD1Ev]
	bl	__cxa_throw
.Ltmp207:
// %bb.24:
.LBB26_25:
.Ltmp213:
	b	.LBB26_28
.LBB26_26:
.Ltmp210:
	b	.LBB26_28
.LBB26_27:
.Ltmp205:
.LBB26_28:
	mov	x20, x0
	ldr	x8, [x19, #40]
	cbnz	x8, .LBB26_31
// %bb.29:
	ldr	x8, [x22]
	cbnz	x8, .LBB26_32
.LBB26_30:
	mov	x0, x20
	bl	_Unwind_Resume
.LBB26_31:
	ldur	x0, [x8, #-8]
	bl	free
	ldr	x8, [x22]
	cbz	x8, .LBB26_30
.LBB26_32:
	ldur	x0, [x8, #-8]
	bl	free
	mov	x0, x20
	bl	_Unwind_Resume
.Lfunc_end26:
	.size	_ZN9pocketfft6detail13sincos_2pibynIeEC2Em, .Lfunc_end26-_ZN9pocketfft6detail13sincos_2pibynIeEC2Em
	.cfi_endproc
	.section	.gcc_except_table._ZN9pocketfft6detail13sincos_2pibynIeEC2Em,"aG",@progbits,_ZN9pocketfft6detail13sincos_2pibynIeEC2Em,comdat
	.p2align	2
GCC_except_table26:
.Lexception12:
	.byte	255                             // @LPStart Encoding = omit
	.byte	255                             // @TType Encoding = omit
	.byte	1                               // Call site Encoding = uleb128
	.uleb128 .Lcst_end12-.Lcst_begin12
.Lcst_begin12:
	.uleb128 .Lfunc_begin12-.Lfunc_begin12  // >> Call Site 1 <<
	.uleb128 .Ltmp203-.Lfunc_begin12        //   Call between .Lfunc_begin12 and .Ltmp203
	.byte	0                               //     has no landing pad
	.byte	0                               //   On action: cleanup
	.uleb128 .Ltmp203-.Lfunc_begin12        // >> Call Site 2 <<
	.uleb128 .Ltmp204-.Ltmp203              //   Call between .Ltmp203 and .Ltmp204
	.uleb128 .Ltmp205-.Lfunc_begin12        //     jumps to .Ltmp205
	.byte	0                               //   On action: cleanup
	.uleb128 .Ltmp208-.Lfunc_begin12        // >> Call Site 3 <<
	.uleb128 .Ltmp209-.Ltmp208              //   Call between .Ltmp208 and .Ltmp209
	.uleb128 .Ltmp210-.Lfunc_begin12        //     jumps to .Ltmp210
	.byte	0                               //   On action: cleanup
	.uleb128 .Ltmp209-.Lfunc_begin12        // >> Call Site 4 <<
	.uleb128 .Ltmp211-.Ltmp209              //   Call between .Ltmp209 and .Ltmp211
	.byte	0                               //     has no landing pad
	.byte	0                               //   On action: cleanup
	.uleb128 .Ltmp211-.Lfunc_begin12        // >> Call Site 5 <<
	.uleb128 .Ltmp212-.Ltmp211              //   Call between .Ltmp211 and .Ltmp212
	.uleb128 .Ltmp213-.Lfunc_begin12        //     jumps to .Ltmp213
	.byte	0                               //   On action: cleanup
	.uleb128 .Ltmp212-.Lfunc_begin12        // >> Call Site 6 <<
	.uleb128 .Ltmp206-.Ltmp212              //   Call between .Ltmp212 and .Ltmp206
	.byte	0                               //     has no landing pad
	.byte	0                               //   On action: cleanup
	.uleb128 .Ltmp206-.Lfunc_begin12        // >> Call Site 7 <<
	.uleb128 .Ltmp207-.Ltmp206              //   Call between .Ltmp206 and .Ltmp207
	.uleb128 .Ltmp213-.Lfunc_begin12        //     jumps to .Ltmp213
	.byte	0                               //   On action: cleanup
	.uleb128 .Ltmp207-.Lfunc_begin12        // >> Call Site 8 <<
	.uleb128 .Lfunc_end26-.Ltmp207          //   Call between .Ltmp207 and .Lfunc_end26
	.byte	0                               //     has no landing pad
	.byte	0                               //   On action: cleanup
.Lcst_end12:
	.p2align	2
                                        // -- End function
	.section	.text._ZN9pocketfft6detail13sincos_2pibynIeED2Ev,"axG",@progbits,_ZN9pocketfft6detail13sincos_2pibynIeED2Ev,comdat
	.weak	_ZN9pocketfft6detail13sincos_2pibynIeED2Ev // -- Begin function _ZN9pocketfft6detail13sincos_2pibynIeED2Ev
	.p2align	2
	.type	_ZN9pocketfft6detail13sincos_2pibynIeED2Ev,@function
_ZN9pocketfft6detail13sincos_2pibynIeED2Ev: // @_ZN9pocketfft6detail13sincos_2pibynIeED2Ev
	.cfi_startproc
// %bb.0:
	stp	x29, x30, [sp, #-32]!           // 16-byte Folded Spill
	str	x19, [sp, #16]                  // 8-byte Folded Spill
	mov	x29, sp
	.cfi_def_cfa w29, 32
	.cfi_offset w19, -16
	.cfi_offset w30, -24
	.cfi_offset w29, -32
	mov	x19, x0
	ldr	x8, [x0, #40]
	cbz	x8, .LBB27_2
// %bb.1:
	ldur	x0, [x8, #-8]
	bl	free
.LBB27_2:
	ldr	x8, [x19, #24]
	cbz	x8, .LBB27_4
// %bb.3:
	ldur	x0, [x8, #-8]
	ldr	x19, [sp, #16]                  // 8-byte Folded Reload
	ldp	x29, x30, [sp], #32             // 16-byte Folded Reload
	b	free
.LBB27_4:
	ldr	x19, [sp, #16]                  // 8-byte Folded Reload
	ldp	x29, x30, [sp], #32             // 16-byte Folded Reload
	ret
.Lfunc_end27:
	.size	_ZN9pocketfft6detail13sincos_2pibynIeED2Ev, .Lfunc_end27-_ZN9pocketfft6detail13sincos_2pibynIeED2Ev
	.cfi_endproc
                                        // -- End function
	.section	.text._ZN9pocketfft6detail13sincos_2pibynIeE4calcEmme,"axG",@progbits,_ZN9pocketfft6detail13sincos_2pibynIeE4calcEmme,comdat
	.weak	_ZN9pocketfft6detail13sincos_2pibynIeE4calcEmme // -- Begin function _ZN9pocketfft6detail13sincos_2pibynIeE4calcEmme
	.p2align	2
	.type	_ZN9pocketfft6detail13sincos_2pibynIeE4calcEmme,@function
_ZN9pocketfft6detail13sincos_2pibynIeE4calcEmme: // @_ZN9pocketfft6detail13sincos_2pibynIeE4calcEmme
	.cfi_startproc
// %bb.0:
	sub	sp, sp, #176
	stp	x29, x30, [sp, #160]            // 16-byte Folded Spill
	add	x29, sp, #160
	.cfi_def_cfa w29, 16
	.cfi_offset w30, -8
	.cfi_offset w29, -16
	mov	x8, x0
	lsl	x0, x0, #3
	cmp	x0, x1, lsl #2
	str	q0, [sp, #16]                   // 16-byte Folded Spill
	b.hs	.LBB28_4
// %bb.1:
	lsl	x9, x1, #1
	subs	x8, x0, x9
	b.hs	.LBB28_7
// %bb.2:
	cmp	x0, x1
	b.hs	.LBB28_11
// %bb.3:
	bl	__floatunditf
	ldr	q1, [sp, #16]                   // 16-byte Folded Reload
	bl	__multf3
	str	q0, [sp]                        // 16-byte Folded Spill
	bl	cosl
	b	.LBB28_15
.LBB28_4:
	sub	x8, x1, x8
	lsl	x9, x1, #1
	lsl	x0, x8, #3
	subs	x8, x0, x9
	b.hs	.LBB28_9
// %bb.5:
	cmp	x0, x1
	b.hs	.LBB28_13
// %bb.6:
	bl	__floatunditf
	ldr	q1, [sp, #16]                   // 16-byte Folded Reload
	bl	__multf3
	str	q0, [sp]                        // 16-byte Folded Spill
	bl	cosl
	str	q0, [sp, #16]                   // 16-byte Folded Spill
	ldr	q0, [sp]                        // 16-byte Folded Reload
	bl	sinl
	str	q0, [sp, #64]
	ldrb	w8, [sp, #79]
	eor	w8, w8, #0x80
	strb	w8, [sp, #79]
	ldr	q1, [sp, #64]
	ldp	x29, x30, [sp, #160]            // 16-byte Folded Reload
	ldr	q0, [sp, #16]                   // 16-byte Folded Reload
	add	sp, sp, #176
	ret
.LBB28_7:
	cmp	x8, x1
	b.hs	.LBB28_14
// %bb.8:
	mov	x0, x8
	bl	__floatunditf
	ldr	q1, [sp, #16]                   // 16-byte Folded Reload
	bl	__multf3
	str	q0, [sp]                        // 16-byte Folded Spill
	bl	sinl
	str	q0, [sp, #32]
	ldrb	w8, [sp, #47]
	eor	w8, w8, #0x80
	strb	w8, [sp, #47]
	ldr	q0, [sp, #32]
	b	.LBB28_12
.LBB28_9:
	cmp	x8, x1
	b.hs	.LBB28_16
// %bb.10:
	mov	x0, x8
	bl	__floatunditf
	ldr	q1, [sp, #16]                   // 16-byte Folded Reload
	bl	__multf3
	str	q0, [sp]                        // 16-byte Folded Spill
	bl	sinl
	stur	q0, [x29, #-64]
	ldurb	w8, [x29, #-49]
	eor	w8, w8, #0x80
	sturb	w8, [x29, #-49]
	ldur	q0, [x29, #-64]
	str	q0, [sp, #16]                   // 16-byte Folded Spill
	ldr	q0, [sp]                        // 16-byte Folded Reload
	bl	cosl
	stur	q0, [x29, #-48]
	ldurb	w8, [x29, #-33]
	eor	w8, w8, #0x80
	sturb	w8, [x29, #-33]
	ldur	q1, [x29, #-48]
	ldp	x29, x30, [sp, #160]            // 16-byte Folded Reload
	ldr	q0, [sp, #16]                   // 16-byte Folded Reload
	add	sp, sp, #176
	ret
.LBB28_11:
	sub	x0, x9, x0
	bl	__floatunditf
	ldr	q1, [sp, #16]                   // 16-byte Folded Reload
	bl	__multf3
	str	q0, [sp]                        // 16-byte Folded Spill
	bl	sinl
.LBB28_12:
	str	q0, [sp, #16]                   // 16-byte Folded Spill
	ldr	q0, [sp]                        // 16-byte Folded Reload
	bl	cosl
	mov	v1.16b, v0.16b
	ldp	x29, x30, [sp, #160]            // 16-byte Folded Reload
	ldr	q0, [sp, #16]                   // 16-byte Folded Reload
	add	sp, sp, #176
	ret
.LBB28_13:
	sub	x0, x9, x0
	bl	__floatunditf
	ldr	q1, [sp, #16]                   // 16-byte Folded Reload
	bl	__multf3
	str	q0, [sp]                        // 16-byte Folded Spill
	bl	sinl
	str	q0, [sp, #16]                   // 16-byte Folded Spill
	ldr	q0, [sp]                        // 16-byte Folded Reload
	bl	cosl
	str	q0, [sp, #80]
	ldrb	w8, [sp, #95]
	eor	w8, w8, #0x80
	strb	w8, [sp, #95]
	ldr	q1, [sp, #80]
	ldp	x29, x30, [sp, #160]            // 16-byte Folded Reload
	ldr	q0, [sp, #16]                   // 16-byte Folded Reload
	add	sp, sp, #176
	ret
.LBB28_14:
	sub	x0, x9, x8
	bl	__floatunditf
	ldr	q1, [sp, #16]                   // 16-byte Folded Reload
	bl	__multf3
	str	q0, [sp]                        // 16-byte Folded Spill
	bl	cosl
	str	q0, [sp, #48]
	ldrb	w8, [sp, #63]
	eor	w8, w8, #0x80
	strb	w8, [sp, #63]
	ldr	q0, [sp, #48]
.LBB28_15:
	str	q0, [sp, #16]                   // 16-byte Folded Spill
	ldr	q0, [sp]                        // 16-byte Folded Reload
	bl	sinl
	mov	v1.16b, v0.16b
	ldp	x29, x30, [sp, #160]            // 16-byte Folded Reload
	ldr	q0, [sp, #16]                   // 16-byte Folded Reload
	add	sp, sp, #176
	ret
.LBB28_16:
	sub	x0, x9, x8
	bl	__floatunditf
	ldr	q1, [sp, #16]                   // 16-byte Folded Reload
	bl	__multf3
	str	q0, [sp]                        // 16-byte Folded Spill
	bl	cosl
	stur	q0, [x29, #-32]
	ldurb	w8, [x29, #-17]
	eor	w8, w8, #0x80
	sturb	w8, [x29, #-17]
	ldur	q0, [x29, #-32]
	str	q0, [sp, #16]                   // 16-byte Folded Spill
	ldr	q0, [sp]                        // 16-byte Folded Reload
	bl	sinl
	stur	q0, [x29, #-16]
	ldurb	w8, [x29, #-1]
	eor	w8, w8, #0x80
	sturb	w8, [x29, #-1]
	ldur	q1, [x29, #-16]
	ldp	x29, x30, [sp, #160]            // 16-byte Folded Reload
	ldr	q0, [sp, #16]                   // 16-byte Folded Reload
	add	sp, sp, #176
	ret
.Lfunc_end28:
	.size	_ZN9pocketfft6detail13sincos_2pibynIeE4calcEmme, .Lfunc_end28-_ZN9pocketfft6detail13sincos_2pibynIeE4calcEmme
	.cfi_endproc
                                        // -- End function
	.section	.text._ZN9pocketfft6detail5cfftpIeED2Ev,"axG",@progbits,_ZN9pocketfft6detail5cfftpIeED2Ev,comdat
	.weak	_ZN9pocketfft6detail5cfftpIeED2Ev // -- Begin function _ZN9pocketfft6detail5cfftpIeED2Ev
	.p2align	2
	.type	_ZN9pocketfft6detail5cfftpIeED2Ev,@function
_ZN9pocketfft6detail5cfftpIeED2Ev:      // @_ZN9pocketfft6detail5cfftpIeED2Ev
	.cfi_startproc
// %bb.0:
	stp	x29, x30, [sp, #-32]!           // 16-byte Folded Spill
	str	x19, [sp, #16]                  // 8-byte Folded Spill
	mov	x29, sp
	.cfi_def_cfa w29, 32
	.cfi_offset w19, -16
	.cfi_offset w30, -24
	.cfi_offset w29, -32
	mov	x19, x0
	ldr	x0, [x0, #24]
	cbz	x0, .LBB29_2
// %bb.1:
	bl	_ZdlPv
.LBB29_2:
	ldr	x8, [x19, #8]
	cbz	x8, .LBB29_4
// %bb.3:
	ldur	x0, [x8, #-8]
	ldr	x19, [sp, #16]                  // 8-byte Folded Reload
	ldp	x29, x30, [sp], #32             // 16-byte Folded Reload
	b	free
.LBB29_4:
	ldr	x19, [sp, #16]                  // 8-byte Folded Reload
	ldp	x29, x30, [sp], #32             // 16-byte Folded Reload
	ret
.Lfunc_end29:
	.size	_ZN9pocketfft6detail5cfftpIeED2Ev, .Lfunc_end29-_ZN9pocketfft6detail5cfftpIeED2Ev
	.cfi_endproc
                                        // -- End function
	.section	.rodata.cst16,"aM",@progbits,16
	.p2align	4                               // -- Begin function _ZNK9pocketfft6detail5cfftpIeE8pass_allILb1ENS0_5cmplxIeEEEEvPT0_e
.LCPI30_0:
	.xword	0x0000000000000000              // fp128 1
	.xword	0x3fff000000000000
	.section	.text._ZNK9pocketfft6detail5cfftpIeE8pass_allILb1ENS0_5cmplxIeEEEEvPT0_e,"axG",@progbits,_ZNK9pocketfft6detail5cfftpIeE8pass_allILb1ENS0_5cmplxIeEEEEvPT0_e,comdat
	.weak	_ZNK9pocketfft6detail5cfftpIeE8pass_allILb1ENS0_5cmplxIeEEEEvPT0_e
	.p2align	2
	.type	_ZNK9pocketfft6detail5cfftpIeE8pass_allILb1ENS0_5cmplxIeEEEEvPT0_e,@function
_ZNK9pocketfft6detail5cfftpIeE8pass_allILb1ENS0_5cmplxIeEEEEvPT0_e: // @_ZNK9pocketfft6detail5cfftpIeE8pass_allILb1ENS0_5cmplxIeEEEEvPT0_e
.Lfunc_begin13:
	.cfi_startproc
	.cfi_personality 156, DW.ref.__gxx_personality_v0
	.cfi_lsda 28, .Lexception13
// %bb.0:
	sub	sp, sp, #144
	stp	x29, x30, [sp, #48]             // 16-byte Folded Spill
	add	x29, sp, #48
	stp	x28, x27, [sp, #64]             // 16-byte Folded Spill
	stp	x26, x25, [sp, #80]             // 16-byte Folded Spill
	stp	x24, x23, [sp, #96]             // 16-byte Folded Spill
	stp	x22, x21, [sp, #112]            // 16-byte Folded Spill
	stp	x20, x19, [sp, #128]            // 16-byte Folded Spill
	.cfi_def_cfa w29, 96
	.cfi_offset w19, -8
	.cfi_offset w20, -16
	.cfi_offset w21, -24
	.cfi_offset w22, -32
	.cfi_offset w23, -40
	.cfi_offset w24, -48
	.cfi_offset w25, -56
	.cfi_offset w26, -64
	.cfi_offset w27, -72
	.cfi_offset w28, -80
	.cfi_offset w30, -88
	.cfi_offset w29, -96
	mov	x19, x0
	ldr	x23, [x0]
	mov	x20, x1
	stur	q0, [x29, #-16]                 // 16-byte Folded Spill
	cbz	x23, .LBB30_3
// %bb.1:
	cmp	x23, #1
	b.ne	.LBB30_4
// %bb.2:
	mov	v1.16b, v0.16b
	ldr	q0, [x20]
	bl	__multf3
	ldr	q1, [x20, #16]
	str	q0, [x20]
	mov	v0.16b, v1.16b
	ldur	q1, [x29, #-16]                 // 16-byte Folded Reload
	bl	__multf3
	str	q0, [x20, #16]
	b	.LBB30_31
.LBB30_3:
	mov	x27, xzr
	ldp	x8, x9, [x19, #24]
	cmp	x9, x8
	b.ne	.LBB30_6
	b	.LBB30_23
.LBB30_4:
	lsl	x8, x23, #5
	add	x0, x8, #64
	bl	malloc
	cbz	x0, .LBB30_32
// %bb.5:
	add	x8, x0, #64
	and	x27, x8, #0xffffffffffffffc0
	stur	x0, [x27, #-8]
	ldp	x8, x9, [x19, #24]
	cmp	x9, x8
	b.eq	.LBB30_23
.LBB30_6:
	mov	x26, #-6148914691236517206
	str	x27, [sp, #8]                   // 8-byte Folded Spill
	mov	x22, x27
	adrp	x27, .LJTI30_0
	mov	x24, xzr
	mov	w25, #1
	movk	x26, #43691
	mov	w3, #1
	mov	x21, x20
	add	x27, x27, :lo12:.LJTI30_0
	ldr	x2, [x8, x24]
	mul	x28, x2, x3
	sub	x9, x2, #2
	cmp	x9, #9
	udiv	x1, x23, x28
	b.hi	.LBB30_12
.LBB30_7:
	adr	x10, .LBB30_8
	ldrb	w11, [x27, x9]
	add	x10, x10, x11, lsl #2
	br	x10
.LBB30_8:
	add	x8, x8, x24
	ldr	x5, [x8, #8]
.Ltmp222:
	mov	x0, x19
	mov	x2, x3
	mov	x3, x21
	mov	x4, x22
	bl	_ZNK9pocketfft6detail5cfftpIeE5pass2ILb1ENS0_5cmplxIeEEEEvmmPKT0_PS6_PKS5_
.Ltmp223:
	mov	x0, x21
	mov	x21, x22
	b	.LBB30_16
.LBB30_9:
	add	x8, x8, x24
	ldr	x5, [x8, #8]
.Ltmp220:
	mov	x0, x19
	mov	x2, x3
	mov	x3, x21
	mov	x4, x22
	bl	_ZNK9pocketfft6detail5cfftpIeE5pass3ILb1ENS0_5cmplxIeEEEEvmmPKT0_PS6_PKS5_
.Ltmp221:
	mov	x0, x21
	mov	x21, x22
	b	.LBB30_16
.LBB30_10:
	add	x8, x8, x24
	ldr	x5, [x8, #8]
.Ltmp226:
	mov	x0, x19
	mov	x2, x3
	mov	x3, x21
	mov	x4, x22
	bl	_ZNK9pocketfft6detail5cfftpIeE5pass4ILb1ENS0_5cmplxIeEEEEvmmPKT0_PS6_PKS5_
.Ltmp227:
	mov	x0, x21
	mov	x21, x22
	b	.LBB30_16
.LBB30_11:
	add	x8, x8, x24
	ldr	x5, [x8, #8]
.Ltmp218:
	mov	x0, x19
	mov	x2, x3
	mov	x3, x21
	mov	x4, x22
	bl	_ZNK9pocketfft6detail5cfftpIeE5pass5ILb1ENS0_5cmplxIeEEEEvmmPKT0_PS6_PKS5_
.Ltmp219:
	mov	x0, x21
	mov	x21, x22
	b	.LBB30_16
.LBB30_12:
	add	x8, x8, x24
	ldp	x6, x7, [x8, #8]
.Ltmp228:
	mov	x0, x19
	mov	x4, x21
	mov	x5, x22
	bl	_ZNK9pocketfft6detail5cfftpIeE5passgILb1ENS0_5cmplxIeEEEEvmmmPT0_S7_PKS5_S9_
.Ltmp229:
	mov	x0, x22
	b	.LBB30_16
.LBB30_13:
	add	x8, x8, x24
	ldr	x5, [x8, #8]
.Ltmp216:
	mov	x0, x19
	mov	x2, x3
	mov	x3, x21
	mov	x4, x22
	bl	_ZNK9pocketfft6detail5cfftpIeE5pass7ILb1ENS0_5cmplxIeEEEEvmmPKT0_PS6_PKS5_
.Ltmp217:
	mov	x0, x21
	mov	x21, x22
	b	.LBB30_16
.LBB30_14:
	add	x8, x8, x24
	ldr	x5, [x8, #8]
.Ltmp224:
	mov	x0, x19
	mov	x2, x3
	mov	x3, x21
	mov	x4, x22
	bl	_ZNK9pocketfft6detail5cfftpIeE5pass8ILb1ENS0_5cmplxIeEEEEvmmPKT0_PS6_PKS5_
.Ltmp225:
	mov	x0, x21
	mov	x21, x22
	b	.LBB30_16
.LBB30_15:
	add	x8, x8, x24
	ldr	x5, [x8, #8]
.Ltmp214:
	mov	x0, x19
	mov	x2, x3
	mov	x3, x21
	mov	x4, x22
	bl	_ZNK9pocketfft6detail5cfftpIeE6pass11ILb1ENS0_5cmplxIeEEEEvmmPKT0_PS6_PKS5_
.Ltmp215:
	mov	x0, x21
	mov	x21, x22
.LBB30_16:
	ldp	x8, x9, [x19, #24]
	sub	x9, x9, x8
	asr	x9, x9, #3
	mul	x9, x9, x26
	cmp	x25, x9
	b.hs	.LBB30_18
// %bb.17:
	ldr	x23, [x19]
	add	x25, x25, #1
	add	x24, x24, #24
	mov	x3, x28
	mov	x22, x0
	ldr	x2, [x8, x24]
	mul	x28, x2, x3
	sub	x9, x2, #2
	cmp	x9, #9
	udiv	x1, x23, x28
	b.ls	.LBB30_7
	b	.LBB30_12
.LBB30_18:
	ldr	x27, [sp, #8]                   // 8-byte Folded Reload
	cmp	x21, x20
	b.eq	.LBB30_23
// %bb.19:
	adrp	x8, .LCPI30_0
	ldur	q0, [x29, #-16]                 // 16-byte Folded Reload
	ldr	x22, [x19]
	ldr	q1, [x8, :lo12:.LCPI30_0]
	bl	__eqtf2
	cbz	w0, .LBB30_27
// %bb.20:
	cbz	x22, .LBB30_29
// %bb.21:
	mov	x21, xzr
	add	x20, x20, #16
	add	x22, x27, #16
.LBB30_22:                              // =>This Inner Loop Header: Depth=1
	ldur	q0, [x22, #-16]
	ldur	q1, [x29, #-16]                 // 16-byte Folded Reload
	bl	__multf3
	str	q0, [sp, #16]                   // 16-byte Folded Spill
	ldr	q0, [x22], #32
	ldur	q1, [x29, #-16]                 // 16-byte Folded Reload
	bl	__multf3
	ldr	q1, [sp, #16]                   // 16-byte Folded Reload
	add	x21, x21, #1
	stp	q1, q0, [x20, #-16]
	add	x20, x20, #32
	ldr	x8, [x19]
	cmp	x21, x8
	b.lo	.LBB30_22
	b	.LBB30_30
.LBB30_23:
	adrp	x8, .LCPI30_0
	ldur	q0, [x29, #-16]                 // 16-byte Folded Reload
	ldr	q1, [x8, :lo12:.LCPI30_0]
	bl	__eqtf2
	cbz	w0, .LBB30_29
// %bb.24:
	ldr	x19, [x19]
	cbz	x19, .LBB30_29
// %bb.25:
	add	x20, x20, #16
.LBB30_26:                              // =>This Inner Loop Header: Depth=1
	ldur	q0, [x20, #-16]
	ldur	q1, [x29, #-16]                 // 16-byte Folded Reload
	bl	__multf3
	ldr	q1, [x20]
	stur	q0, [x20, #-16]
	mov	v0.16b, v1.16b
	ldur	q1, [x29, #-16]                 // 16-byte Folded Reload
	bl	__multf3
	subs	x19, x19, #1
	str	q0, [x20], #32
	b.ne	.LBB30_26
	b	.LBB30_29
.LBB30_27:
	cbz	x22, .LBB30_29
// %bb.28:
	lsl	x2, x22, #5
	mov	x0, x20
	mov	x1, x21
	bl	memmove
.LBB30_29:
	cbz	x27, .LBB30_31
.LBB30_30:
	ldur	x0, [x27, #-8]
	ldp	x20, x19, [sp, #128]            // 16-byte Folded Reload
	ldp	x22, x21, [sp, #112]            // 16-byte Folded Reload
	ldp	x24, x23, [sp, #96]             // 16-byte Folded Reload
	ldp	x26, x25, [sp, #80]             // 16-byte Folded Reload
	ldp	x28, x27, [sp, #64]             // 16-byte Folded Reload
	ldp	x29, x30, [sp, #48]             // 16-byte Folded Reload
	add	sp, sp, #144
	b	free
.LBB30_31:
	ldp	x20, x19, [sp, #128]            // 16-byte Folded Reload
	ldp	x22, x21, [sp, #112]            // 16-byte Folded Reload
	ldp	x24, x23, [sp, #96]             // 16-byte Folded Reload
	ldp	x26, x25, [sp, #80]             // 16-byte Folded Reload
	ldp	x28, x27, [sp, #64]             // 16-byte Folded Reload
	ldp	x29, x30, [sp, #48]             // 16-byte Folded Reload
	add	sp, sp, #144
	ret
.LBB30_32:
	mov	w0, #8
	bl	__cxa_allocate_exception
	adrp	x8, :got:_ZTVSt9bad_alloc
	adrp	x1, :got:_ZTISt9bad_alloc
	adrp	x2, :got:_ZNSt9bad_allocD1Ev
	ldr	x8, [x8, :got_lo12:_ZTVSt9bad_alloc]
	add	x8, x8, #16
	str	x8, [x0]
	ldr	x1, [x1, :got_lo12:_ZTISt9bad_alloc]
	ldr	x2, [x2, :got_lo12:_ZNSt9bad_allocD1Ev]
	bl	__cxa_throw
.LBB30_33:
.Ltmp230:
	mov	x19, x0
	ldr	x8, [sp, #8]                    // 8-byte Folded Reload
	cbz	x8, .LBB30_35
// %bb.34:
	ldr	x8, [sp, #8]                    // 8-byte Folded Reload
	ldur	x0, [x8, #-8]
	bl	free
.LBB30_35:
	mov	x0, x19
	bl	_Unwind_Resume
.Lfunc_end30:
	.size	_ZNK9pocketfft6detail5cfftpIeE8pass_allILb1ENS0_5cmplxIeEEEEvPT0_e, .Lfunc_end30-_ZNK9pocketfft6detail5cfftpIeE8pass_allILb1ENS0_5cmplxIeEEEEvPT0_e
	.cfi_endproc
	.section	.rodata._ZNK9pocketfft6detail5cfftpIeE8pass_allILb1ENS0_5cmplxIeEEEEvPT0_e,"aG",@progbits,_ZNK9pocketfft6detail5cfftpIeE8pass_allILb1ENS0_5cmplxIeEEEEvPT0_e,comdat
.LJTI30_0:
	.byte	(.LBB30_8-.LBB30_8)>>2
	.byte	(.LBB30_9-.LBB30_8)>>2
	.byte	(.LBB30_10-.LBB30_8)>>2
	.byte	(.LBB30_11-.LBB30_8)>>2
	.byte	(.LBB30_12-.LBB30_8)>>2
	.byte	(.LBB30_13-.LBB30_8)>>2
	.byte	(.LBB30_14-.LBB30_8)>>2
	.byte	(.LBB30_12-.LBB30_8)>>2
	.byte	(.LBB30_12-.LBB30_8)>>2
	.byte	(.LBB30_15-.LBB30_8)>>2
	.section	.gcc_except_table._ZNK9pocketfft6detail5cfftpIeE8pass_allILb1ENS0_5cmplxIeEEEEvPT0_e,"aG",@progbits,_ZNK9pocketfft6detail5cfftpIeE8pass_allILb1ENS0_5cmplxIeEEEEvPT0_e,comdat
	.p2align	2
GCC_except_table30:
.Lexception13:
	.byte	255                             // @LPStart Encoding = omit
	.byte	255                             // @TType Encoding = omit
	.byte	1                               // Call site Encoding = uleb128
	.uleb128 .Lcst_end13-.Lcst_begin13
.Lcst_begin13:
	.uleb128 .Lfunc_begin13-.Lfunc_begin13  // >> Call Site 1 <<
	.uleb128 .Ltmp222-.Lfunc_begin13        //   Call between .Lfunc_begin13 and .Ltmp222
	.byte	0                               //     has no landing pad
	.byte	0                               //   On action: cleanup
	.uleb128 .Ltmp222-.Lfunc_begin13        // >> Call Site 2 <<
	.uleb128 .Ltmp215-.Ltmp222              //   Call between .Ltmp222 and .Ltmp215
	.uleb128 .Ltmp230-.Lfunc_begin13        //     jumps to .Ltmp230
	.byte	0                               //   On action: cleanup
	.uleb128 .Ltmp215-.Lfunc_begin13        // >> Call Site 3 <<
	.uleb128 .Lfunc_end30-.Ltmp215          //   Call between .Ltmp215 and .Lfunc_end30
	.byte	0                               //     has no landing pad
	.byte	0                               //   On action: cleanup
.Lcst_end13:
	.p2align	2
                                        // -- End function
	.section	.rodata.cst16,"aM",@progbits,16
	.p2align	4                               // -- Begin function _ZNK9pocketfft6detail5cfftpIeE8pass_allILb0ENS0_5cmplxIeEEEEvPT0_e
.LCPI31_0:
	.xword	0x0000000000000000              // fp128 1
	.xword	0x3fff000000000000
	.section	.text._ZNK9pocketfft6detail5cfftpIeE8pass_allILb0ENS0_5cmplxIeEEEEvPT0_e,"axG",@progbits,_ZNK9pocketfft6detail5cfftpIeE8pass_allILb0ENS0_5cmplxIeEEEEvPT0_e,comdat
	.weak	_ZNK9pocketfft6detail5cfftpIeE8pass_allILb0ENS0_5cmplxIeEEEEvPT0_e
	.p2align	2
	.type	_ZNK9pocketfft6detail5cfftpIeE8pass_allILb0ENS0_5cmplxIeEEEEvPT0_e,@function
_ZNK9pocketfft6detail5cfftpIeE8pass_allILb0ENS0_5cmplxIeEEEEvPT0_e: // @_ZNK9pocketfft6detail5cfftpIeE8pass_allILb0ENS0_5cmplxIeEEEEvPT0_e
.Lfunc_begin14:
	.cfi_startproc
	.cfi_personality 156, DW.ref.__gxx_personality_v0
	.cfi_lsda 28, .Lexception14
// %bb.0:
	sub	sp, sp, #144
	stp	x29, x30, [sp, #48]             // 16-byte Folded Spill
	add	x29, sp, #48
	stp	x28, x27, [sp, #64]             // 16-byte Folded Spill
	stp	x26, x25, [sp, #80]             // 16-byte Folded Spill
	stp	x24, x23, [sp, #96]             // 16-byte Folded Spill
	stp	x22, x21, [sp, #112]            // 16-byte Folded Spill
	stp	x20, x19, [sp, #128]            // 16-byte Folded Spill
	.cfi_def_cfa w29, 96
	.cfi_offset w19, -8
	.cfi_offset w20, -16
	.cfi_offset w21, -24
	.cfi_offset w22, -32
	.cfi_offset w23, -40
	.cfi_offset w24, -48
	.cfi_offset w25, -56
	.cfi_offset w26, -64
	.cfi_offset w27, -72
	.cfi_offset w28, -80
	.cfi_offset w30, -88
	.cfi_offset w29, -96
	mov	x19, x0
	ldr	x23, [x0]
	mov	x20, x1
	stur	q0, [x29, #-16]                 // 16-byte Folded Spill
	cbz	x23, .LBB31_3
// %bb.1:
	cmp	x23, #1
	b.ne	.LBB31_4
// %bb.2:
	mov	v1.16b, v0.16b
	ldr	q0, [x20]
	bl	__multf3
	ldr	q1, [x20, #16]
	str	q0, [x20]
	mov	v0.16b, v1.16b
	ldur	q1, [x29, #-16]                 // 16-byte Folded Reload
	bl	__multf3
	str	q0, [x20, #16]
	b	.LBB31_31
.LBB31_3:
	mov	x27, xzr
	ldp	x8, x9, [x19, #24]
	cmp	x9, x8
	b.ne	.LBB31_6
	b	.LBB31_23
.LBB31_4:
	lsl	x8, x23, #5
	add	x0, x8, #64
	bl	malloc
	cbz	x0, .LBB31_32
// %bb.5:
	add	x8, x0, #64
	and	x27, x8, #0xffffffffffffffc0
	stur	x0, [x27, #-8]
	ldp	x8, x9, [x19, #24]
	cmp	x9, x8
	b.eq	.LBB31_23
.LBB31_6:
	mov	x26, #-6148914691236517206
	str	x27, [sp, #8]                   // 8-byte Folded Spill
	mov	x22, x27
	adrp	x27, .LJTI31_0
	mov	x24, xzr
	mov	w25, #1
	movk	x26, #43691
	mov	w3, #1
	mov	x21, x20
	add	x27, x27, :lo12:.LJTI31_0
	ldr	x2, [x8, x24]
	mul	x28, x2, x3
	sub	x9, x2, #2
	cmp	x9, #9
	udiv	x1, x23, x28
	b.hi	.LBB31_12
.LBB31_7:
	adr	x10, .LBB31_8
	ldrb	w11, [x27, x9]
	add	x10, x10, x11, lsl #2
	br	x10
.LBB31_8:
	add	x8, x8, x24
	ldr	x5, [x8, #8]
.Ltmp239:
	mov	x0, x19
	mov	x2, x3
	mov	x3, x21
	mov	x4, x22
	bl	_ZNK9pocketfft6detail5cfftpIeE5pass2ILb0ENS0_5cmplxIeEEEEvmmPKT0_PS6_PKS5_
.Ltmp240:
	mov	x0, x21
	mov	x21, x22
	b	.LBB31_16
.LBB31_9:
	add	x8, x8, x24
	ldr	x5, [x8, #8]
.Ltmp237:
	mov	x0, x19
	mov	x2, x3
	mov	x3, x21
	mov	x4, x22
	bl	_ZNK9pocketfft6detail5cfftpIeE5pass3ILb0ENS0_5cmplxIeEEEEvmmPKT0_PS6_PKS5_
.Ltmp238:
	mov	x0, x21
	mov	x21, x22
	b	.LBB31_16
.LBB31_10:
	add	x8, x8, x24
	ldr	x5, [x8, #8]
.Ltmp243:
	mov	x0, x19
	mov	x2, x3
	mov	x3, x21
	mov	x4, x22
	bl	_ZNK9pocketfft6detail5cfftpIeE5pass4ILb0ENS0_5cmplxIeEEEEvmmPKT0_PS6_PKS5_
.Ltmp244:
	mov	x0, x21
	mov	x21, x22
	b	.LBB31_16
.LBB31_11:
	add	x8, x8, x24
	ldr	x5, [x8, #8]
.Ltmp235:
	mov	x0, x19
	mov	x2, x3
	mov	x3, x21
	mov	x4, x22
	bl	_ZNK9pocketfft6detail5cfftpIeE5pass5ILb0ENS0_5cmplxIeEEEEvmmPKT0_PS6_PKS5_
.Ltmp236:
	mov	x0, x21
	mov	x21, x22
	b	.LBB31_16
.LBB31_12:
	add	x8, x8, x24
	ldp	x6, x7, [x8, #8]
.Ltmp245:
	mov	x0, x19
	mov	x4, x21
	mov	x5, x22
	bl	_ZNK9pocketfft6detail5cfftpIeE5passgILb0ENS0_5cmplxIeEEEEvmmmPT0_S7_PKS5_S9_
.Ltmp246:
	mov	x0, x22
	b	.LBB31_16
.LBB31_13:
	add	x8, x8, x24
	ldr	x5, [x8, #8]
.Ltmp233:
	mov	x0, x19
	mov	x2, x3
	mov	x3, x21
	mov	x4, x22
	bl	_ZNK9pocketfft6detail5cfftpIeE5pass7ILb0ENS0_5cmplxIeEEEEvmmPKT0_PS6_PKS5_
.Ltmp234:
	mov	x0, x21
	mov	x21, x22
	b	.LBB31_16
.LBB31_14:
	add	x8, x8, x24
	ldr	x5, [x8, #8]
.Ltmp241:
	mov	x0, x19
	mov	x2, x3
	mov	x3, x21
	mov	x4, x22
	bl	_ZNK9pocketfft6detail5cfftpIeE5pass8ILb0ENS0_5cmplxIeEEEEvmmPKT0_PS6_PKS5_
.Ltmp242:
	mov	x0, x21
	mov	x21, x22
	b	.LBB31_16
.LBB31_15:
	add	x8, x8, x24
	ldr	x5, [x8, #8]
.Ltmp231:
	mov	x0, x19
	mov	x2, x3
	mov	x3, x21
	mov	x4, x22
	bl	_ZNK9pocketfft6detail5cfftpIeE6pass11ILb0ENS0_5cmplxIeEEEEvmmPKT0_PS6_PKS5_
.Ltmp232:
	mov	x0, x21
	mov	x21, x22
.LBB31_16:
	ldp	x8, x9, [x19, #24]
	sub	x9, x9, x8
	asr	x9, x9, #3
	mul	x9, x9, x26
	cmp	x25, x9
	b.hs	.LBB31_18
// %bb.17:
	ldr	x23, [x19]
	add	x25, x25, #1
	add	x24, x24, #24
	mov	x3, x28
	mov	x22, x0
	ldr	x2, [x8, x24]
	mul	x28, x2, x3
	sub	x9, x2, #2
	cmp	x9, #9
	udiv	x1, x23, x28
	b.ls	.LBB31_7
	b	.LBB31_12
.LBB31_18:
	ldr	x27, [sp, #8]                   // 8-byte Folded Reload
	cmp	x21, x20
	b.eq	.LBB31_23
// %bb.19:
	adrp	x8, .LCPI31_0
	ldur	q0, [x29, #-16]                 // 16-byte Folded Reload
	ldr	x22, [x19]
	ldr	q1, [x8, :lo12:.LCPI31_0]
	bl	__eqtf2
	cbz	w0, .LBB31_27
// %bb.20:
	cbz	x22, .LBB31_29
// %bb.21:
	mov	x21, xzr
	add	x20, x20, #16
	add	x22, x27, #16
.LBB31_22:                              // =>This Inner Loop Header: Depth=1
	ldur	q0, [x22, #-16]
	ldur	q1, [x29, #-16]                 // 16-byte Folded Reload
	bl	__multf3
	str	q0, [sp, #16]                   // 16-byte Folded Spill
	ldr	q0, [x22], #32
	ldur	q1, [x29, #-16]                 // 16-byte Folded Reload
	bl	__multf3
	ldr	q1, [sp, #16]                   // 16-byte Folded Reload
	add	x21, x21, #1
	stp	q1, q0, [x20, #-16]
	add	x20, x20, #32
	ldr	x8, [x19]
	cmp	x21, x8
	b.lo	.LBB31_22
	b	.LBB31_30
.LBB31_23:
	adrp	x8, .LCPI31_0
	ldur	q0, [x29, #-16]                 // 16-byte Folded Reload
	ldr	q1, [x8, :lo12:.LCPI31_0]
	bl	__eqtf2
	cbz	w0, .LBB31_29
// %bb.24:
	ldr	x19, [x19]
	cbz	x19, .LBB31_29
// %bb.25:
	add	x20, x20, #16
.LBB31_26:                              // =>This Inner Loop Header: Depth=1
	ldur	q0, [x20, #-16]
	ldur	q1, [x29, #-16]                 // 16-byte Folded Reload
	bl	__multf3
	ldr	q1, [x20]
	stur	q0, [x20, #-16]
	mov	v0.16b, v1.16b
	ldur	q1, [x29, #-16]                 // 16-byte Folded Reload
	bl	__multf3
	subs	x19, x19, #1
	str	q0, [x20], #32
	b.ne	.LBB31_26
	b	.LBB31_29
.LBB31_27:
	cbz	x22, .LBB31_29
// %bb.28:
	lsl	x2, x22, #5
	mov	x0, x20
	mov	x1, x21
	bl	memmove
.LBB31_29:
	cbz	x27, .LBB31_31
.LBB31_30:
	ldur	x0, [x27, #-8]
	ldp	x20, x19, [sp, #128]            // 16-byte Folded Reload
	ldp	x22, x21, [sp, #112]            // 16-byte Folded Reload
	ldp	x24, x23, [sp, #96]             // 16-byte Folded Reload
	ldp	x26, x25, [sp, #80]             // 16-byte Folded Reload
	ldp	x28, x27, [sp, #64]             // 16-byte Folded Reload
	ldp	x29, x30, [sp, #48]             // 16-byte Folded Reload
	add	sp, sp, #144
	b	free
.LBB31_31:
	ldp	x20, x19, [sp, #128]            // 16-byte Folded Reload
	ldp	x22, x21, [sp, #112]            // 16-byte Folded Reload
	ldp	x24, x23, [sp, #96]             // 16-byte Folded Reload
	ldp	x26, x25, [sp, #80]             // 16-byte Folded Reload
	ldp	x28, x27, [sp, #64]             // 16-byte Folded Reload
	ldp	x29, x30, [sp, #48]             // 16-byte Folded Reload
	add	sp, sp, #144
	ret
.LBB31_32:
	mov	w0, #8
	bl	__cxa_allocate_exception
	adrp	x8, :got:_ZTVSt9bad_alloc
	adrp	x1, :got:_ZTISt9bad_alloc
	adrp	x2, :got:_ZNSt9bad_allocD1Ev
	ldr	x8, [x8, :got_lo12:_ZTVSt9bad_alloc]
	add	x8, x8, #16
	str	x8, [x0]
	ldr	x1, [x1, :got_lo12:_ZTISt9bad_alloc]
	ldr	x2, [x2, :got_lo12:_ZNSt9bad_allocD1Ev]
	bl	__cxa_throw
.LBB31_33:
.Ltmp247:
	mov	x19, x0
	ldr	x8, [sp, #8]                    // 8-byte Folded Reload
	cbz	x8, .LBB31_35
// %bb.34:
	ldr	x8, [sp, #8]                    // 8-byte Folded Reload
	ldur	x0, [x8, #-8]
	bl	free
.LBB31_35:
	mov	x0, x19
	bl	_Unwind_Resume
.Lfunc_end31:
	.size	_ZNK9pocketfft6detail5cfftpIeE8pass_allILb0ENS0_5cmplxIeEEEEvPT0_e, .Lfunc_end31-_ZNK9pocketfft6detail5cfftpIeE8pass_allILb0ENS0_5cmplxIeEEEEvPT0_e
	.cfi_endproc
	.section	.rodata._ZNK9pocketfft6detail5cfftpIeE8pass_allILb0ENS0_5cmplxIeEEEEvPT0_e,"aG",@progbits,_ZNK9pocketfft6detail5cfftpIeE8pass_allILb0ENS0_5cmplxIeEEEEvPT0_e,comdat
.LJTI31_0:
	.byte	(.LBB31_8-.LBB31_8)>>2
	.byte	(.LBB31_9-.LBB31_8)>>2
	.byte	(.LBB31_10-.LBB31_8)>>2
	.byte	(.LBB31_11-.LBB31_8)>>2
	.byte	(.LBB31_12-.LBB31_8)>>2
	.byte	(.LBB31_13-.LBB31_8)>>2
	.byte	(.LBB31_14-.LBB31_8)>>2
	.byte	(.LBB31_12-.LBB31_8)>>2
	.byte	(.LBB31_12-.LBB31_8)>>2
	.byte	(.LBB31_15-.LBB31_8)>>2
	.section	.gcc_except_table._ZNK9pocketfft6detail5cfftpIeE8pass_allILb0ENS0_5cmplxIeEEEEvPT0_e,"aG",@progbits,_ZNK9pocketfft6detail5cfftpIeE8pass_allILb0ENS0_5cmplxIeEEEEvPT0_e,comdat
	.p2align	2
GCC_except_table31:
.Lexception14:
	.byte	255                             // @LPStart Encoding = omit
	.byte	255                             // @TType Encoding = omit
	.byte	1                               // Call site Encoding = uleb128
	.uleb128 .Lcst_end14-.Lcst_begin14
.Lcst_begin14:
	.uleb128 .Lfunc_begin14-.Lfunc_begin14  // >> Call Site 1 <<
	.uleb128 .Ltmp239-.Lfunc_begin14        //   Call between .Lfunc_begin14 and .Ltmp239
	.byte	0                               //     has no landing pad
	.byte	0                               //   On action: cleanup
	.uleb128 .Ltmp239-.Lfunc_begin14        // >> Call Site 2 <<
	.uleb128 .Ltmp232-.Ltmp239              //   Call between .Ltmp239 and .Ltmp232
	.uleb128 .Ltmp247-.Lfunc_begin14        //     jumps to .Ltmp247
	.byte	0                               //   On action: cleanup
	.uleb128 .Ltmp232-.Lfunc_begin14        // >> Call Site 3 <<
	.uleb128 .Lfunc_end31-.Ltmp232          //   Call between .Ltmp232 and .Lfunc_end31
	.byte	0                               //     has no landing pad
	.byte	0                               //   On action: cleanup
.Lcst_end14:
	.p2align	2
                                        // -- End function
	.section	.text._ZNK9pocketfft6detail5cfftpIeE5pass4ILb1ENS0_5cmplxIeEEEEvmmPKT0_PS6_PKS5_,"axG",@progbits,_ZNK9pocketfft6detail5cfftpIeE5pass4ILb1ENS0_5cmplxIeEEEEvmmPKT0_PS6_PKS5_,comdat
	.weak	_ZNK9pocketfft6detail5cfftpIeE5pass4ILb1ENS0_5cmplxIeEEEEvmmPKT0_PS6_PKS5_ // -- Begin function _ZNK9pocketfft6detail5cfftpIeE5pass4ILb1ENS0_5cmplxIeEEEEvmmPKT0_PS6_PKS5_
	.p2align	2
	.type	_ZNK9pocketfft6detail5cfftpIeE5pass4ILb1ENS0_5cmplxIeEEEEvmmPKT0_PS6_PKS5_,@function
_ZNK9pocketfft6detail5cfftpIeE5pass4ILb1ENS0_5cmplxIeEEEEvmmPKT0_PS6_PKS5_: // @_ZNK9pocketfft6detail5cfftpIeE5pass4ILb1ENS0_5cmplxIeEEEEvmmPKT0_PS6_PKS5_
	.cfi_startproc
// %bb.0:
	sub	sp, sp, #432
	stp	x29, x30, [sp, #336]            // 16-byte Folded Spill
	add	x29, sp, #336
	stp	x28, x27, [sp, #352]            // 16-byte Folded Spill
	stp	x26, x25, [sp, #368]            // 16-byte Folded Spill
	stp	x24, x23, [sp, #384]            // 16-byte Folded Spill
	stp	x22, x21, [sp, #400]            // 16-byte Folded Spill
	stp	x20, x19, [sp, #416]            // 16-byte Folded Spill
	.cfi_def_cfa w29, 96
	.cfi_offset w19, -8
	.cfi_offset w20, -16
	.cfi_offset w21, -24
	.cfi_offset w22, -32
	.cfi_offset w23, -40
	.cfi_offset w24, -48
	.cfi_offset w25, -56
	.cfi_offset w26, -64
	.cfi_offset w27, -72
	.cfi_offset w28, -80
	.cfi_offset w30, -88
	.cfi_offset w29, -96
	mov	x25, x2
	subs	x8, x1, #1
	stp	x4, x3, [sp, #72]               // 16-byte Folded Spill
	b.ne	.LBB32_4
// %bb.1:
	cbz	x25, .LBB32_10
// %bb.2:
	add	x8, x25, x25, lsl #1
	lsl	x21, x8, #5
	ldp	x9, x8, [sp, #72]               // 16-byte Folded Reload
	lsl	x20, x25, #5
	lsl	x22, x25, #6
	add	x19, x9, #16
	add	x23, x8, #64
.LBB32_3:                               // =>This Inner Loop Header: Depth=1
	ldp	q2, q0, [x23, #-64]
	stp	q0, q2, [x29, #-48]             // 32-byte Folded Spill
	ldp	q1, q0, [x23]
	stp	q1, q0, [x29, #-112]            // 32-byte Folded Spill
	mov	v0.16b, v2.16b
	bl	__addtf3
	stur	q0, [x29, #-64]                 // 16-byte Folded Spill
	ldur	q0, [x29, #-48]                 // 16-byte Folded Reload
	ldur	q1, [x29, #-96]                 // 16-byte Folded Reload
	bl	__addtf3
	stur	q0, [x29, #-80]                 // 16-byte Folded Spill
	ldur	q0, [x29, #-32]                 // 16-byte Folded Reload
	ldur	q1, [x29, #-112]                // 16-byte Folded Reload
	bl	__subtf3
	stur	q0, [x29, #-32]                 // 16-byte Folded Spill
	ldur	q0, [x29, #-48]                 // 16-byte Folded Reload
	ldur	q1, [x29, #-96]                 // 16-byte Folded Reload
	bl	__subtf3
	stur	q0, [x29, #-48]                 // 16-byte Folded Spill
	ldp	q2, q0, [x23, #-32]
	stp	q0, q2, [x29, #-112]            // 32-byte Folded Spill
	ldp	q1, q0, [x23, #32]
	str	q1, [sp, #160]                  // 16-byte Folded Spill
	stur	q0, [x29, #-160]                // 16-byte Folded Spill
	mov	v0.16b, v2.16b
	bl	__addtf3
	stur	q0, [x29, #-128]                // 16-byte Folded Spill
	ldur	q0, [x29, #-112]                // 16-byte Folded Reload
	ldur	q1, [x29, #-160]                // 16-byte Folded Reload
	bl	__addtf3
	stur	q0, [x29, #-144]                // 16-byte Folded Spill
	ldur	q0, [x29, #-96]                 // 16-byte Folded Reload
	ldr	q1, [sp, #160]                  // 16-byte Folded Reload
	bl	__subtf3
	stur	q0, [x29, #-96]                 // 16-byte Folded Spill
	ldur	q0, [x29, #-112]                // 16-byte Folded Reload
	ldur	q1, [x29, #-160]                // 16-byte Folded Reload
	bl	__subtf3
	stur	q0, [x29, #-112]                // 16-byte Folded Spill
	ldur	q0, [x29, #-64]                 // 16-byte Folded Reload
	ldur	q1, [x29, #-128]                // 16-byte Folded Reload
	bl	__addtf3
	stur	q0, [x29, #-160]                // 16-byte Folded Spill
	ldur	q0, [x29, #-80]                 // 16-byte Folded Reload
	ldur	q1, [x29, #-144]                // 16-byte Folded Reload
	bl	__addtf3
	ldur	q1, [x29, #-160]                // 16-byte Folded Reload
	stp	q1, q0, [x19, #-16]
	ldur	q0, [x29, #-64]                 // 16-byte Folded Reload
	ldur	q1, [x29, #-128]                // 16-byte Folded Reload
	bl	__subtf3
	stur	q0, [x29, #-64]                 // 16-byte Folded Spill
	ldur	q0, [x29, #-80]                 // 16-byte Folded Reload
	ldur	q1, [x29, #-144]                // 16-byte Folded Reload
	bl	__subtf3
	add	x8, x19, x22
	ldur	q1, [x29, #-64]                 // 16-byte Folded Reload
	stp	q1, q0, [x8, #-16]
	ldur	q0, [x29, #-32]                 // 16-byte Folded Reload
	ldur	q1, [x29, #-112]                // 16-byte Folded Reload
	bl	__addtf3
	stur	q0, [x29, #-64]                 // 16-byte Folded Spill
	ldur	q0, [x29, #-48]                 // 16-byte Folded Reload
	ldur	q1, [x29, #-96]                 // 16-byte Folded Reload
	bl	__subtf3
	add	x8, x19, x20
	ldur	q1, [x29, #-64]                 // 16-byte Folded Reload
	stp	q1, q0, [x8, #-16]
	ldur	q0, [x29, #-32]                 // 16-byte Folded Reload
	ldur	q1, [x29, #-112]                // 16-byte Folded Reload
	bl	__subtf3
	stur	q0, [x29, #-32]                 // 16-byte Folded Spill
	ldur	q0, [x29, #-48]                 // 16-byte Folded Reload
	ldur	q1, [x29, #-96]                 // 16-byte Folded Reload
	bl	__addtf3
	add	x8, x19, x21
	add	x19, x19, #32
	subs	x25, x25, #1
	add	x23, x23, #128
	ldur	q1, [x29, #-32]                 // 16-byte Folded Reload
	stp	q1, q0, [x8, #-16]
	b.ne	.LBB32_3
	b	.LBB32_10
.LBB32_4:
	str	x8, [sp]                        // 8-byte Folded Spill
	str	x1, [sp, #64]                   // 8-byte Folded Spill
	cbz	x25, .LBB32_10
// %bb.5:
	ldp	x11, x23, [sp, #64]             // 16-byte Folded Reload
	lsl	x12, x25, #1
	mov	w9, #96
	ldr	x10, [sp, #80]                  // 8-byte Folded Reload
	mov	x28, x5
	mov	x27, xzr
	stp	x5, x25, [sp, #48]              // 16-byte Folded Spill
	mul	x8, x25, x11
	lsl	x24, x11, #5
	add	x21, x10, #32
	lsl	x10, x11, #7
	mov	x11, x5
	madd	x20, x8, x9, x23
	ldr	x9, [sp]                        // 8-byte Folded Reload
	stp	x10, x12, [sp, #32]             // 16-byte Folded Spill
	add	x10, x12, x25
	add	x19, x23, x8, lsl #6
	add	x8, x23, x8, lsl #5
	str	x10, [sp, #24]                  // 8-byte Folded Spill
	add	x10, x28, x9, lsl #6
	add	x9, x28, x9, lsl #5
	stp	x9, x10, [sp, #8]               // 16-byte Folded Spill
	b	.LBB32_7
.LBB32_6:                               //   in Loop: Header=BB32_7 Depth=1
	ldr	x8, [sp, #32]                   // 8-byte Folded Reload
	add	x20, x20, x24
	add	x23, x23, x24
	ldr	x25, [sp, #56]                  // 8-byte Folded Reload
	add	x19, x19, x24
	add	x21, x21, x8
	ldp	x27, x8, [sp, #96]              // 16-byte Folded Reload
	add	x27, x27, #1
	cmp	x27, x25
	add	x8, x8, x24
	b.eq	.LBB32_10
.LBB32_7:                               // =>This Loop Header: Depth=1
                                        //     Child Loop BB32_9 Depth 2
	str	x21, [sp, #88]                  // 8-byte Folded Spill
	ldr	x21, [sp, #64]                  // 8-byte Folded Reload
	str	x8, [sp, #104]                  // 8-byte Folded Spill
	lsl	x8, x27, #2
	mov	w9, #2
	ldr	x22, [sp, #80]                  // 8-byte Folded Reload
	mul	x8, x8, x21
	bfi	x9, x27, #2, #62
	mul	x9, x9, x21
	add	x8, x22, x8, lsl #5
	add	x9, x22, x9, lsl #5
	ldp	q2, q0, [x8]
	ldr	q1, [x9]
	stp	q0, q1, [x29, #-48]             // 32-byte Folded Spill
	ldr	q0, [x9, #16]
	stp	q2, q0, [x29, #-112]            // 32-byte Folded Spill
	mov	v0.16b, v2.16b
	bl	__addtf3
	stur	q0, [x29, #-64]                 // 16-byte Folded Spill
	ldur	q0, [x29, #-48]                 // 16-byte Folded Reload
	ldur	q1, [x29, #-96]                 // 16-byte Folded Reload
	bl	__addtf3
	stur	q0, [x29, #-80]                 // 16-byte Folded Spill
	ldur	q0, [x29, #-112]                // 16-byte Folded Reload
	ldur	q1, [x29, #-32]                 // 16-byte Folded Reload
	bl	__subtf3
	stur	q0, [x29, #-32]                 // 16-byte Folded Spill
	ldur	q0, [x29, #-48]                 // 16-byte Folded Reload
	ldur	q1, [x29, #-96]                 // 16-byte Folded Reload
	bl	__subtf3
	mov	w8, #1
	mov	w9, #3
	bfi	x8, x27, #2, #62
	bfi	x9, x27, #2, #62
	stur	q0, [x29, #-48]                 // 16-byte Folded Spill
	mul	x8, x8, x21
	mul	x9, x9, x21
	add	x8, x22, x8, lsl #5
	add	x9, x22, x9, lsl #5
	ldp	q2, q0, [x8]
	str	q2, [sp, #160]                  // 16-byte Folded Spill
	ldr	q1, [x9]
	stp	q0, q1, [x29, #-112]            // 32-byte Folded Spill
	ldr	q0, [x9, #16]
	stur	q0, [x29, #-160]                // 16-byte Folded Spill
	mov	v0.16b, v2.16b
	bl	__addtf3
	stur	q0, [x29, #-128]                // 16-byte Folded Spill
	ldur	q0, [x29, #-112]                // 16-byte Folded Reload
	ldur	q1, [x29, #-160]                // 16-byte Folded Reload
	bl	__addtf3
	stur	q0, [x29, #-144]                // 16-byte Folded Spill
	ldr	q0, [sp, #160]                  // 16-byte Folded Reload
	ldur	q1, [x29, #-96]                 // 16-byte Folded Reload
	bl	__subtf3
	stur	q0, [x29, #-96]                 // 16-byte Folded Spill
	ldur	q0, [x29, #-112]                // 16-byte Folded Reload
	ldur	q1, [x29, #-160]                // 16-byte Folded Reload
	bl	__subtf3
	ldr	x8, [sp, #40]                   // 8-byte Folded Reload
	stur	q0, [x29, #-112]                // 16-byte Folded Spill
	ldur	q0, [x29, #-64]                 // 16-byte Folded Reload
	mul	x22, x27, x21
	ldur	q1, [x29, #-128]                // 16-byte Folded Reload
	add	x8, x27, x8
	mul	x28, x8, x21
	bl	__addtf3
	stur	q0, [x29, #-160]                // 16-byte Folded Spill
	ldur	q0, [x29, #-80]                 // 16-byte Folded Reload
	ldur	q1, [x29, #-144]                // 16-byte Folded Reload
	bl	__addtf3
	ldr	x26, [sp, #72]                  // 8-byte Folded Reload
	ldur	q1, [x29, #-160]                // 16-byte Folded Reload
	add	x8, x26, x22, lsl #5
	stp	q1, q0, [x8]
	ldur	q0, [x29, #-64]                 // 16-byte Folded Reload
	ldur	q1, [x29, #-128]                // 16-byte Folded Reload
	bl	__subtf3
	stur	q0, [x29, #-64]                 // 16-byte Folded Spill
	ldur	q0, [x29, #-80]                 // 16-byte Folded Reload
	ldur	q1, [x29, #-144]                // 16-byte Folded Reload
	bl	__subtf3
	add	x10, x26, x28, lsl #5
	ldur	q1, [x29, #-64]                 // 16-byte Folded Reload
	ldr	x9, [sp, #24]                   // 8-byte Folded Reload
	add	x8, x27, x25
	str	x27, [sp, #96]                  // 8-byte Folded Spill
	stp	q1, q0, [x10]
	ldur	q0, [x29, #-32]                 // 16-byte Folded Reload
	ldur	q1, [x29, #-112]                // 16-byte Folded Reload
	add	x9, x27, x9
	mul	x22, x8, x21
	mul	x25, x9, x21
	bl	__addtf3
	stur	q0, [x29, #-64]                 // 16-byte Folded Spill
	ldur	q0, [x29, #-48]                 // 16-byte Folded Reload
	ldur	q1, [x29, #-96]                 // 16-byte Folded Reload
	bl	__subtf3
	add	x8, x26, x22, lsl #5
	ldur	q1, [x29, #-64]                 // 16-byte Folded Reload
	stp	q1, q0, [x8]
	ldur	q0, [x29, #-32]                 // 16-byte Folded Reload
	ldur	q1, [x29, #-112]                // 16-byte Folded Reload
	bl	__subtf3
	stur	q0, [x29, #-32]                 // 16-byte Folded Spill
	ldur	q0, [x29, #-48]                 // 16-byte Folded Reload
	ldur	q1, [x29, #-96]                 // 16-byte Folded Reload
	bl	__addtf3
	add	x8, x26, x25, lsl #5
	ldr	x28, [sp, #48]                  // 8-byte Folded Reload
	ldp	x26, x27, [sp, #8]              // 16-byte Folded Reload
	cmp	x21, #2
	ldr	x21, [sp, #88]                  // 8-byte Folded Reload
	ldur	q1, [x29, #-32]                 // 16-byte Folded Reload
	stp	q1, q0, [x8]
	b.lo	.LBB32_6
// %bb.8:                               //   in Loop: Header=BB32_7 Depth=1
	mov	x25, xzr
	ldr	x22, [sp]                       // 8-byte Folded Reload
.LBB32_9:                               //   Parent Loop BB32_7 Depth=1
                                        // =>  This Inner Loop Header: Depth=2
	add	x8, x21, x25
	add	x9, x8, x24
	add	x10, x9, x24
	ldp	q2, q0, [x8]
	add	x8, x10, x24
	stp	q0, q2, [x29, #-48]             // 32-byte Folded Spill
	ldp	q1, q0, [x9]
	stp	q0, q1, [x29, #-80]             // 32-byte Folded Spill
	ldp	q1, q0, [x10]
	stp	q1, q0, [x29, #-144]            // 32-byte Folded Spill
	ldr	q0, [x8]
	str	q0, [sp, #160]                  // 16-byte Folded Spill
	ldr	q0, [x8, #16]
	stur	q0, [x29, #-160]                // 16-byte Folded Spill
	mov	v0.16b, v2.16b
	bl	__addtf3
	stur	q0, [x29, #-96]                 // 16-byte Folded Spill
	ldur	q0, [x29, #-48]                 // 16-byte Folded Reload
	ldur	q1, [x29, #-128]                // 16-byte Folded Reload
	bl	__addtf3
	stur	q0, [x29, #-112]                // 16-byte Folded Spill
	ldur	q0, [x29, #-32]                 // 16-byte Folded Reload
	ldur	q1, [x29, #-144]                // 16-byte Folded Reload
	bl	__subtf3
	stur	q0, [x29, #-32]                 // 16-byte Folded Spill
	ldur	q0, [x29, #-48]                 // 16-byte Folded Reload
	ldur	q1, [x29, #-128]                // 16-byte Folded Reload
	bl	__subtf3
	stur	q0, [x29, #-48]                 // 16-byte Folded Spill
	ldur	q0, [x29, #-64]                 // 16-byte Folded Reload
	ldr	q1, [sp, #160]                  // 16-byte Folded Reload
	bl	__addtf3
	stur	q0, [x29, #-128]                // 16-byte Folded Spill
	ldur	q0, [x29, #-80]                 // 16-byte Folded Reload
	ldur	q1, [x29, #-160]                // 16-byte Folded Reload
	bl	__addtf3
	stur	q0, [x29, #-144]                // 16-byte Folded Spill
	ldur	q0, [x29, #-64]                 // 16-byte Folded Reload
	ldr	q1, [sp, #160]                  // 16-byte Folded Reload
	bl	__subtf3
	stur	q0, [x29, #-64]                 // 16-byte Folded Spill
	ldur	q0, [x29, #-80]                 // 16-byte Folded Reload
	ldur	q1, [x29, #-160]                // 16-byte Folded Reload
	bl	__subtf3
	stur	q0, [x29, #-80]                 // 16-byte Folded Spill
	ldur	q0, [x29, #-96]                 // 16-byte Folded Reload
	ldur	q1, [x29, #-128]                // 16-byte Folded Reload
	bl	__addtf3
	stur	q0, [x29, #-160]                // 16-byte Folded Spill
	ldur	q0, [x29, #-112]                // 16-byte Folded Reload
	ldur	q1, [x29, #-144]                // 16-byte Folded Reload
	bl	__addtf3
	add	x8, x23, x25
	ldur	q1, [x29, #-160]                // 16-byte Folded Reload
	stp	q1, q0, [x8, #32]
	ldur	q0, [x29, #-32]                 // 16-byte Folded Reload
	ldur	q1, [x29, #-80]                 // 16-byte Folded Reload
	bl	__addtf3
	stur	q0, [x29, #-160]                // 16-byte Folded Spill
	ldp	q1, q0, [x29, #-64]             // 32-byte Folded Reload
	bl	__subtf3
	add	x8, x28, x25
	ldr	q1, [x8]
	stp	q0, q1, [sp, #144]              // 32-byte Folded Spill
	ldr	q1, [x8, #16]
	str	q1, [sp, #112]                  // 16-byte Folded Spill
	bl	__multf3
	str	q0, [sp, #128]                  // 16-byte Folded Spill
	ldur	q0, [x29, #-160]                // 16-byte Folded Reload
	ldr	q1, [sp, #160]                  // 16-byte Folded Reload
	bl	__multf3
	ldr	q1, [sp, #128]                  // 16-byte Folded Reload
	bl	__addtf3
	str	q0, [sp, #128]                  // 16-byte Folded Spill
	ldr	q0, [sp, #112]                  // 16-byte Folded Reload
	ldur	q1, [x29, #-160]                // 16-byte Folded Reload
	bl	__multf3
	stur	q0, [x29, #-160]                // 16-byte Folded Spill
	ldp	q0, q1, [sp, #144]              // 32-byte Folded Reload
	bl	__multf3
	ldur	q1, [x29, #-160]                // 16-byte Folded Reload
	bl	__subtf3
	ldr	x8, [sp, #104]                  // 8-byte Folded Reload
	ldr	q1, [sp, #128]                  // 16-byte Folded Reload
	add	x8, x8, x25
	stp	q1, q0, [x8, #32]
	ldur	q0, [x29, #-96]                 // 16-byte Folded Reload
	ldur	q1, [x29, #-128]                // 16-byte Folded Reload
	bl	__subtf3
	stur	q0, [x29, #-96]                 // 16-byte Folded Spill
	ldur	q0, [x29, #-112]                // 16-byte Folded Reload
	ldur	q1, [x29, #-144]                // 16-byte Folded Reload
	bl	__subtf3
	add	x8, x26, x25
	ldr	q1, [x8]
	stp	q0, q1, [x29, #-128]            // 32-byte Folded Spill
	ldr	q1, [x8, #16]
	stur	q1, [x29, #-160]                // 16-byte Folded Spill
	bl	__multf3
	stur	q0, [x29, #-144]                // 16-byte Folded Spill
	ldp	q1, q0, [x29, #-112]            // 32-byte Folded Reload
	bl	__multf3
	ldur	q1, [x29, #-144]                // 16-byte Folded Reload
	bl	__addtf3
	stur	q0, [x29, #-144]                // 16-byte Folded Spill
	ldur	q0, [x29, #-160]                // 16-byte Folded Reload
	ldur	q1, [x29, #-96]                 // 16-byte Folded Reload
	bl	__multf3
	stur	q0, [x29, #-96]                 // 16-byte Folded Spill
	ldp	q0, q1, [x29, #-128]            // 32-byte Folded Reload
	bl	__multf3
	ldur	q1, [x29, #-96]                 // 16-byte Folded Reload
	bl	__subtf3
	add	x8, x19, x25
	ldur	q1, [x29, #-144]                // 16-byte Folded Reload
	stp	q1, q0, [x8, #32]
	ldur	q0, [x29, #-32]                 // 16-byte Folded Reload
	ldur	q1, [x29, #-80]                 // 16-byte Folded Reload
	bl	__subtf3
	stur	q0, [x29, #-32]                 // 16-byte Folded Spill
	ldp	q1, q0, [x29, #-64]             // 32-byte Folded Reload
	bl	__addtf3
	add	x8, x27, x25
	ldr	q1, [x8]
	stur	q1, [x29, #-48]                 // 16-byte Folded Spill
	ldr	q1, [x8, #16]
	stp	q1, q0, [x29, #-96]             // 32-byte Folded Spill
	bl	__multf3
	stur	q0, [x29, #-64]                 // 16-byte Folded Spill
	ldp	q1, q0, [x29, #-48]             // 32-byte Folded Reload
	bl	__multf3
	ldur	q1, [x29, #-64]                 // 16-byte Folded Reload
	bl	__addtf3
	stur	q0, [x29, #-64]                 // 16-byte Folded Spill
	ldur	q0, [x29, #-96]                 // 16-byte Folded Reload
	ldur	q1, [x29, #-32]                 // 16-byte Folded Reload
	bl	__multf3
	stur	q0, [x29, #-32]                 // 16-byte Folded Spill
	ldur	q0, [x29, #-80]                 // 16-byte Folded Reload
	ldur	q1, [x29, #-48]                 // 16-byte Folded Reload
	bl	__multf3
	ldur	q1, [x29, #-32]                 // 16-byte Folded Reload
	bl	__subtf3
	add	x8, x20, x25
	subs	x22, x22, #1
	add	x25, x25, #32
	ldur	q1, [x29, #-64]                 // 16-byte Folded Reload
	stp	q1, q0, [x8, #32]
	b.ne	.LBB32_9
	b	.LBB32_6
.LBB32_10:
	ldp	x20, x19, [sp, #416]            // 16-byte Folded Reload
	ldp	x22, x21, [sp, #400]            // 16-byte Folded Reload
	ldp	x24, x23, [sp, #384]            // 16-byte Folded Reload
	ldp	x26, x25, [sp, #368]            // 16-byte Folded Reload
	ldp	x28, x27, [sp, #352]            // 16-byte Folded Reload
	ldp	x29, x30, [sp, #336]            // 16-byte Folded Reload
	add	sp, sp, #432
	ret
.Lfunc_end32:
	.size	_ZNK9pocketfft6detail5cfftpIeE5pass4ILb1ENS0_5cmplxIeEEEEvmmPKT0_PS6_PKS5_, .Lfunc_end32-_ZNK9pocketfft6detail5cfftpIeE5pass4ILb1ENS0_5cmplxIeEEEEvmmPKT0_PS6_PKS5_
	.cfi_endproc
                                        // -- End function
	.section	.rodata.cst16,"aM",@progbits,16
	.p2align	4                               // -- Begin function _ZNK9pocketfft6detail5cfftpIeE5pass8ILb1ENS0_5cmplxIeEEEEvmmPKT0_PS6_PKS5_
.LCPI33_0:
	.xword	0xc908b2fb1366ea95              // fp128 0.707106781186547524400844362104848992
	.xword	0x3ffe6a09e667f3bc
	.section	.text._ZNK9pocketfft6detail5cfftpIeE5pass8ILb1ENS0_5cmplxIeEEEEvmmPKT0_PS6_PKS5_,"axG",@progbits,_ZNK9pocketfft6detail5cfftpIeE5pass8ILb1ENS0_5cmplxIeEEEEvmmPKT0_PS6_PKS5_,comdat
	.weak	_ZNK9pocketfft6detail5cfftpIeE5pass8ILb1ENS0_5cmplxIeEEEEvmmPKT0_PS6_PKS5_
	.p2align	2
	.type	_ZNK9pocketfft6detail5cfftpIeE5pass8ILb1ENS0_5cmplxIeEEEEvmmPKT0_PS6_PKS5_,@function
_ZNK9pocketfft6detail5cfftpIeE5pass8ILb1ENS0_5cmplxIeEEEEvmmPKT0_PS6_PKS5_: // @_ZNK9pocketfft6detail5cfftpIeE5pass8ILb1ENS0_5cmplxIeEEEEvmmPKT0_PS6_PKS5_
	.cfi_startproc
// %bb.0:
	stp	x29, x30, [sp, #-96]!           // 16-byte Folded Spill
	stp	x28, x27, [sp, #16]             // 16-byte Folded Spill
	mov	x29, sp
	stp	x26, x25, [sp, #32]             // 16-byte Folded Spill
	stp	x24, x23, [sp, #48]             // 16-byte Folded Spill
	stp	x22, x21, [sp, #64]             // 16-byte Folded Spill
	stp	x20, x19, [sp, #80]             // 16-byte Folded Spill
	sub	sp, sp, #688
	.cfi_def_cfa w29, 96
	.cfi_offset w19, -8
	.cfi_offset w20, -16
	.cfi_offset w21, -24
	.cfi_offset w22, -32
	.cfi_offset w23, -40
	.cfi_offset w24, -48
	.cfi_offset w25, -56
	.cfi_offset w26, -64
	.cfi_offset w27, -72
	.cfi_offset w28, -80
	.cfi_offset w30, -88
	.cfi_offset w29, -96
	subs	x8, x1, #1
	str	x5, [sp, #192]                  // 8-byte Folded Spill
	stp	x4, x3, [sp, #136]              // 16-byte Folded Spill
	b.ne	.LBB33_4
// %bb.1:
	cbz	x2, .LBB33_10
// %bb.2:
	ldr	x9, [sp, #136]                  // 8-byte Folded Reload
	mov	w8, #224
	add	x10, x2, x2, lsl #2
	lsl	x23, x2, #5
	mul	x21, x2, x8
	adrp	x8, .LCPI33_0
	add	x19, x9, #16
	add	x9, x2, x2, lsl #1
	lsl	x20, x9, #5
	lsl	x24, x9, #6
	ldr	x9, [sp, #144]                  // 8-byte Folded Reload
	lsl	x22, x10, #5
	lsl	x25, x2, #6
	lsl	x26, x2, #7
	ldr	q0, [x8, :lo12:.LCPI33_0]
	add	x27, x9, #128
	stur	q0, [x29, #-80]                 // 16-byte Folded Spill
.LBB33_3:                               // =>This Inner Loop Header: Depth=1
	ldp	q2, q0, [x27, #-96]
	mov	x28, x2
	ldr	q1, [x27, #32]
	stp	q0, q1, [x29, #-112]            // 32-byte Folded Spill
	ldr	q0, [x27, #48]
	stp	q2, q0, [x29, #-176]            // 32-byte Folded Spill
	mov	v0.16b, v2.16b
	bl	__addtf3
	stur	q0, [x29, #-128]                // 16-byte Folded Spill
	ldur	q0, [x29, #-112]                // 16-byte Folded Reload
	ldur	q1, [x29, #-160]                // 16-byte Folded Reload
	bl	__addtf3
	stur	q0, [x29, #-144]                // 16-byte Folded Spill
	ldur	q0, [x29, #-176]                // 16-byte Folded Reload
	ldur	q1, [x29, #-96]                 // 16-byte Folded Reload
	bl	__subtf3
	stur	q0, [x29, #-96]                 // 16-byte Folded Spill
	ldur	q0, [x29, #-112]                // 16-byte Folded Reload
	ldur	q1, [x29, #-160]                // 16-byte Folded Reload
	bl	__subtf3
	stur	q0, [x29, #-112]                // 16-byte Folded Spill
	ldp	q2, q0, [x27, #-32]
	stp	q0, q2, [x29, #-192]            // 32-byte Folded Spill
	ldp	q1, q0, [x27, #96]
	stp	q1, q0, [x29, #-224]            // 32-byte Folded Spill
	mov	v0.16b, v2.16b
	bl	__addtf3
	stur	q0, [x29, #-160]                // 16-byte Folded Spill
	ldp	q1, q0, [x29, #-208]            // 32-byte Folded Reload
	bl	__addtf3
	stur	q0, [x29, #-240]                // 16-byte Folded Spill
	ldur	q0, [x29, #-176]                // 16-byte Folded Reload
	ldur	q1, [x29, #-224]                // 16-byte Folded Reload
	bl	__subtf3
	stur	q0, [x29, #-176]                // 16-byte Folded Spill
	ldp	q1, q0, [x29, #-208]            // 32-byte Folded Reload
	bl	__subtf3
	stur	q0, [x29, #-224]                // 16-byte Folded Spill
	ldur	q0, [x29, #-128]                // 16-byte Folded Reload
	ldur	q1, [x29, #-160]                // 16-byte Folded Reload
	bl	__addtf3
	stur	q0, [x29, #-192]                // 16-byte Folded Spill
	ldur	q0, [x29, #-144]                // 16-byte Folded Reload
	ldur	q1, [x29, #-240]                // 16-byte Folded Reload
	bl	__addtf3
	stur	q0, [x29, #-208]                // 16-byte Folded Spill
	ldur	q0, [x29, #-128]                // 16-byte Folded Reload
	ldur	q1, [x29, #-160]                // 16-byte Folded Reload
	bl	__subtf3
	stur	q0, [x29, #-128]                // 16-byte Folded Spill
	ldur	q0, [x29, #-144]                // 16-byte Folded Reload
	ldur	q1, [x29, #-240]                // 16-byte Folded Reload
	bl	__subtf3
	stur	q0, [x29, #-160]                // 16-byte Folded Spill
	ldur	q0, [x29, #-96]                 // 16-byte Folded Reload
	ldur	q1, [x29, #-224]                // 16-byte Folded Reload
	bl	__addtf3
	stur	q0, [x29, #-240]                // 16-byte Folded Spill
	ldur	q0, [x29, #-112]                // 16-byte Folded Reload
	ldur	q1, [x29, #-176]                // 16-byte Folded Reload
	bl	__subtf3
	stur	q0, [x29, #-256]                // 16-byte Folded Spill
	ldur	q0, [x29, #-96]                 // 16-byte Folded Reload
	ldur	q1, [x29, #-224]                // 16-byte Folded Reload
	bl	__subtf3
	stur	q0, [x29, #-224]                // 16-byte Folded Spill
	ldur	q0, [x29, #-112]                // 16-byte Folded Reload
	ldur	q1, [x29, #-176]                // 16-byte Folded Reload
	bl	__addtf3
	stur	q0, [x29, #-112]                // 16-byte Folded Spill
	ldp	q0, q1, [x29, #-256]            // 32-byte Folded Reload
	bl	__addtf3
	ldur	q1, [x29, #-80]                 // 16-byte Folded Reload
	bl	__multf3
	stur	q0, [x29, #-144]                // 16-byte Folded Spill
	ldp	q0, q1, [x29, #-256]            // 32-byte Folded Reload
	bl	__subtf3
	ldur	q1, [x29, #-80]                 // 16-byte Folded Reload
	bl	__multf3
	stur	q0, [x29, #-176]                // 16-byte Folded Spill
	ldur	q0, [x29, #-112]                // 16-byte Folded Reload
	ldur	q1, [x29, #-224]                // 16-byte Folded Reload
	bl	__subtf3
	ldur	q1, [x29, #-80]                 // 16-byte Folded Reload
	bl	__multf3
	stur	q0, [x29, #-96]                 // 16-byte Folded Spill
	ldur	q0, [x29, #-224]                // 16-byte Folded Reload
	ldur	q1, [x29, #-112]                // 16-byte Folded Reload
	stur	q0, [x29, #-64]
	ldurb	w8, [x29, #-49]
	eor	w8, w8, #0x80
	sturb	w8, [x29, #-49]
	ldur	q0, [x29, #-64]
	bl	__subtf3
	ldur	q1, [x29, #-80]                 // 16-byte Folded Reload
	bl	__multf3
	stur	q0, [x29, #-112]                // 16-byte Folded Spill
	ldp	q2, q0, [x27, #-128]
	stp	q0, q2, [x29, #-240]            // 32-byte Folded Spill
	ldp	q1, q0, [x27]
	str	q1, [sp, #416]                  // 16-byte Folded Spill
	stur	q0, [x29, #-256]                // 16-byte Folded Spill
	mov	v0.16b, v2.16b
	bl	__addtf3
	str	q0, [sp, #400]                  // 16-byte Folded Spill
	ldp	q1, q0, [x29, #-256]            // 32-byte Folded Reload
	bl	__addtf3
	str	q0, [sp, #384]                  // 16-byte Folded Spill
	ldur	q0, [x29, #-224]                // 16-byte Folded Reload
	ldr	q1, [sp, #416]                  // 16-byte Folded Reload
	bl	__subtf3
	stur	q0, [x29, #-224]                // 16-byte Folded Spill
	ldp	q1, q0, [x29, #-256]            // 32-byte Folded Reload
	bl	__subtf3
	ldur	q2, [x27, #-64]
	stp	q2, q0, [x29, #-256]            // 32-byte Folded Spill
	ldur	q0, [x27, #-48]
	str	q0, [sp, #416]                  // 16-byte Folded Spill
	ldp	q1, q0, [x27, #64]
	stp	q1, q0, [sp, #320]              // 32-byte Folded Spill
	mov	v0.16b, v2.16b
	bl	__addtf3
	str	q0, [sp, #368]                  // 16-byte Folded Spill
	ldr	q0, [sp, #416]                  // 16-byte Folded Reload
	ldr	q1, [sp, #336]                  // 16-byte Folded Reload
	bl	__addtf3
	str	q0, [sp, #352]                  // 16-byte Folded Spill
	ldur	q0, [x29, #-256]                // 16-byte Folded Reload
	ldr	q1, [sp, #320]                  // 16-byte Folded Reload
	bl	__subtf3
	stur	q0, [x29, #-256]                // 16-byte Folded Spill
	ldr	q0, [sp, #416]                  // 16-byte Folded Reload
	ldr	q1, [sp, #336]                  // 16-byte Folded Reload
	bl	__subtf3
	str	q0, [sp, #416]                  // 16-byte Folded Spill
	ldr	q0, [sp, #400]                  // 16-byte Folded Reload
	ldr	q1, [sp, #368]                  // 16-byte Folded Reload
	bl	__addtf3
	str	q0, [sp, #336]                  // 16-byte Folded Spill
	ldr	q0, [sp, #384]                  // 16-byte Folded Reload
	ldr	q1, [sp, #352]                  // 16-byte Folded Reload
	bl	__addtf3
	str	q0, [sp, #320]                  // 16-byte Folded Spill
	ldur	q0, [x29, #-192]                // 16-byte Folded Reload
	ldr	q1, [sp, #336]                  // 16-byte Folded Reload
	bl	__addtf3
	str	q0, [sp, #304]                  // 16-byte Folded Spill
	ldur	q0, [x29, #-208]                // 16-byte Folded Reload
	ldr	q1, [sp, #320]                  // 16-byte Folded Reload
	bl	__addtf3
	ldr	q1, [sp, #304]                  // 16-byte Folded Reload
	stp	q1, q0, [x19, #-16]
	ldr	q0, [sp, #336]                  // 16-byte Folded Reload
	ldur	q1, [x29, #-192]                // 16-byte Folded Reload
	bl	__subtf3
	stur	q0, [x29, #-192]                // 16-byte Folded Spill
	ldr	q0, [sp, #320]                  // 16-byte Folded Reload
	ldur	q1, [x29, #-208]                // 16-byte Folded Reload
	bl	__subtf3
	add	x8, x19, x26
	ldur	q1, [x29, #-192]                // 16-byte Folded Reload
	stp	q1, q0, [x8, #-16]
	ldr	q0, [sp, #400]                  // 16-byte Folded Reload
	ldr	q1, [sp, #368]                  // 16-byte Folded Reload
	bl	__subtf3
	stur	q0, [x29, #-208]                // 16-byte Folded Spill
	ldr	q0, [sp, #384]                  // 16-byte Folded Reload
	ldr	q1, [sp, #352]                  // 16-byte Folded Reload
	bl	__subtf3
	stur	q0, [x29, #-192]                // 16-byte Folded Spill
	ldur	q0, [x29, #-160]                // 16-byte Folded Reload
	ldur	q1, [x29, #-208]                // 16-byte Folded Reload
	bl	__addtf3
	str	q0, [sp, #400]                  // 16-byte Folded Spill
	ldur	q0, [x29, #-192]                // 16-byte Folded Reload
	ldur	q1, [x29, #-128]                // 16-byte Folded Reload
	bl	__subtf3
	add	x8, x19, x25
	ldr	q1, [sp, #400]                  // 16-byte Folded Reload
	stp	q1, q0, [x8, #-16]
	ldur	q0, [x29, #-208]                // 16-byte Folded Reload
	ldur	q1, [x29, #-160]                // 16-byte Folded Reload
	bl	__subtf3
	stur	q0, [x29, #-160]                // 16-byte Folded Spill
	ldur	q0, [x29, #-128]                // 16-byte Folded Reload
	ldur	q1, [x29, #-192]                // 16-byte Folded Reload
	bl	__addtf3
	add	x8, x19, x24
	ldur	q1, [x29, #-160]                // 16-byte Folded Reload
	stp	q1, q0, [x8, #-16]
	ldur	q0, [x29, #-224]                // 16-byte Folded Reload
	ldr	q1, [sp, #416]                  // 16-byte Folded Reload
	bl	__addtf3
	stur	q0, [x29, #-128]                // 16-byte Folded Spill
	ldp	q1, q0, [x29, #-256]            // 32-byte Folded Reload
	bl	__subtf3
	stur	q0, [x29, #-160]                // 16-byte Folded Spill
	ldp	q0, q1, [x29, #-144]            // 32-byte Folded Reload
	bl	__addtf3
	stur	q0, [x29, #-192]                // 16-byte Folded Spill
	ldp	q0, q1, [x29, #-176]            // 32-byte Folded Reload
	bl	__addtf3
	add	x8, x19, x23
	ldur	q1, [x29, #-192]                // 16-byte Folded Reload
	stp	q1, q0, [x8, #-16]
	ldp	q1, q0, [x29, #-144]            // 32-byte Folded Reload
	bl	__subtf3
	stur	q0, [x29, #-128]                // 16-byte Folded Spill
	ldp	q1, q0, [x29, #-176]            // 32-byte Folded Reload
	bl	__subtf3
	add	x8, x19, x22
	ldur	q1, [x29, #-128]                // 16-byte Folded Reload
	stp	q1, q0, [x8, #-16]
	ldur	q0, [x29, #-224]                // 16-byte Folded Reload
	ldr	q1, [sp, #416]                  // 16-byte Folded Reload
	bl	__subtf3
	stur	q0, [x29, #-128]                // 16-byte Folded Spill
	ldp	q1, q0, [x29, #-256]            // 32-byte Folded Reload
	bl	__addtf3
	stur	q0, [x29, #-144]                // 16-byte Folded Spill
	ldur	q0, [x29, #-96]                 // 16-byte Folded Reload
	ldur	q1, [x29, #-128]                // 16-byte Folded Reload
	bl	__addtf3
	stur	q0, [x29, #-160]                // 16-byte Folded Spill
	ldur	q0, [x29, #-112]                // 16-byte Folded Reload
	ldur	q1, [x29, #-144]                // 16-byte Folded Reload
	bl	__addtf3
	add	x8, x19, x20
	ldur	q1, [x29, #-160]                // 16-byte Folded Reload
	stp	q1, q0, [x8, #-16]
	ldur	q0, [x29, #-128]                // 16-byte Folded Reload
	ldur	q1, [x29, #-96]                 // 16-byte Folded Reload
	bl	__subtf3
	stur	q0, [x29, #-96]                 // 16-byte Folded Spill
	ldur	q0, [x29, #-144]                // 16-byte Folded Reload
	ldur	q1, [x29, #-112]                // 16-byte Folded Reload
	bl	__subtf3
	mov	x2, x28
	add	x8, x19, x21
	add	x19, x19, #32
	subs	x2, x28, #1
	add	x27, x27, #256
	ldur	q1, [x29, #-96]                 // 16-byte Folded Reload
	stp	q1, q0, [x8, #-16]
	b.ne	.LBB33_3
	b	.LBB33_10
.LBB33_4:
	str	x8, [sp]                        // 8-byte Folded Spill
	str	x1, [sp, #128]                  // 8-byte Folded Spill
	cbz	x2, .LBB33_10
// %bb.5:
	lsl	x8, x2, #2
	lsl	x9, x2, #1
	ldp	x14, x20, [sp, #128]            // 16-byte Folded Reload
	mov	w12, #96
	mov	w10, #224
	stp	x9, x8, [sp, #104]              // 16-byte Folded Spill
	add	x9, x9, x2
	add	x8, x8, x2
	lsl	x11, x9, #1
	ldr	x21, [sp, #144]                 // 8-byte Folded Reload
	mov	x27, xzr
	ldr	x15, [sp]                       // 8-byte Folded Reload
	str	x2, [sp, #120]                  // 8-byte Folded Spill
	stp	x8, x9, [sp, #88]               // 16-byte Folded Spill
	lsl	x9, x2, #3
	sub	x9, x9, x2
	mul	x8, x2, x14
	ldr	x7, [sp, #192]                  // 8-byte Folded Reload
	stp	x9, x11, [sp, #72]              // 16-byte Folded Spill
	lsl	x9, x14, #5
	lsl	x11, x14, #8
	madd	x17, x8, x12, x20
	madd	x25, x8, x10, x20
	add	x6, x20, x8, lsl #5
	stp	x11, x9, [sp, #56]              // 16-byte Folded Spill
	add	x9, x9, x21
	add	x9, x9, #48
	madd	x10, x14, x10, x21
	str	x9, [sp, #184]                  // 8-byte Folded Spill
	add	x9, x15, x15, lsl #2
	lsl	x9, x9, #5
	add	x0, x10, #48
	add	x11, x9, x21
	lsl	x10, x15, #7
	add	x16, x11, #208
	add	x11, x15, x15, lsl #1
	lsl	x12, x11, #5
	lsl	x11, x11, #6
	add	x13, x12, x21
	add	x9, x7, x9
	add	x18, x13, #144
	mov	w13, #160
	madd	x1, x8, x13, x20
	add	x13, x10, x21
	add	x3, x13, #128
	lsl	x13, x15, #6
	add	x14, x13, x21
	add	x10, x7, x10
	add	x4, x14, #64
	add	x14, x11, x21
	add	x11, x7, x11
	add	x5, x14, #192
	mov	w14, #192
	stp	x9, x10, [sp, #24]              // 16-byte Folded Spill
	adrp	x10, .LCPI33_0
	str	x11, [sp, #48]                  // 8-byte Folded Spill
	add	x11, x7, x13
	add	x9, x7, x15, lsl #5
	add	x13, x20, x8, lsl #6
	ldr	q0, [x10, :lo12:.LCPI33_0]
	str	x11, [sp, #40]                  // 8-byte Folded Spill
	madd	x11, x8, x14, x20
	ldp	x28, x24, [sp, #32]             // 16-byte Folded Reload
	str	x9, [sp, #16]                   // 8-byte Folded Spill
	add	x8, x20, x8, lsl #7
	add	x9, x7, x12
	stur	q0, [x29, #-80]                 // 16-byte Folded Spill
	str	x9, [sp, #8]                    // 8-byte Folded Spill
	b	.LBB33_7
.LBB33_6:                               //   in Loop: Header=BB33_7 Depth=1
	ldp	x10, x8, [sp, #56]              // 16-byte Folded Reload
	mov	x9, x27
	ldp	x13, x11, [sp, #272]            // 16-byte Folded Reload
	ldp	x5, x4, [sp, #224]              // 16-byte Folded Reload
	add	x9, x9, x10
	add	x25, x25, x8
	ldp	x15, x14, [sp, #256]            // 16-byte Folded Reload
	add	x16, x11, x10
	add	x18, x13, x10
	ldp	x3, x1, [sp, #240]              // 16-byte Folded Reload
	str	x9, [sp, #184]                  // 8-byte Folded Spill
	add	x4, x4, x10
	ldr	x12, [sp, #288]                 // 8-byte Folded Reload
	add	x0, x15, x10
	add	x5, x5, x10
	ldr	x27, [sp, #160]                 // 8-byte Folded Reload
	add	x3, x3, x10
	ldr	x19, [sp, #200]                 // 8-byte Folded Reload
	add	x21, x12, x10
	ldr	x2, [sp, #120]                  // 8-byte Folded Reload
	ldp	x10, x9, [sp, #296]             // 16-byte Folded Reload
	add	x27, x27, #1
	add	x17, x14, x8
	ldp	x7, x6, [sp, #208]              // 16-byte Folded Reload
	add	x1, x1, x8
	add	x13, x19, x8
	add	x20, x10, x8
	cmp	x27, x2
	add	x11, x7, x8
	add	x6, x6, x8
	add	x8, x9, x8
	b.eq	.LBB33_10
.LBB33_7:                               // =>This Loop Header: Depth=1
                                        //     Child Loop BB33_9 Depth 2
	stp	x20, x8, [sp, #296]             // 16-byte Folded Spill
	mov	w8, #1
	str	x25, [sp, #152]                 // 8-byte Folded Spill
	ldr	x25, [sp, #128]                 // 8-byte Folded Reload
	bfi	x8, x27, #3, #61
	mov	w9, #5
	ldr	x23, [sp, #144]                 // 8-byte Folded Reload
	bfi	x9, x27, #3, #61
	mul	x8, x8, x25
	stp	x13, x11, [sp, #200]            // 16-byte Folded Spill
	mul	x9, x9, x25
	stp	x6, x5, [sp, #216]              // 16-byte Folded Spill
	stp	x4, x3, [sp, #232]              // 16-byte Folded Spill
	lsl	x22, x27, #3
	add	x8, x23, x8, lsl #5
	stp	x1, x0, [sp, #248]              // 16-byte Folded Spill
	add	x9, x23, x9, lsl #5
	stp	x17, x18, [sp, #264]            // 16-byte Folded Spill
	stp	x16, x21, [sp, #280]            // 16-byte Folded Spill
	mov	x19, x2
	ldp	q2, q0, [x8]
	ldr	q1, [x9]
	stp	q0, q1, [x29, #-112]            // 32-byte Folded Spill
	ldr	q0, [x9, #16]
	stp	q2, q0, [x29, #-176]            // 32-byte Folded Spill
	mov	v0.16b, v2.16b
	bl	__addtf3
	stur	q0, [x29, #-128]                // 16-byte Folded Spill
	ldur	q0, [x29, #-112]                // 16-byte Folded Reload
	ldur	q1, [x29, #-160]                // 16-byte Folded Reload
	bl	__addtf3
	stur	q0, [x29, #-144]                // 16-byte Folded Spill
	ldur	q0, [x29, #-176]                // 16-byte Folded Reload
	ldur	q1, [x29, #-96]                 // 16-byte Folded Reload
	bl	__subtf3
	stur	q0, [x29, #-96]                 // 16-byte Folded Spill
	ldur	q0, [x29, #-112]                // 16-byte Folded Reload
	ldur	q1, [x29, #-160]                // 16-byte Folded Reload
	bl	__subtf3
	mov	w8, #3
	mov	w9, #7
	bfi	x8, x27, #3, #61
	bfi	x9, x27, #3, #61
	stur	q0, [x29, #-112]                // 16-byte Folded Spill
	mul	x8, x8, x25
	mul	x9, x9, x25
	add	x8, x23, x8, lsl #5
	add	x9, x23, x9, lsl #5
	ldp	q2, q0, [x8]
	stur	q0, [x29, #-192]                // 16-byte Folded Spill
	ldp	q1, q0, [x9]
	stur	q1, [x29, #-160]                // 16-byte Folded Spill
	stp	q2, q0, [x29, #-224]            // 32-byte Folded Spill
	mov	v0.16b, v2.16b
	bl	__addtf3
	stur	q0, [x29, #-176]                // 16-byte Folded Spill
	ldp	q1, q0, [x29, #-208]            // 32-byte Folded Reload
	bl	__addtf3
	stur	q0, [x29, #-240]                // 16-byte Folded Spill
	ldur	q0, [x29, #-224]                // 16-byte Folded Reload
	ldur	q1, [x29, #-160]                // 16-byte Folded Reload
	bl	__subtf3
	stur	q0, [x29, #-160]                // 16-byte Folded Spill
	ldp	q1, q0, [x29, #-208]            // 32-byte Folded Reload
	bl	__subtf3
	stur	q0, [x29, #-224]                // 16-byte Folded Spill
	ldur	q0, [x29, #-128]                // 16-byte Folded Reload
	ldur	q1, [x29, #-176]                // 16-byte Folded Reload
	bl	__addtf3
	stur	q0, [x29, #-192]                // 16-byte Folded Spill
	ldur	q0, [x29, #-144]                // 16-byte Folded Reload
	ldur	q1, [x29, #-240]                // 16-byte Folded Reload
	bl	__addtf3
	stur	q0, [x29, #-208]                // 16-byte Folded Spill
	ldur	q0, [x29, #-128]                // 16-byte Folded Reload
	ldur	q1, [x29, #-176]                // 16-byte Folded Reload
	bl	__subtf3
	stur	q0, [x29, #-128]                // 16-byte Folded Spill
	ldur	q0, [x29, #-144]                // 16-byte Folded Reload
	ldur	q1, [x29, #-240]                // 16-byte Folded Reload
	bl	__subtf3
	stur	q0, [x29, #-176]                // 16-byte Folded Spill
	ldur	q0, [x29, #-96]                 // 16-byte Folded Reload
	ldur	q1, [x29, #-224]                // 16-byte Folded Reload
	bl	__addtf3
	stur	q0, [x29, #-240]                // 16-byte Folded Spill
	ldur	q0, [x29, #-112]                // 16-byte Folded Reload
	ldur	q1, [x29, #-160]                // 16-byte Folded Reload
	bl	__subtf3
	stur	q0, [x29, #-256]                // 16-byte Folded Spill
	ldur	q0, [x29, #-96]                 // 16-byte Folded Reload
	ldur	q1, [x29, #-224]                // 16-byte Folded Reload
	bl	__subtf3
	stur	q0, [x29, #-224]                // 16-byte Folded Spill
	ldur	q0, [x29, #-112]                // 16-byte Folded Reload
	ldur	q1, [x29, #-160]                // 16-byte Folded Reload
	bl	__addtf3
	stur	q0, [x29, #-112]                // 16-byte Folded Spill
	ldp	q0, q1, [x29, #-256]            // 32-byte Folded Reload
	bl	__addtf3
	ldur	q1, [x29, #-80]                 // 16-byte Folded Reload
	bl	__multf3
	stur	q0, [x29, #-144]                // 16-byte Folded Spill
	ldp	q0, q1, [x29, #-256]            // 32-byte Folded Reload
	bl	__subtf3
	ldur	q1, [x29, #-80]                 // 16-byte Folded Reload
	bl	__multf3
	stur	q0, [x29, #-160]                // 16-byte Folded Spill
	ldur	q0, [x29, #-112]                // 16-byte Folded Reload
	ldur	q1, [x29, #-224]                // 16-byte Folded Reload
	bl	__subtf3
	ldur	q1, [x29, #-80]                 // 16-byte Folded Reload
	bl	__multf3
	stur	q0, [x29, #-96]                 // 16-byte Folded Spill
	ldur	q0, [x29, #-224]                // 16-byte Folded Reload
	ldur	q1, [x29, #-112]                // 16-byte Folded Reload
	stur	q0, [x29, #-32]
	ldurb	w8, [x29, #-17]
	eor	w8, w8, #0x80
	sturb	w8, [x29, #-17]
	ldur	q0, [x29, #-32]
	bl	__subtf3
	ldur	q1, [x29, #-80]                 // 16-byte Folded Reload
	bl	__multf3
	mov	w8, #4
	mul	x9, x22, x25
	bfi	x8, x27, #3, #61
	stur	q0, [x29, #-112]                // 16-byte Folded Spill
	mul	x8, x8, x25
	add	x9, x23, x9, lsl #5
	add	x8, x23, x8, lsl #5
	ldp	q2, q0, [x9]
	str	q2, [sp, #416]                  // 16-byte Folded Spill
	ldr	q1, [x8]
	stp	q0, q1, [x29, #-240]            // 32-byte Folded Spill
	ldr	q0, [x8, #16]
	stur	q0, [x29, #-256]                // 16-byte Folded Spill
	mov	v0.16b, v2.16b
	bl	__addtf3
	str	q0, [sp, #400]                  // 16-byte Folded Spill
	ldp	q1, q0, [x29, #-256]            // 32-byte Folded Reload
	bl	__addtf3
	str	q0, [sp, #384]                  // 16-byte Folded Spill
	ldr	q0, [sp, #416]                  // 16-byte Folded Reload
	ldur	q1, [x29, #-224]                // 16-byte Folded Reload
	bl	__subtf3
	stur	q0, [x29, #-224]                // 16-byte Folded Spill
	ldp	q1, q0, [x29, #-256]            // 32-byte Folded Reload
	bl	__subtf3
	mov	w8, #2
	mov	w9, #6
	bfi	x8, x27, #3, #61
	bfi	x9, x27, #3, #61
	stur	q0, [x29, #-240]                // 16-byte Folded Spill
	mul	x8, x8, x25
	mul	x9, x9, x25
	add	x8, x23, x8, lsl #5
	add	x9, x23, x9, lsl #5
	ldp	q2, q0, [x8]
	str	q2, [sp, #320]                  // 16-byte Folded Spill
	str	q0, [sp, #416]                  // 16-byte Folded Spill
	ldp	q1, q0, [x9]
	stur	q1, [x29, #-256]                // 16-byte Folded Spill
	str	q0, [sp, #336]                  // 16-byte Folded Spill
	mov	v0.16b, v2.16b
	bl	__addtf3
	str	q0, [sp, #368]                  // 16-byte Folded Spill
	ldr	q0, [sp, #416]                  // 16-byte Folded Reload
	ldr	q1, [sp, #336]                  // 16-byte Folded Reload
	bl	__addtf3
	str	q0, [sp, #352]                  // 16-byte Folded Spill
	ldr	q0, [sp, #320]                  // 16-byte Folded Reload
	ldur	q1, [x29, #-256]                // 16-byte Folded Reload
	bl	__subtf3
	stur	q0, [x29, #-256]                // 16-byte Folded Spill
	ldr	q0, [sp, #416]                  // 16-byte Folded Reload
	ldr	q1, [sp, #336]                  // 16-byte Folded Reload
	bl	__subtf3
	ldr	x8, [sp, #112]                  // 8-byte Folded Reload
	str	q0, [sp, #416]                  // 16-byte Folded Spill
	ldr	q0, [sp, #400]                  // 16-byte Folded Reload
	mul	x22, x27, x25
	ldr	q1, [sp, #368]                  // 16-byte Folded Reload
	add	x8, x27, x8
	mul	x23, x8, x25
	bl	__addtf3
	str	q0, [sp, #336]                  // 16-byte Folded Spill
	ldr	q0, [sp, #384]                  // 16-byte Folded Reload
	ldr	q1, [sp, #352]                  // 16-byte Folded Reload
	bl	__addtf3
	str	q0, [sp, #320]                  // 16-byte Folded Spill
	ldur	q0, [x29, #-192]                // 16-byte Folded Reload
	ldr	q1, [sp, #336]                  // 16-byte Folded Reload
	bl	__addtf3
	str	q0, [sp, #160]                  // 16-byte Folded Spill
	ldur	q0, [x29, #-208]                // 16-byte Folded Reload
	ldr	q1, [sp, #320]                  // 16-byte Folded Reload
	bl	__addtf3
	ldr	x26, [sp, #136]                 // 8-byte Folded Reload
	ldr	q1, [sp, #160]                  // 16-byte Folded Reload
	add	x8, x26, x22, lsl #5
	stp	q1, q0, [x8]
	ldr	q0, [sp, #336]                  // 16-byte Folded Reload
	ldur	q1, [x29, #-192]                // 16-byte Folded Reload
	bl	__subtf3
	stur	q0, [x29, #-192]                // 16-byte Folded Spill
	ldr	q0, [sp, #320]                  // 16-byte Folded Reload
	ldur	q1, [x29, #-208]                // 16-byte Folded Reload
	bl	__subtf3
	add	x10, x26, x23, lsl #5
	ldur	q1, [x29, #-192]                // 16-byte Folded Reload
	ldr	x8, [sp, #104]                  // 8-byte Folded Reload
	ldr	x9, [sp, #80]                   // 8-byte Folded Reload
	stp	q1, q0, [x10]
	ldr	q0, [sp, #400]                  // 16-byte Folded Reload
	ldr	q1, [sp, #368]                  // 16-byte Folded Reload
	add	x8, x27, x8
	add	x9, x27, x9
	mul	x22, x8, x25
	mul	x23, x9, x25
	bl	__subtf3
	stur	q0, [x29, #-208]                // 16-byte Folded Spill
	ldr	q0, [sp, #384]                  // 16-byte Folded Reload
	ldr	q1, [sp, #352]                  // 16-byte Folded Reload
	bl	__subtf3
	stur	q0, [x29, #-192]                // 16-byte Folded Spill
	ldur	q0, [x29, #-176]                // 16-byte Folded Reload
	ldur	q1, [x29, #-208]                // 16-byte Folded Reload
	bl	__addtf3
	str	q0, [sp, #400]                  // 16-byte Folded Spill
	ldur	q0, [x29, #-192]                // 16-byte Folded Reload
	ldur	q1, [x29, #-128]                // 16-byte Folded Reload
	bl	__subtf3
	add	x8, x26, x22, lsl #5
	ldr	q1, [sp, #400]                  // 16-byte Folded Reload
	stp	q1, q0, [x8]
	ldur	q0, [x29, #-208]                // 16-byte Folded Reload
	ldur	q1, [x29, #-176]                // 16-byte Folded Reload
	bl	__subtf3
	stur	q0, [x29, #-176]                // 16-byte Folded Spill
	ldur	q0, [x29, #-128]                // 16-byte Folded Reload
	ldur	q1, [x29, #-192]                // 16-byte Folded Reload
	bl	__addtf3
	add	x10, x26, x23, lsl #5
	ldur	q1, [x29, #-176]                // 16-byte Folded Reload
	ldr	x9, [sp, #88]                   // 8-byte Folded Reload
	add	x8, x27, x19
	stp	q1, q0, [x10]
	ldur	q0, [x29, #-224]                // 16-byte Folded Reload
	ldr	q1, [sp, #416]                  // 16-byte Folded Reload
	add	x9, x27, x9
	mul	x22, x8, x25
	mul	x23, x9, x25
	bl	__addtf3
	stur	q0, [x29, #-128]                // 16-byte Folded Spill
	ldp	q1, q0, [x29, #-256]            // 32-byte Folded Reload
	bl	__subtf3
	stur	q0, [x29, #-176]                // 16-byte Folded Spill
	ldp	q0, q1, [x29, #-144]            // 32-byte Folded Reload
	bl	__addtf3
	stur	q0, [x29, #-192]                // 16-byte Folded Spill
	ldp	q1, q0, [x29, #-176]            // 32-byte Folded Reload
	bl	__addtf3
	add	x8, x26, x22, lsl #5
	ldur	q1, [x29, #-192]                // 16-byte Folded Reload
	stp	q1, q0, [x8]
	ldp	q1, q0, [x29, #-144]            // 32-byte Folded Reload
	bl	__subtf3
	stur	q0, [x29, #-128]                // 16-byte Folded Spill
	ldp	q0, q1, [x29, #-176]            // 32-byte Folded Reload
	bl	__subtf3
	add	x10, x26, x23, lsl #5
	ldur	q1, [x29, #-128]                // 16-byte Folded Reload
	ldr	x8, [sp, #96]                   // 8-byte Folded Reload
	str	x27, [sp, #160]                 // 8-byte Folded Spill
	ldr	x9, [sp, #72]                   // 8-byte Folded Reload
	stp	q1, q0, [x10]
	ldur	q0, [x29, #-224]                // 16-byte Folded Reload
	ldr	q1, [sp, #416]                  // 16-byte Folded Reload
	add	x8, x27, x8
	add	x9, x27, x9
	mul	x22, x8, x25
	mul	x23, x9, x25
	bl	__subtf3
	stur	q0, [x29, #-128]                // 16-byte Folded Spill
	ldp	q1, q0, [x29, #-256]            // 32-byte Folded Reload
	bl	__addtf3
	stur	q0, [x29, #-144]                // 16-byte Folded Spill
	ldur	q0, [x29, #-96]                 // 16-byte Folded Reload
	ldur	q1, [x29, #-128]                // 16-byte Folded Reload
	bl	__addtf3
	stur	q0, [x29, #-160]                // 16-byte Folded Spill
	ldur	q0, [x29, #-112]                // 16-byte Folded Reload
	ldur	q1, [x29, #-144]                // 16-byte Folded Reload
	bl	__addtf3
	add	x8, x26, x22, lsl #5
	ldur	q1, [x29, #-160]                // 16-byte Folded Reload
	stp	q1, q0, [x8]
	ldur	q0, [x29, #-128]                // 16-byte Folded Reload
	ldur	q1, [x29, #-96]                 // 16-byte Folded Reload
	bl	__subtf3
	stur	q0, [x29, #-96]                 // 16-byte Folded Spill
	ldur	q0, [x29, #-144]                // 16-byte Folded Reload
	ldur	q1, [x29, #-112]                // 16-byte Folded Reload
	bl	__subtf3
	ldp	x21, x20, [sp, #16]             // 16-byte Folded Reload
	add	x8, x26, x23, lsl #5
	cmp	x25, #2
	ldr	x25, [sp, #152]                 // 8-byte Folded Reload
	ldur	q1, [x29, #-96]                 // 16-byte Folded Reload
	ldr	x27, [sp, #184]                 // 8-byte Folded Reload
	ldr	x26, [sp, #48]                  // 8-byte Folded Reload
	ldr	x19, [sp, #8]                   // 8-byte Folded Reload
	stp	q1, q0, [x8]
	b.lo	.LBB33_6
// %bb.8:                               //   in Loop: Header=BB33_7 Depth=1
	mov	x22, xzr
	ldr	x23, [sp]                       // 8-byte Folded Reload
.LBB33_9:                               //   Parent Loop BB33_7 Depth=1
                                        // =>  This Inner Loop Header: Depth=2
	add	x8, x27, x22
	ldr	x9, [sp, #280]                  // 8-byte Folded Reload
	add	x9, x9, x22
	ldp	q2, q0, [x8, #-16]
	ldur	q1, [x9, #-16]
	stp	q0, q1, [x29, #-112]            // 32-byte Folded Spill
	ldr	q0, [x9]
	stp	q2, q0, [x29, #-176]            // 32-byte Folded Spill
	mov	v0.16b, v2.16b
	bl	__addtf3
	stur	q0, [x29, #-128]                // 16-byte Folded Spill
	ldur	q0, [x29, #-112]                // 16-byte Folded Reload
	ldur	q1, [x29, #-160]                // 16-byte Folded Reload
	bl	__addtf3
	stur	q0, [x29, #-144]                // 16-byte Folded Spill
	ldur	q0, [x29, #-176]                // 16-byte Folded Reload
	ldur	q1, [x29, #-96]                 // 16-byte Folded Reload
	bl	__subtf3
	stur	q0, [x29, #-96]                 // 16-byte Folded Spill
	ldur	q0, [x29, #-112]                // 16-byte Folded Reload
	ldur	q1, [x29, #-160]                // 16-byte Folded Reload
	bl	__subtf3
	ldr	x8, [sp, #272]                  // 8-byte Folded Reload
	stur	q0, [x29, #-112]                // 16-byte Folded Spill
	ldr	x9, [sp, #256]                  // 8-byte Folded Reload
	add	x8, x8, x22
	add	x9, x9, x22
	ldp	q2, q0, [x8, #-16]
	ldur	q1, [x9, #-16]
	stp	q0, q1, [x29, #-208]            // 32-byte Folded Spill
	ldr	q0, [x9]
	stp	q2, q0, [x29, #-240]            // 32-byte Folded Spill
	mov	v0.16b, v2.16b
	bl	__addtf3
	stur	q0, [x29, #-160]                // 16-byte Folded Spill
	ldp	q1, q0, [x29, #-224]            // 32-byte Folded Reload
	bl	__addtf3
	stur	q0, [x29, #-176]                // 16-byte Folded Spill
	ldur	q0, [x29, #-240]                // 16-byte Folded Reload
	ldur	q1, [x29, #-192]                // 16-byte Folded Reload
	bl	__subtf3
	stur	q0, [x29, #-192]                // 16-byte Folded Spill
	ldp	q1, q0, [x29, #-224]            // 32-byte Folded Reload
	bl	__subtf3
	stur	q0, [x29, #-208]                // 16-byte Folded Spill
	ldur	q0, [x29, #-128]                // 16-byte Folded Reload
	ldur	q1, [x29, #-160]                // 16-byte Folded Reload
	bl	__addtf3
	stur	q0, [x29, #-256]                // 16-byte Folded Spill
	ldur	q0, [x29, #-144]                // 16-byte Folded Reload
