	.text
	.file	"main.cc"
	.globl	_Z15surrounding_box4aabbS_      // -- Begin function _Z15surrounding_box4aabbS_
	.p2align	2
	.type	_Z15surrounding_box4aabbS_,@function
_Z15surrounding_box4aabbS_:             // @_Z15surrounding_box4aabbS_
	.cfi_startproc
// %bb.0:
	ldp	d0, d1, [x0]
	ldp	d2, d3, [x1]
	ldp	d4, d5, [x0, #16]
	fminnm	d0, d0, d2
	ldp	d16, d2, [x1, #16]
	fminnm	d1, d1, d3
	ldp	d6, d7, [x0, #32]
	str	d0, [x8]
	fminnm	d4, d4, d16
	ldp	d3, d16, [x1, #32]
	fmaxnm	d2, d5, d2
	str	d1, [x8, #8]
	str	d4, [x8, #16]
	fmaxnm	d3, d6, d3
	fmaxnm	d0, d7, d16
	str	d2, [x8, #24]
	str	d3, [x8, #32]
	str	d0, [x8, #40]
	ret
.Lfunc_end0:
	.size	_Z15surrounding_box4aabbS_, .Lfunc_end0-_Z15surrounding_box4aabbS_
	.cfi_endproc
                                        // -- End function
	.globl	_ZNK9translate3hitERK3rayddR10hit_record // -- Begin function _ZNK9translate3hitERK3rayddR10hit_record
	.p2align	2
	.type	_ZNK9translate3hitERK3rayddR10hit_record,@function
_ZNK9translate3hitERK3rayddR10hit_record: // @_ZNK9translate3hitERK3rayddR10hit_record
	.cfi_startproc
// %bb.0:
	sub	sp, sp, #96
	stp	x29, x30, [sp, #64]             // 16-byte Folded Spill
	add	x29, sp, #64
	stp	x20, x19, [sp, #80]             // 16-byte Folded Spill
	.cfi_def_cfa w29, 32
	.cfi_offset w19, -8
	.cfi_offset w20, -16
	.cfi_offset w30, -24
	.cfi_offset w29, -32
	ldr	q2, [x1]
	mov	x20, x0
	ldr	d3, [x1, #16]
	mov	x19, x2
	ldur	q4, [x0, #24]
	ldr	d5, [x0, #40]
	ldr	x0, [x0, #8]
	fsub	v2.2d, v2.2d, v4.2d
	ldur	q4, [x1, #24]
	fsub	d3, d3, d5
	ldur	q5, [x1, #40]
	mov	x1, sp
	stur	q4, [sp, #24]
	str	q2, [sp]
	str	d3, [sp, #16]
	stur	q5, [sp, #40]
	ldr	x8, [x0]
	ldr	x8, [x8]
	blr	x8
	tbz	w0, #0, .LBB1_2
// %bb.1:
	ldp	d2, d5, [x19]
	ldr	d0, [x20, #24]
	ldp	d4, d1, [sp, #24]
	fadd	d0, d0, d2
	ldr	d6, [x19, #24]
	ldp	d3, d2, [x19, #32]
	str	d0, [x19]
	fmul	d1, d1, d3
	fneg	d7, d2
	fmadd	d0, d4, d6, d1
	ldr	d1, [x20, #32]
	ldr	d4, [sp, #40]
	fadd	d1, d1, d5
	fneg	d5, d6
	fmadd	d0, d4, d2, d0
	ldr	d4, [x19, #16]
	str	d1, [x19, #8]
	fneg	d1, d3
	fcmp	d0, #0.0
	ldr	d0, [x20, #40]
	fadd	d0, d0, d4
	fcsel	d4, d6, d5, mi
	fcsel	d1, d3, d1, mi
	fcsel	d2, d2, d7, mi
	cset	w8, mi
	stp	d0, d4, [x19, #16]
	strb	w8, [x19, #88]
	stp	d1, d2, [x19, #32]
.LBB1_2:
	ldp	x20, x19, [sp, #80]             // 16-byte Folded Reload
	and	w0, w0, #0x1
	ldp	x29, x30, [sp, #64]             // 16-byte Folded Reload
	add	sp, sp, #96
	ret
.Lfunc_end1:
	.size	_ZNK9translate3hitERK3rayddR10hit_record, .Lfunc_end1-_ZNK9translate3hitERK3rayddR10hit_record
	.cfi_endproc
                                        // -- End function
	.globl	_ZNK9translate12bounding_boxEddR4aabb // -- Begin function _ZNK9translate12bounding_boxEddR4aabb
	.p2align	2
	.type	_ZNK9translate12bounding_boxEddR4aabb,@function
_ZNK9translate12bounding_boxEddR4aabb:  // @_ZNK9translate12bounding_boxEddR4aabb
	.cfi_startproc
// %bb.0:
	stp	x29, x30, [sp, #-32]!           // 16-byte Folded Spill
	stp	x20, x19, [sp, #16]             // 16-byte Folded Spill
	mov	x29, sp
	.cfi_def_cfa w29, 32
	.cfi_offset w19, -8
	.cfi_offset w20, -16
	.cfi_offset w30, -24
	.cfi_offset w29, -32
	mov	x20, x0
	ldr	x0, [x0, #8]
	mov	x19, x1
	ldr	x8, [x0]
	ldr	x8, [x8, #8]
	blr	x8
	tbz	w0, #0, .LBB2_2
// %bb.1:
	ldur	q0, [x20, #24]
	ldr	d1, [x20, #40]
	ldp	q2, q3, [x19]
	dup	v4.2d, v0.d[1]
	zip1	v5.2d, v1.2d, v0.2d
	mov	v4.d[1], v1.d[0]
	fadd	v0.2d, v2.2d, v0.2d
	ldr	q1, [x19, #32]
	fadd	v2.2d, v5.2d, v3.2d
	fadd	v1.2d, v4.2d, v1.2d
	stp	q0, q2, [x19]
	str	q1, [x19, #32]
.LBB2_2:
	ldp	x20, x19, [sp, #16]             // 16-byte Folded Reload
	and	w0, w0, #0x1
	ldp	x29, x30, [sp], #32             // 16-byte Folded Reload
	ret
.Lfunc_end2:
	.size	_ZNK9translate12bounding_boxEddR4aabb, .Lfunc_end2-_ZNK9translate12bounding_boxEddR4aabb
	.cfi_endproc
                                        // -- End function
	.section	.rodata.cst8,"aM",@progbits,8
	.p2align	3                               // -- Begin function _ZN8rotate_yC2ESt10shared_ptrI8hittableEd
.LCPI3_0:
	.xword	0x400921fb54442d18              // double 3.1415926535897931
	.text
	.globl	_ZN8rotate_yC2ESt10shared_ptrI8hittableEd
	.p2align	2
	.type	_ZN8rotate_yC2ESt10shared_ptrI8hittableEd,@function
_ZN8rotate_yC2ESt10shared_ptrI8hittableEd: // @_ZN8rotate_yC2ESt10shared_ptrI8hittableEd
.Lfunc_begin0:
	.cfi_startproc
	.cfi_personality 156, DW.ref.__gxx_personality_v0
	.cfi_lsda 28, .Lexception0
// %bb.0:
	str	d8, [sp, #-48]!                 // 8-byte Folded Spill
	stp	x29, x30, [sp, #8]              // 16-byte Folded Spill
	add	x29, sp, #8
	str	x21, [sp, #24]                  // 8-byte Folded Spill
	stp	x20, x19, [sp, #32]             // 16-byte Folded Spill
	.cfi_def_cfa w29, 40
	.cfi_offset w19, -8
	.cfi_offset w20, -16
	.cfi_offset w21, -24
	.cfi_offset w30, -32
	.cfi_offset w29, -40
	.cfi_offset b8, -48
	ldp	x10, x8, [x1]
	fmov	d8, d0
	adrp	x9, _ZTV8rotate_y+16
	mov	x19, x0
	add	x9, x9, :lo12:_ZTV8rotate_y+16
	mov	x20, x0
	str	x9, [x0]
	str	x10, [x20, #8]!
	str	x8, [x0, #16]
	cbz	x8, .LBB3_4
// %bb.1:
	adrp	x9, :got:__libc_single_threaded
	ldr	x9, [x9, :got_lo12:__libc_single_threaded]
	ldrb	w9, [x9]
	cbz	w9, .LBB3_3
// %bb.2:
	ldr	w9, [x8, #8]
	add	w9, w9, #1
	str	w9, [x8, #8]
	b	.LBB3_4
.LBB3_3:
	add	x1, x8, #8
	mov	w0, #1
	bl	__aarch64_ldadd4_acq_rel
.LBB3_4:
	adrp	x8, .LCPI3_0
	mov	x21, x19
	ldr	d0, [x8, :lo12:.LCPI3_0]
	mov	x8, #140737488355328
	movk	x8, #16486, lsl #48
	fmul	d0, d8, d0
	fmov	d1, x8
	fdiv	d8, d0, d1
	movi	v0.2d, #0000000000000000
	str	q0, [x21, #48]!
	stp	q0, q0, [x21, #16]
	fmov	d0, d8
	bl	sin
	stur	d0, [x21, #-24]
	fmov	d0, d8
	bl	cos
	ldur	x0, [x21, #-40]
	stur	d0, [x21, #-16]
	ldr	x8, [x0]
	ldr	x8, [x8, #8]
.Ltmp0:
	movi	d0, #0000000000000000
	fmov	d1, #1.00000000
	mov	x1, x21
	movi	d8, #0000000000000000
	blr	x8
.Ltmp1:
// %bb.5:
	ldp	d1, d2, [x19, #64]
	mov	x8, #9218868437227405312
	ldp	d26, d0, [x19, #80]
	ldp	d6, d5, [x19, #24]
	ldp	d3, d7, [x19, #48]
	fmadd	d4, d0, d8, d1
	fmul	d1, d1, d8
	ldp	x29, x30, [sp, #8]              // 16-byte Folded Reload
	fmadd	d16, d2, d8, d3
	fmul	d3, d3, d8
	fmul	d17, d6, d4
	fadd	d0, d0, d1
	fmul	d1, d5, d4
	fmov	d4, x8
	mov	x8, #-4503599627370496
	fmadd	d28, d26, d8, d7
	fadd	d2, d2, d3
	fmul	d7, d7, d8
	fmadd	d18, d5, d16, d17
	fmul	d19, d6, d0
	fmsub	d20, d6, d16, d1
	fmul	d0, d5, d0
	fmov	d21, x8
	and	w8, w0, #0x1
	fmadd	d17, d5, d2, d17
	fmsub	d1, d6, d2, d1
	fminnm	d22, d18, d4
	fmadd	d23, d5, d16, d19
	fminnm	d24, d20, d4
	fmsub	d16, d6, d16, d0
	fmaxnm	d25, d18, d21
	fmaxnm	d27, d20, d21
	fminnm	d4, d28, d4
	fadd	d7, d26, d7
	fminnm	d22, d22, d23
	fmaxnm	d21, d28, d21
	fminnm	d24, d24, d16
	fmadd	d5, d5, d2, d19
	fmaxnm	d25, d25, d23
	fmaxnm	d27, d27, d16
	fmsub	d0, d6, d2, d0
	fminnm	d4, d4, d7
	fminnm	d3, d22, d18
	strb	w8, [x19, #40]
	fminnm	d22, d24, d20
	ldr	x21, [sp, #24]                  // 8-byte Folded Reload
	fmaxnm	d18, d25, d18
	fmaxnm	d20, d27, d20
	fminnm	d4, d4, d28
	fminnm	d3, d3, d23
	fminnm	d22, d22, d16
	fmaxnm	d18, d18, d23
	fmaxnm	d16, d20, d16
	fminnm	d4, d4, d7
	fminnm	d3, d3, d17
	fminnm	d2, d22, d1
	fmaxnm	d6, d18, d17
	fmaxnm	d16, d16, d1
	fmaxnm	d18, d21, d7
	str	d4, [x19, #56]
	fminnm	d3, d3, d5
	fminnm	d2, d2, d0
	fmaxnm	d6, d6, d5
	fmaxnm	d16, d16, d0
	fmaxnm	d18, d18, d28
	fminnm	d3, d3, d17
	fminnm	d2, d2, d1
	fmaxnm	d6, d6, d17
	fmaxnm	d1, d16, d1
	fmaxnm	d7, d18, d7
	fminnm	d3, d3, d5
	fminnm	d2, d2, d0
	fmaxnm	d4, d6, d5
	fmaxnm	d0, d1, d0
	str	d7, [x19, #80]
	str	d3, [x19, #48]
	str	d2, [x19, #64]
	str	d4, [x19, #72]
	str	d0, [x19, #88]
	ldp	x20, x19, [sp, #32]             // 16-byte Folded Reload
	ldr	d8, [sp], #48                   // 8-byte Folded Reload
	ret
.LBB3_6:
.Ltmp2:
	mov	x19, x0
	mov	x0, x20
	bl	_ZNSt12__shared_ptrI8hittableLN9__gnu_cxx12_Lock_policyE2EED2Ev
	mov	x0, x19
	bl	_Unwind_Resume
.Lfunc_end3:
	.size	_ZN8rotate_yC2ESt10shared_ptrI8hittableEd, .Lfunc_end3-_ZN8rotate_yC2ESt10shared_ptrI8hittableEd
	.cfi_endproc
	.section	.gcc_except_table,"a",@progbits
	.p2align	2
GCC_except_table3:
.Lexception0:
	.byte	255                             // @LPStart Encoding = omit
	.byte	255                             // @TType Encoding = omit
	.byte	1                               // Call site Encoding = uleb128
	.uleb128 .Lcst_end0-.Lcst_begin0
.Lcst_begin0:
	.uleb128 .Lfunc_begin0-.Lfunc_begin0    // >> Call Site 1 <<
	.uleb128 .Ltmp0-.Lfunc_begin0           //   Call between .Lfunc_begin0 and .Ltmp0
	.byte	0                               //     has no landing pad
	.byte	0                               //   On action: cleanup
	.uleb128 .Ltmp0-.Lfunc_begin0           // >> Call Site 2 <<
	.uleb128 .Ltmp1-.Ltmp0                  //   Call between .Ltmp0 and .Ltmp1
	.uleb128 .Ltmp2-.Lfunc_begin0           //     jumps to .Ltmp2
	.byte	0                               //   On action: cleanup
	.uleb128 .Ltmp1-.Lfunc_begin0           // >> Call Site 3 <<
	.uleb128 .Lfunc_end3-.Ltmp1             //   Call between .Ltmp1 and .Lfunc_end3
	.byte	0                               //     has no landing pad
	.byte	0                               //   On action: cleanup
.Lcst_end0:
	.p2align	2
                                        // -- End function
	.text
	.globl	_ZNK8rotate_y3hitERK3rayddR10hit_record // -- Begin function _ZNK8rotate_y3hitERK3rayddR10hit_record
	.p2align	2
	.type	_ZNK8rotate_y3hitERK3rayddR10hit_record,@function
_ZNK8rotate_y3hitERK3rayddR10hit_record: // @_ZNK8rotate_y3hitERK3rayddR10hit_record
	.cfi_startproc
// %bb.0:
	sub	sp, sp, #96
	stp	x29, x30, [sp, #64]             // 16-byte Folded Spill
	add	x29, sp, #64
	stp	x20, x19, [sp, #80]             // 16-byte Folded Spill
	.cfi_def_cfa w29, 32
	.cfi_offset w19, -8
	.cfi_offset w20, -16
	.cfi_offset w30, -24
	.cfi_offset w29, -32
	ldp	d2, d3, [x0, #24]
	mov	x20, x0
	mov	x19, x2
	ldp	d19, d4, [x1, #32]
	ldp	d6, d16, [x1, #16]
	fneg	d5, d2
	ldr	x0, [x0, #8]
	fmul	d7, d4, d3
	fmul	d17, d6, d5
	fmul	d6, d6, d3
	fmul	d4, d4, d5
	fmadd	d5, d2, d16, d7
	ldp	d18, d7, [x1]
	stp	d19, d5, [sp, #40]
	fmadd	d17, d3, d18, d17
	fmadd	d2, d2, d18, d6
	fmadd	d3, d3, d16, d4
	ldr	d4, [x1, #48]
	add	x1, sp, #8
	stp	d17, d7, [sp, #8]
	stp	d2, d3, [sp, #24]
	str	d4, [sp, #56]
	ldr	x8, [x0]
	ldr	x8, [x8]
	blr	x8
	tbz	w0, #0, .LBB4_2
// %bb.1:
	ldp	d2, d1, [x19, #32]
	ldp	d0, d3, [x20, #24]
	ldp	d18, d5, [x19, #16]
	ldp	d16, d6, [sp, #32]
	fmul	d4, d0, d1
	fmul	d1, d3, d1
	fneg	d20, d0
	ldr	d19, [x19]
	fmul	d6, d2, d6
	fmadd	d7, d3, d5, d4
	fmsub	d17, d0, d5, d1
	fnmadd	d4, d3, d5, d4
	fnmadd	d1, d20, d5, d1
	fmadd	d6, d16, d7, d6
	ldr	d16, [sp, #48]
	fmadd	d6, d16, d17, d6
	fmul	d16, d0, d18
	fmul	d18, d3, d18
	fcmp	d6, #0.0
	fneg	d6, d2
	fmadd	d3, d3, d19, d16
	fmsub	d0, d0, d19, d18
	fcsel	d4, d7, d4, mi
	fcsel	d1, d17, d1, mi
	fcsel	d2, d2, d6, mi
	cset	w8, mi
	str	d3, [x19]
	strb	w8, [x19, #88]
	stp	d0, d4, [x19, #16]
	stp	d2, d1, [x19, #32]
.LBB4_2:
	ldp	x20, x19, [sp, #80]             // 16-byte Folded Reload
	and	w0, w0, #0x1
	ldp	x29, x30, [sp, #64]             // 16-byte Folded Reload
	add	sp, sp, #96
	ret
.Lfunc_end4:
	.size	_ZNK8rotate_y3hitERK3rayddR10hit_record, .Lfunc_end4-_ZNK8rotate_y3hitERK3rayddR10hit_record
	.cfi_endproc
                                        // -- End function
	.section	.rodata.cst16,"aM",@progbits,16
	.p2align	4                               // -- Begin function _ZNK7xy_rect3hitERK3rayddR10hit_record
.LCPI5_0:
	.xword	0x8000000000000000              // double -0
	.xword	0xbff0000000000000              // double -1
.LCPI5_1:
	.xword	0x0000000000000000              // double 0
	.xword	0x3ff0000000000000              // double 1
	.text
	.globl	_ZNK7xy_rect3hitERK3rayddR10hit_record
	.p2align	2
	.type	_ZNK7xy_rect3hitERK3rayddR10hit_record,@function
_ZNK7xy_rect3hitERK3rayddR10hit_record: // @_ZNK7xy_rect3hitERK3rayddR10hit_record
	.cfi_startproc
// %bb.0:
	sub	sp, sp, #80
	stp	x29, x30, [sp, #16]             // 16-byte Folded Spill
	add	x29, sp, #16
	str	x23, [sp, #32]                  // 8-byte Folded Spill
	stp	x22, x21, [sp, #48]             // 16-byte Folded Spill
	stp	x20, x19, [sp, #64]             // 16-byte Folded Spill
	.cfi_def_cfa w29, 64
	.cfi_offset w19, -8
	.cfi_offset w20, -16
	.cfi_offset w21, -24
	.cfi_offset w22, -32
	.cfi_offset w23, -48
	.cfi_offset w30, -56
	.cfi_offset w29, -64
	ldr	d2, [x1, #16]
	ldr	d3, [x0, #56]
	fsub	d2, d3, d2
	ldr	d3, [x1, #40]
	fdiv	d6, d2, d3
	fcmp	d6, d0
	fccmp	d6, d1, #0, pl
	b.gt	.LBB5_5
// %bb.1:
	ldr	d0, [x1, #24]
	mov	x19, x1
	ldr	d1, [x1]
	fmadd	d0, d6, d0, d1
	ldr	d1, [x0, #24]
	fcmp	d0, d1
	b.mi	.LBB5_5
// %bb.2:
	ldr	d2, [x0, #32]
	fcmp	d0, d2
	b.gt	.LBB5_5
// %bb.3:
	ldr	d3, [x19, #32]
	ldr	d4, [x19, #8]
	fmadd	d3, d6, d3, d4
	ldr	d4, [x0, #40]
	fcmp	d3, d4
	b.mi	.LBB5_5
// %bb.4:
	ldr	d5, [x0, #48]
	fcmp	d3, d5
	b.le	.LBB5_6
.LBB5_5:
	mov	w0, wzr
	ldp	x20, x19, [sp, #64]             // 16-byte Folded Reload
	ldp	x22, x21, [sp, #48]             // 16-byte Folded Reload
	ldp	x29, x30, [sp, #16]             // 16-byte Folded Reload
	ldr	x23, [sp, #32]                  // 8-byte Folded Reload
	add	sp, sp, #80
	ret
.LBB5_6:
	fsub	d3, d3, d4
	fsub	d4, d5, d4
	fsub	d0, d0, d1
	fsub	d1, d2, d1
	str	d6, [x2, #64]
	adrp	x9, .LCPI5_0
	adrp	x10, .LCPI5_1
	ldr	x21, [x2, #56]
	fdiv	d3, d3, d4
	mov	x20, x2
	fdiv	d0, d0, d1
	stp	d0, d3, [x2, #72]
	movi	d0, #0000000000000000
	ldp	d2, d1, [x19, #24]
	fmul	d1, d1, d0
	fmadd	d0, d2, d0, d1
	ldr	d1, [x19, #40]
	ldr	q2, [x10, :lo12:.LCPI5_1]
	fadd	d0, d1, d0
	ldr	q1, [x9, :lo12:.LCPI5_0]
	fcmp	d0, #0.0
	cset	w8, mi
	dup	v0.2s, w8
	strb	w8, [x2, #88]
	ushll	v0.2d, v0.2s, #0
	shl	v0.2d, v0.2d, #63
	cmlt	v0.2d, v0.2d, #0
	bsl	v0.16b, v2.16b, v1.16b
	str	d0, [x2, #24]
	str	q0, [x2, #32]
	ldp	x9, x22, [x0, #8]
	str	x9, [x2, #48]
	cmp	x22, x21
	b.eq	.LBB5_22
// %bb.7:
	adrp	x23, :got:__libc_single_threaded
	ldr	x23, [x23, :got_lo12:__libc_single_threaded]
	cbz	x22, .LBB5_11
// %bb.8:
	ldrb	w8, [x23]
	cbz	w8, .LBB5_10
// %bb.9:
	ldr	w8, [x22, #8]
	add	w8, w8, #1
	str	w8, [x22, #8]
	b	.LBB5_11
.LBB5_10:
	add	x1, x22, #8
	mov	w0, #1
	str	q6, [sp]                        // 16-byte Folded Spill
	bl	__aarch64_ldadd4_acq_rel
	ldr	q6, [sp]                        // 16-byte Folded Reload
	ldr	x21, [x20, #56]
.LBB5_11:
	cbz	x21, .LBB5_21
// %bb.12:
	ldrb	w8, [x23]
	cbz	w8, .LBB5_14
// %bb.13:
	ldr	w0, [x21, #8]
	sub	w8, w0, #1
	str	w8, [x21, #8]
	b	.LBB5_15
.LBB5_14:
	add	x1, x21, #8
	mov	w0, #-1
	str	q6, [sp]                        // 16-byte Folded Spill
	bl	__aarch64_ldadd4_acq_rel
	ldr	q6, [sp]                        // 16-byte Folded Reload
.LBB5_15:
	cmp	w0, #1
	b.ne	.LBB5_21
// %bb.16:
	ldr	x8, [x21]
	mov	x0, x21
	str	q6, [sp]                        // 16-byte Folded Spill
	ldr	x8, [x8, #16]
	blr	x8
	ldrb	w8, [x23]
	cbz	w8, .LBB5_18
// %bb.17:
	ldr	w0, [x21, #12]
	sub	w8, w0, #1
	str	w8, [x21, #12]
	b	.LBB5_19
.LBB5_18:
	add	x1, x21, #12
	mov	w0, #-1
	bl	__aarch64_ldadd4_acq_rel
.LBB5_19:
	ldr	q6, [sp]                        // 16-byte Folded Reload
	cmp	w0, #1
	b.ne	.LBB5_21
// %bb.20:
	ldr	x8, [x21]
	mov	x0, x21
	ldr	x8, [x8, #24]
	blr	x8
	ldr	q6, [sp]                        // 16-byte Folded Reload
.LBB5_21:
	str	x22, [x20, #56]
.LBB5_22:
	ldur	q0, [x19, #24]
	mov	w0, #1
	ldr	d1, [x19, #40]
	ldr	q2, [x19]
	fmul	v0.2d, v0.2d, v6.d[0]
	ldr	d3, [x19, #16]
	fmul	d1, d6, d1
	fadd	v0.2d, v0.2d, v2.2d
	fadd	d1, d1, d3
	str	q0, [x20]
	str	d1, [x20, #16]
	ldp	x20, x19, [sp, #64]             // 16-byte Folded Reload
	ldp	x22, x21, [sp, #48]             // 16-byte Folded Reload
	ldp	x29, x30, [sp, #16]             // 16-byte Folded Reload
	ldr	x23, [sp, #32]                  // 8-byte Folded Reload
	add	sp, sp, #80
	ret
.Lfunc_end5:
	.size	_ZNK7xy_rect3hitERK3rayddR10hit_record, .Lfunc_end5-_ZNK7xy_rect3hitERK3rayddR10hit_record
	.cfi_endproc
                                        // -- End function
	.section	.rodata.cst16,"aM",@progbits,16
	.p2align	4                               // -- Begin function _ZNK7xz_rect3hitERK3rayddR10hit_record
.LCPI6_0:
	.xword	0x8000000000000000              // double -0
	.xword	0xbff0000000000000              // double -1
.LCPI6_1:
	.xword	0x0000000000000000              // double 0
	.xword	0x3ff0000000000000              // double 1
	.text
	.globl	_ZNK7xz_rect3hitERK3rayddR10hit_record
	.p2align	2
	.type	_ZNK7xz_rect3hitERK3rayddR10hit_record,@function
_ZNK7xz_rect3hitERK3rayddR10hit_record: // @_ZNK7xz_rect3hitERK3rayddR10hit_record
	.cfi_startproc
// %bb.0:
	sub	sp, sp, #80
	stp	x29, x30, [sp, #16]             // 16-byte Folded Spill
	add	x29, sp, #16
	str	x23, [sp, #32]                  // 8-byte Folded Spill
	stp	x22, x21, [sp, #48]             // 16-byte Folded Spill
	stp	x20, x19, [sp, #64]             // 16-byte Folded Spill
	.cfi_def_cfa w29, 64
	.cfi_offset w19, -8
	.cfi_offset w20, -16
	.cfi_offset w21, -24
	.cfi_offset w22, -32
	.cfi_offset w23, -48
	.cfi_offset w30, -56
	.cfi_offset w29, -64
	ldr	d2, [x1, #8]
	ldr	d3, [x0, #56]
	fsub	d2, d3, d2
	ldr	d3, [x1, #32]
	fdiv	d6, d2, d3
	fcmp	d6, d0
	fccmp	d6, d1, #0, pl
	b.gt	.LBB6_5
// %bb.1:
	ldr	d0, [x1, #24]
	mov	x19, x1
	ldr	d1, [x1]
	fmadd	d0, d6, d0, d1
	ldr	d1, [x0, #24]
	fcmp	d0, d1
	b.mi	.LBB6_5
// %bb.2:
	ldr	d2, [x0, #32]
	fcmp	d0, d2
	b.gt	.LBB6_5
// %bb.3:
	ldr	d3, [x19, #40]
	ldr	d4, [x19, #16]
	fmadd	d3, d6, d3, d4
	ldr	d4, [x0, #40]
	fcmp	d3, d4
	b.mi	.LBB6_5
// %bb.4:
	ldr	d5, [x0, #48]
	fcmp	d3, d5
	b.le	.LBB6_6
.LBB6_5:
	mov	w0, wzr
	ldp	x20, x19, [sp, #64]             // 16-byte Folded Reload
	ldp	x22, x21, [sp, #48]             // 16-byte Folded Reload
	ldp	x29, x30, [sp, #16]             // 16-byte Folded Reload
	ldr	x23, [sp, #32]                  // 8-byte Folded Reload
	add	sp, sp, #80
	ret
.LBB6_6:
	fsub	d3, d3, d4
	fsub	d4, d5, d4
	fsub	d0, d0, d1
	fsub	d1, d2, d1
	str	d6, [x2, #64]
	adrp	x9, .LCPI6_0
	adrp	x10, .LCPI6_1
	ldr	x21, [x2, #56]
	fdiv	d3, d3, d4
	mov	x20, x2
	fdiv	d0, d0, d1
	stp	d0, d3, [x2, #72]
	movi	d0, #0000000000000000
	ldp	d1, d2, [x19, #24]
	fmadd	d1, d1, d0, d2
	ldr	d2, [x19, #40]
	fmadd	d0, d2, d0, d1
	ldr	q1, [x9, :lo12:.LCPI6_0]
	ldr	q2, [x10, :lo12:.LCPI6_1]
	fcmp	d0, #0.0
	cset	w8, mi
	dup	v0.2s, w8
	strb	w8, [x2, #88]
	ushll	v0.2d, v0.2s, #0
	shl	v0.2d, v0.2d, #63
	cmlt	v0.2d, v0.2d, #0
	bsl	v0.16b, v2.16b, v1.16b
	stur	q0, [x2, #24]
	str	d0, [x2, #40]
	ldp	x9, x22, [x0, #8]
	str	x9, [x2, #48]
	cmp	x22, x21
	b.eq	.LBB6_22
// %bb.7:
	adrp	x23, :got:__libc_single_threaded
	ldr	x23, [x23, :got_lo12:__libc_single_threaded]
	cbz	x22, .LBB6_11
// %bb.8:
	ldrb	w8, [x23]
	cbz	w8, .LBB6_10
// %bb.9:
	ldr	w8, [x22, #8]
	add	w8, w8, #1
	str	w8, [x22, #8]
	b	.LBB6_11
.LBB6_10:
	add	x1, x22, #8
	mov	w0, #1
	str	q6, [sp]                        // 16-byte Folded Spill
	bl	__aarch64_ldadd4_acq_rel
	ldr	q6, [sp]                        // 16-byte Folded Reload
	ldr	x21, [x20, #56]
.LBB6_11:
	cbz	x21, .LBB6_21
// %bb.12:
	ldrb	w8, [x23]
	cbz	w8, .LBB6_14
// %bb.13:
	ldr	w0, [x21, #8]
	sub	w8, w0, #1
	str	w8, [x21, #8]
	b	.LBB6_15
.LBB6_14:
	add	x1, x21, #8
	mov	w0, #-1
	str	q6, [sp]                        // 16-byte Folded Spill
	bl	__aarch64_ldadd4_acq_rel
	ldr	q6, [sp]                        // 16-byte Folded Reload
.LBB6_15:
	cmp	w0, #1
	b.ne	.LBB6_21
// %bb.16:
	ldr	x8, [x21]
	mov	x0, x21
	str	q6, [sp]                        // 16-byte Folded Spill
	ldr	x8, [x8, #16]
	blr	x8
	ldrb	w8, [x23]
	cbz	w8, .LBB6_18
// %bb.17:
	ldr	w0, [x21, #12]
	sub	w8, w0, #1
	str	w8, [x21, #12]
	b	.LBB6_19
.LBB6_18:
	add	x1, x21, #12
	mov	w0, #-1
	bl	__aarch64_ldadd4_acq_rel
.LBB6_19:
	ldr	q6, [sp]                        // 16-byte Folded Reload
	cmp	w0, #1
	b.ne	.LBB6_21
// %bb.20:
	ldr	x8, [x21]
	mov	x0, x21
	ldr	x8, [x8, #24]
	blr	x8
	ldr	q6, [sp]                        // 16-byte Folded Reload
.LBB6_21:
	str	x22, [x20, #56]
.LBB6_22:
	ldur	q0, [x19, #24]
	mov	w0, #1
	ldr	d1, [x19, #40]
	ldr	q2, [x19]
	fmul	v0.2d, v0.2d, v6.d[0]
	ldr	d3, [x19, #16]
	fmul	d1, d6, d1
	fadd	v0.2d, v0.2d, v2.2d
	fadd	d1, d1, d3
	str	q0, [x20]
	str	d1, [x20, #16]
	ldp	x20, x19, [sp, #64]             // 16-byte Folded Reload
	ldp	x22, x21, [sp, #48]             // 16-byte Folded Reload
	ldp	x29, x30, [sp, #16]             // 16-byte Folded Reload
	ldr	x23, [sp, #32]                  // 8-byte Folded Reload
	add	sp, sp, #80
	ret
.Lfunc_end6:
	.size	_ZNK7xz_rect3hitERK3rayddR10hit_record, .Lfunc_end6-_ZNK7xz_rect3hitERK3rayddR10hit_record
	.cfi_endproc
                                        // -- End function
	.globl	_ZNK7yz_rect3hitERK3rayddR10hit_record // -- Begin function _ZNK7yz_rect3hitERK3rayddR10hit_record
	.p2align	2
	.type	_ZNK7yz_rect3hitERK3rayddR10hit_record,@function
_ZNK7yz_rect3hitERK3rayddR10hit_record: // @_ZNK7yz_rect3hitERK3rayddR10hit_record
	.cfi_startproc
// %bb.0:
	sub	sp, sp, #80
	stp	x29, x30, [sp, #16]             // 16-byte Folded Spill
	add	x29, sp, #16
	str	x23, [sp, #32]                  // 8-byte Folded Spill
	stp	x22, x21, [sp, #48]             // 16-byte Folded Spill
	stp	x20, x19, [sp, #64]             // 16-byte Folded Spill
	.cfi_def_cfa w29, 64
	.cfi_offset w19, -8
	.cfi_offset w20, -16
	.cfi_offset w21, -24
	.cfi_offset w22, -32
	.cfi_offset w23, -48
	.cfi_offset w30, -56
	.cfi_offset w29, -64
	ldr	d2, [x1]
	ldr	d3, [x0, #56]
	fsub	d2, d3, d2
	ldr	d3, [x1, #24]
	fdiv	d6, d2, d3
	fcmp	d6, d0
	fccmp	d6, d1, #0, pl
	b.gt	.LBB7_5
// %bb.1:
	ldr	d0, [x1, #32]
	mov	x19, x1
	ldr	d1, [x1, #8]
	fmadd	d0, d6, d0, d1
	ldr	d1, [x0, #24]
	fcmp	d0, d1
	b.mi	.LBB7_5
// %bb.2:
	ldr	d2, [x0, #32]
	fcmp	d0, d2
	b.gt	.LBB7_5
// %bb.3:
	ldr	d3, [x19, #40]
	ldr	d4, [x19, #16]
	fmadd	d3, d6, d3, d4
	ldr	d4, [x0, #40]
	fcmp	d3, d4
	b.mi	.LBB7_5
// %bb.4:
	ldr	d5, [x0, #48]
	fcmp	d3, d5
	b.le	.LBB7_6
.LBB7_5:
	mov	w0, wzr
	ldp	x20, x19, [sp, #64]             // 16-byte Folded Reload
	ldp	x22, x21, [sp, #48]             // 16-byte Folded Reload
	ldp	x29, x30, [sp, #16]             // 16-byte Folded Reload
	ldr	x23, [sp, #32]                  // 8-byte Folded Reload
	add	sp, sp, #80
	ret
.LBB7_6:
	fsub	d3, d3, d4
	fsub	d4, d5, d4
	fsub	d0, d0, d1
	fsub	d1, d2, d1
	str	d6, [x2, #64]
	mov	x8, #-9223372036854775808
	ldr	x21, [x2, #56]
	mov	x20, x2
	fdiv	d3, d3, d4
	fdiv	d0, d0, d1
	stp	d0, d3, [x2, #72]
	movi	d0, #0000000000000000
	ldp	d2, d1, [x19, #24]
	fmov	d3, #1.00000000
	fmul	d1, d1, d0
	fadd	d1, d2, d1
	ldr	d2, [x19, #40]
	fmadd	d1, d2, d0, d1
	fmov	d2, #-1.00000000
	fcmp	d1, #0.0
	fmov	d1, x8
	fcsel	d2, d3, d2, mi
	fcsel	d0, d0, d1, mi
	cset	w8, mi
	stp	d2, d0, [x2, #24]
	str	d0, [x2, #40]
	ldp	x9, x22, [x0, #8]
	strb	w8, [x2, #88]
	str	x9, [x2, #48]
	cmp	x22, x21
	b.eq	.LBB7_22
// %bb.7:
	adrp	x23, :got:__libc_single_threaded
	ldr	x23, [x23, :got_lo12:__libc_single_threaded]
	cbz	x22, .LBB7_11
// %bb.8:
	ldrb	w8, [x23]
	cbz	w8, .LBB7_10
// %bb.9:
	ldr	w8, [x22, #8]
	add	w8, w8, #1
	str	w8, [x22, #8]
	b	.LBB7_11
.LBB7_10:
	add	x1, x22, #8
	mov	w0, #1
	str	q6, [sp]                        // 16-byte Folded Spill
	bl	__aarch64_ldadd4_acq_rel
	ldr	q6, [sp]                        // 16-byte Folded Reload
	ldr	x21, [x20, #56]
.LBB7_11:
	cbz	x21, .LBB7_21
// %bb.12:
	ldrb	w8, [x23]
	cbz	w8, .LBB7_14
// %bb.13:
	ldr	w0, [x21, #8]
	sub	w8, w0, #1
	str	w8, [x21, #8]
	b	.LBB7_15
.LBB7_14:
	add	x1, x21, #8
	mov	w0, #-1
	str	q6, [sp]                        // 16-byte Folded Spill
	bl	__aarch64_ldadd4_acq_rel
	ldr	q6, [sp]                        // 16-byte Folded Reload
.LBB7_15:
	cmp	w0, #1
	b.ne	.LBB7_21
// %bb.16:
	ldr	x8, [x21]
	mov	x0, x21
	str	q6, [sp]                        // 16-byte Folded Spill
	ldr	x8, [x8, #16]
	blr	x8
	ldrb	w8, [x23]
	cbz	w8, .LBB7_18
// %bb.17:
	ldr	w0, [x21, #12]
	sub	w8, w0, #1
	str	w8, [x21, #12]
	b	.LBB7_19
.LBB7_18:
	add	x1, x21, #12
	mov	w0, #-1
	bl	__aarch64_ldadd4_acq_rel
.LBB7_19:
	ldr	q6, [sp]                        // 16-byte Folded Reload
	cmp	w0, #1
	b.ne	.LBB7_21
// %bb.20:
	ldr	x8, [x21]
	mov	x0, x21
	ldr	x8, [x8, #24]
	blr	x8
	ldr	q6, [sp]                        // 16-byte Folded Reload
.LBB7_21:
	str	x22, [x20, #56]
.LBB7_22:
	ldur	q0, [x19, #24]
	mov	w0, #1
	ldr	d1, [x19, #40]
	ldr	q2, [x19]
	fmul	v0.2d, v0.2d, v6.d[0]
	ldr	d3, [x19, #16]
	fmul	d1, d6, d1
	fadd	v0.2d, v0.2d, v2.2d
	fadd	d1, d1, d3
	str	q0, [x20]
	str	d1, [x20, #16]
	ldp	x20, x19, [sp, #64]             // 16-byte Folded Reload
	ldp	x22, x21, [sp, #48]             // 16-byte Folded Reload
	ldp	x29, x30, [sp, #16]             // 16-byte Folded Reload
	ldr	x23, [sp, #32]                  // 8-byte Folded Reload
	add	sp, sp, #80
	ret
.Lfunc_end7:
	.size	_ZNK7yz_rect3hitERK3rayddR10hit_record, .Lfunc_end7-_ZNK7yz_rect3hitERK3rayddR10hit_record
	.cfi_endproc
                                        // -- End function
	.globl	_ZNK13hittable_list3hitERK3rayddR10hit_record // -- Begin function _ZNK13hittable_list3hitERK3rayddR10hit_record
	.p2align	2
	.type	_ZNK13hittable_list3hitERK3rayddR10hit_record,@function
_ZNK13hittable_list3hitERK3rayddR10hit_record: // @_ZNK13hittable_list3hitERK3rayddR10hit_record
.Lfunc_begin1:
	.cfi_startproc
	.cfi_personality 156, DW.ref.__gxx_personality_v0
	.cfi_lsda 28, .Lexception1
// %bb.0:
	sub	sp, sp, #208
	stp	d9, d8, [sp, #96]               // 16-byte Folded Spill
	stp	x29, x30, [sp, #112]            // 16-byte Folded Spill
	add	x29, sp, #112
	str	x27, [sp, #128]                 // 8-byte Folded Spill
	stp	x26, x25, [sp, #144]            // 16-byte Folded Spill
	stp	x24, x23, [sp, #160]            // 16-byte Folded Spill
	stp	x22, x21, [sp, #176]            // 16-byte Folded Spill
	stp	x20, x19, [sp, #192]            // 16-byte Folded Spill
	.cfi_def_cfa w29, 96
	.cfi_offset w19, -8
	.cfi_offset w20, -16
	.cfi_offset w21, -24
	.cfi_offset w22, -32
	.cfi_offset w23, -40
	.cfi_offset w24, -48
	.cfi_offset w25, -56
	.cfi_offset w26, -64
	.cfi_offset w27, -80
	.cfi_offset w30, -88
	.cfi_offset w29, -96
	.cfi_offset b8, -104
	.cfi_offset b9, -112
	ldp	x23, x24, [x0, #8]
	fmov	d8, d0
	movi	v0.2d, #0000000000000000
	cmp	x23, x24
	stp	q0, q0, [sp, #32]
	stp	q0, q0, [sp]
	b.eq	.LBB8_23
// %bb.1:
	adrp	x22, :got:__libc_single_threaded
	fmov	d9, d1
	mov	x8, sp
	mov	x19, x2
	mov	x20, x1
	mov	w21, wzr
	add	x25, x2, #64
	add	x26, x8, #64
	ldr	x22, [x22, :got_lo12:__libc_single_threaded]
	b	.LBB8_5
.LBB8_2:                                //   in Loop: Header=BB8_5 Depth=1
	str	x27, [x19, #56]
.LBB8_3:                                //   in Loop: Header=BB8_5 Depth=1
	ldr	q0, [x26]
	mov	w21, #1
	ldur	q1, [x26, #9]
	str	q0, [x25]
	stur	q1, [x25, #9]
.LBB8_4:                                //   in Loop: Header=BB8_5 Depth=1
	add	x23, x23, #16
	cmp	x23, x24
	b.eq	.LBB8_20
.LBB8_5:                                // =>This Inner Loop Header: Depth=1
	ldr	x0, [x23]
	ldr	x8, [x0]
	ldr	x8, [x8]
.Ltmp3:
	fmov	d0, d8
	fmov	d1, d9
	mov	x2, sp
	mov	x1, x20
	blr	x8
.Ltmp4:
// %bb.6:                               //   in Loop: Header=BB8_5 Depth=1
	tbz	w0, #0, .LBB8_4
// %bb.7:                               //   in Loop: Header=BB8_5 Depth=1
	ldp	q0, q1, [sp]
	ldp	x8, x27, [sp, #48]
	stp	q0, q1, [x19]
	ldr	x21, [x19, #56]
	ldr	q2, [sp, #32]
	ldr	d9, [sp, #64]
	str	x8, [x19, #48]
	cmp	x27, x21
	str	q2, [x19, #32]
	b.eq	.LBB8_3
// %bb.8:                               //   in Loop: Header=BB8_5 Depth=1
	cbz	x27, .LBB8_11
// %bb.9:                               //   in Loop: Header=BB8_5 Depth=1
	ldrb	w8, [x22]
	cbz	w8, .LBB8_14
// %bb.10:                              //   in Loop: Header=BB8_5 Depth=1
	ldr	w8, [x27, #8]
	add	w8, w8, #1
	str	w8, [x27, #8]
.LBB8_11:                               //   in Loop: Header=BB8_5 Depth=1
	cbz	x21, .LBB8_2
.LBB8_12:                               //   in Loop: Header=BB8_5 Depth=1
	ldrb	w8, [x22]
	cbz	w8, .LBB8_15
// %bb.13:                              //   in Loop: Header=BB8_5 Depth=1
	ldr	w0, [x21, #8]
	sub	w8, w0, #1
	str	w8, [x21, #8]
	cmp	w0, #1
	b.ne	.LBB8_2
	b	.LBB8_16
.LBB8_14:                               //   in Loop: Header=BB8_5 Depth=1
	add	x1, x27, #8
	mov	w0, #1
	bl	__aarch64_ldadd4_acq_rel
	ldr	x21, [x19, #56]
	cbnz	x21, .LBB8_12
	b	.LBB8_2
.LBB8_15:                               //   in Loop: Header=BB8_5 Depth=1
	add	x1, x21, #8
	mov	w0, #-1
	bl	__aarch64_ldadd4_acq_rel
	cmp	w0, #1
	b.ne	.LBB8_2
.LBB8_16:                               //   in Loop: Header=BB8_5 Depth=1
	ldr	x8, [x21]
	mov	x0, x21
	ldr	x8, [x8, #16]
	blr	x8
	ldrb	w8, [x22]
	cbz	w8, .LBB8_18
// %bb.17:                              //   in Loop: Header=BB8_5 Depth=1
	ldr	w0, [x21, #12]
	sub	w8, w0, #1
	str	w8, [x21, #12]
	cmp	w0, #1
	b.ne	.LBB8_2
	b	.LBB8_19
.LBB8_18:                               //   in Loop: Header=BB8_5 Depth=1
	add	x1, x21, #12
	mov	w0, #-1
	bl	__aarch64_ldadd4_acq_rel
	cmp	w0, #1
	b.ne	.LBB8_2
.LBB8_19:                               //   in Loop: Header=BB8_5 Depth=1
	ldr	x8, [x21]
	mov	x0, x21
	ldr	x8, [x8, #24]
	blr	x8
	b	.LBB8_2
.LBB8_20:
	ldr	x19, [sp, #56]
	cbz	x19, .LBB8_28
// %bb.21:
	ldrb	w8, [x22]
	cbz	w8, .LBB8_24
// %bb.22:
	ldr	w0, [x19, #8]
	sub	w8, w0, #1
	str	w8, [x19, #8]
	cmp	w0, #1
	b.eq	.LBB8_25
	b	.LBB8_28
.LBB8_23:
	mov	w21, wzr
	b	.LBB8_28
.LBB8_24:
	add	x1, x19, #8
	mov	w0, #-1
	bl	__aarch64_ldadd4_acq_rel
	cmp	w0, #1
	b.ne	.LBB8_28
.LBB8_25:
	ldr	x8, [x19]
	mov	x0, x19
	ldr	x8, [x8, #16]
	blr	x8
	ldrb	w8, [x22]
	cbz	w8, .LBB8_29
// %bb.26:
	ldr	w0, [x19, #12]
	sub	w8, w0, #1
	str	w8, [x19, #12]
	cmp	w0, #1
	b.ne	.LBB8_28
.LBB8_27:
	ldr	x8, [x19]
	mov	x0, x19
	ldr	x8, [x8, #24]
	blr	x8
.LBB8_28:
	and	w0, w21, #0x1
	ldr	x27, [sp, #128]                 // 8-byte Folded Reload
	ldp	x20, x19, [sp, #192]            // 16-byte Folded Reload
	ldp	x22, x21, [sp, #176]            // 16-byte Folded Reload
	ldp	x24, x23, [sp, #160]            // 16-byte Folded Reload
	ldp	x26, x25, [sp, #144]            // 16-byte Folded Reload
	ldp	x29, x30, [sp, #112]            // 16-byte Folded Reload
	ldp	d9, d8, [sp, #96]               // 16-byte Folded Reload
	add	sp, sp, #208
	ret
.LBB8_29:
	add	x1, x19, #12
	mov	w0, #-1
	bl	__aarch64_ldadd4_acq_rel
	cmp	w0, #1
	b.eq	.LBB8_27
	b	.LBB8_28
.LBB8_30:
.Ltmp5:
	mov	x19, x0
	mov	x0, sp
	bl	_ZN10hit_recordD2Ev
	mov	x0, x19
	bl	_Unwind_Resume
.Lfunc_end8:
	.size	_ZNK13hittable_list3hitERK3rayddR10hit_record, .Lfunc_end8-_ZNK13hittable_list3hitERK3rayddR10hit_record
	.cfi_endproc
	.section	.gcc_except_table,"a",@progbits
	.p2align	2
GCC_except_table8:
.Lexception1:
	.byte	255                             // @LPStart Encoding = omit
	.byte	255                             // @TType Encoding = omit
	.byte	1                               // Call site Encoding = uleb128
	.uleb128 .Lcst_end1-.Lcst_begin1
.Lcst_begin1:
	.uleb128 .Ltmp3-.Lfunc_begin1           // >> Call Site 1 <<
	.uleb128 .Ltmp4-.Ltmp3                  //   Call between .Ltmp3 and .Ltmp4
	.uleb128 .Ltmp5-.Lfunc_begin1           //     jumps to .Ltmp5
	.byte	0                               //   On action: cleanup
	.uleb128 .Ltmp4-.Lfunc_begin1           // >> Call Site 2 <<
	.uleb128 .Lfunc_end8-.Ltmp4             //   Call between .Ltmp4 and .Lfunc_end8
	.byte	0                               //     has no landing pad
	.byte	0                               //   On action: cleanup
.Lcst_end1:
	.p2align	2
                                        // -- End function
	.section	.text._ZN10hit_recordD2Ev,"axG",@progbits,_ZN10hit_recordD2Ev,comdat
	.weak	_ZN10hit_recordD2Ev             // -- Begin function _ZN10hit_recordD2Ev
	.p2align	2
	.type	_ZN10hit_recordD2Ev,@function
_ZN10hit_recordD2Ev:                    // @_ZN10hit_recordD2Ev
	.cfi_startproc
// %bb.0:
	stp	x29, x30, [sp, #-32]!           // 16-byte Folded Spill
	stp	x20, x19, [sp, #16]             // 16-byte Folded Spill
	mov	x29, sp
	.cfi_def_cfa w29, 32
	.cfi_offset w19, -8
	.cfi_offset w20, -16
	.cfi_offset w30, -24
	.cfi_offset w29, -32
	ldr	x19, [x0, #56]
	cbz	x19, .LBB9_8
// %bb.1:
	adrp	x20, :got:__libc_single_threaded
	ldr	x20, [x20, :got_lo12:__libc_single_threaded]
	ldrb	w8, [x20]
	cbz	w8, .LBB9_3
// %bb.2:
	ldr	w0, [x19, #8]
	sub	w8, w0, #1
	str	w8, [x19, #8]
	cmp	w0, #1
	b.eq	.LBB9_4
	b	.LBB9_8
.LBB9_3:
	add	x1, x19, #8
	mov	w0, #-1
	bl	__aarch64_ldadd4_acq_rel
	cmp	w0, #1
	b.ne	.LBB9_8
.LBB9_4:
	ldr	x8, [x19]
	mov	x0, x19
	ldr	x8, [x8, #16]
	blr	x8
	ldrb	w8, [x20]
	cbz	w8, .LBB9_7
// %bb.5:
	ldr	w0, [x19, #12]
	sub	w8, w0, #1
	str	w8, [x19, #12]
	cmp	w0, #1
	b.ne	.LBB9_8
.LBB9_6:
	ldr	x8, [x19]
	mov	x0, x19
	ldp	x20, x19, [sp, #16]             // 16-byte Folded Reload
	ldr	x1, [x8, #24]
	ldp	x29, x30, [sp], #32             // 16-byte Folded Reload
	br	x1
.LBB9_7:
	add	x1, x19, #12
	mov	w0, #-1
	bl	__aarch64_ldadd4_acq_rel
	cmp	w0, #1
	b.eq	.LBB9_6
.LBB9_8:
	ldp	x20, x19, [sp, #16]             // 16-byte Folded Reload
	ldp	x29, x30, [sp], #32             // 16-byte Folded Reload
	ret
.Lfunc_end9:
	.size	_ZN10hit_recordD2Ev, .Lfunc_end9-_ZN10hit_recordD2Ev
	.cfi_endproc
                                        // -- End function
	.text
	.globl	_ZNK13hittable_list12bounding_boxEddR4aabb // -- Begin function _ZNK13hittable_list12bounding_boxEddR4aabb
	.p2align	2
	.type	_ZNK13hittable_list12bounding_boxEddR4aabb,@function
_ZNK13hittable_list12bounding_boxEddR4aabb: // @_ZNK13hittable_list12bounding_boxEddR4aabb
	.cfi_startproc
// %bb.0:
	sub	sp, sp, #112
	stp	d9, d8, [sp, #48]               // 16-byte Folded Spill
	stp	x29, x30, [sp, #64]             // 16-byte Folded Spill
	add	x29, sp, #64
	stp	x22, x21, [sp, #80]             // 16-byte Folded Spill
	stp	x20, x19, [sp, #96]             // 16-byte Folded Spill
	.cfi_def_cfa w29, 48
	.cfi_offset w19, -8
	.cfi_offset w20, -16
	.cfi_offset w21, -24
	.cfi_offset w22, -32
	.cfi_offset w30, -40
	.cfi_offset w29, -48
	.cfi_offset b8, -56
	.cfi_offset b9, -64
	ldp	x20, x21, [x0, #8]
	cmp	x20, x21
	b.eq	.LBB10_7
// %bb.1:
	fmov	d8, d1
	fmov	d9, d0
	movi	v0.2d, #0000000000000000
	mov	x19, x1
	mov	w22, #1
	stp	q0, q0, [sp, #16]
	str	q0, [sp]
	b	.LBB10_4
.LBB10_2:                               //   in Loop: Header=BB10_4 Depth=1
	ldp	d0, d2, [x19]
	ldp	d3, d5, [x19, #16]
	ldp	d6, d7, [x19, #32]
	ldp	d1, d4, [sp]
	ldp	d16, d17, [sp, #16]
	ldp	d18, d19, [sp, #32]
	fminnm	d1, d0, d1
	fminnm	d2, d2, d4
	fminnm	d4, d3, d16
	fmaxnm	d5, d5, d17
	fmaxnm	d3, d6, d18
	fmaxnm	d0, d7, d19
.LBB10_3:                               //   in Loop: Header=BB10_4 Depth=1
	mov	w22, wzr
	add	x20, x20, #16
	cmp	x20, x21
	str	d1, [x19]
	str	d2, [x19, #8]
	str	d4, [x19, #16]
	str	d5, [x19, #24]
	str	d3, [x19, #32]
	str	d0, [x19, #40]
	b.eq	.LBB10_8
.LBB10_4:                               // =>This Inner Loop Header: Depth=1
	ldr	x0, [x20]
	fmov	d0, d9
	fmov	d1, d8
	mov	x1, sp
	ldr	x8, [x0]
	ldr	x8, [x8, #8]
	blr	x8
	tbz	w0, #0, .LBB10_8
// %bb.5:                               //   in Loop: Header=BB10_4 Depth=1
	tbz	w22, #0, .LBB10_2
// %bb.6:                               //   in Loop: Header=BB10_4 Depth=1
	ldp	d1, d2, [sp]
	ldp	d4, d5, [sp, #16]
	ldp	d3, d0, [sp, #32]
	b	.LBB10_3
.LBB10_7:
	mov	w0, wzr
.LBB10_8:
	ldp	x20, x19, [sp, #96]             // 16-byte Folded Reload
	and	w0, w0, #0x1
	ldp	x22, x21, [sp, #80]             // 16-byte Folded Reload
	ldp	x29, x30, [sp, #64]             // 16-byte Folded Reload
	ldp	d9, d8, [sp, #48]               // 16-byte Folded Reload
	add	sp, sp, #112
	ret
.Lfunc_end10:
	.size	_ZNK13hittable_list12bounding_boxEddR4aabb, .Lfunc_end10-_ZNK13hittable_list12bounding_boxEddR4aabb
	.cfi_endproc
                                        // -- End function
	.globl	_ZN3boxC2ERK4vec3S2_St10shared_ptrI8materialE // -- Begin function _ZN3boxC2ERK4vec3S2_St10shared_ptrI8materialE
	.p2align	2
	.type	_ZN3boxC2ERK4vec3S2_St10shared_ptrI8materialE,@function
_ZN3boxC2ERK4vec3S2_St10shared_ptrI8materialE: // @_ZN3boxC2ERK4vec3S2_St10shared_ptrI8materialE
.Lfunc_begin2:
	.cfi_startproc
	.cfi_personality 156, DW.ref.__gxx_personality_v0
	.cfi_lsda 28, .Lexception2
// %bb.0:
	sub	sp, sp, #256
	stp	x29, x30, [sp, #160]            // 16-byte Folded Spill
	add	x29, sp, #160
	stp	x28, x27, [sp, #176]            // 16-byte Folded Spill
	stp	x26, x25, [sp, #192]            // 16-byte Folded Spill
	stp	x24, x23, [sp, #208]            // 16-byte Folded Spill
	stp	x22, x21, [sp, #224]            // 16-byte Folded Spill
	stp	x20, x19, [sp, #240]            // 16-byte Folded Spill
	.cfi_def_cfa w29, 96
	.cfi_offset w19, -8
	.cfi_offset w20, -16
	.cfi_offset w21, -24
	.cfi_offset w22, -32
	.cfi_offset w23, -40
	.cfi_offset w24, -48
	.cfi_offset w25, -56
	.cfi_offset w26, -64
	.cfi_offset w27, -72
	.cfi_offset w28, -80
	.cfi_offset w30, -88
	.cfi_offset w29, -96
	adrp	x8, _ZTV3box+16
	adrp	x9, _ZTV13hittable_list+16
	movi	v0.2d, #0000000000000000
	add	x8, x8, :lo12:_ZTV3box+16
	mov	x19, x0
	add	x9, x9, :lo12:_ZTV13hittable_list+16
	mov	x21, x0
	stp	xzr, xzr, [x0, #72]
	str	x8, [x0]
	mov	x22, x3
	str	x9, [x19, #56]!
	stur	q0, [x0, #8]
	mov	x23, x2
	stur	q0, [x0, #24]
	mov	x20, x0
	stur	q0, [x0, #40]
	mov	x24, x1
	str	xzr, [x21, #64]!
	ldr	q0, [x1]
	ldr	x8, [x1, #16]
	stur	q0, [x0, #8]
	str	x8, [x0, #24]
	ldr	x8, [x2, #16]
	ldr	q0, [x2]
	str	x8, [x0, #48]
	str	q0, [x0, #32]
	ldp	d3, d2, [x1]
	ldp	d1, d0, [x2]
	stp	d1, d3, [x29, #-56]
	ldr	d1, [x2, #16]
	stp	d0, d2, [x29, #-72]
	str	d1, [sp, #80]
.Ltmp6:
	mov	w0, #80
	bl	_Znwm
.Ltmp7:
// %bb.1:
	movi	v0.2s, #1
	adrp	x28, _ZTVSt23_Sp_counted_ptr_inplaceI7xy_rectSaIS0_ELN9__gnu_cxx12_Lock_policyE2EE+16
	mov	x25, x0
	add	x28, x28, :lo12:_ZTVSt23_Sp_counted_ptr_inplaceI7xy_rectSaIS0_ELN9__gnu_cxx12_Lock_policyE2EE+16
	add	x26, x0, #16
	str	d0, [x0, #8]
	str	x28, [x0]
.Ltmp9:
	sub	x0, x29, #8
	sub	x2, x29, #48
	sub	x3, x29, #56
	sub	x4, x29, #64
	sub	x5, x29, #72
	add	x6, sp, #80
	mov	x1, x26
	mov	x7, x22
	bl	_ZN9__gnu_cxx13new_allocatorI7xy_rectE9constructIS1_JdddddRSt10shared_ptrI8materialEEEEvPT_DpOT0_
.Ltmp10:
// %bb.2:
	ldp	x1, x8, [x20, #72]
	adrp	x27, :got:__libc_single_threaded
	stp	x26, x25, [x29, #-24]
	ldr	x27, [x27, :got_lo12:__libc_single_threaded]
	stp	xzr, xzr, [x29, #-40]
	cmp	x1, x8
	b.eq	.LBB11_5
// %bb.3:
	stp	x26, x25, [x1]
	ldrb	w8, [x27]
	cbz	w8, .LBB11_7
// %bb.4:
	ldr	w8, [x25, #8]
	add	w8, w8, #1
	str	w8, [x25, #8]
	b	.LBB11_8
.LBB11_5:
.Ltmp12:
	sub	x2, x29, #24
	mov	x0, x21
	bl	_ZNSt6vectorISt10shared_ptrI8hittableESaIS2_EE17_M_realloc_insertIJRKS2_EEEvN9__gnu_cxx17__normal_iteratorIPS2_S4_EEDpOT_
.Ltmp13:
// %bb.6:
	ldur	x25, [x29, #-16]
	cbnz	x25, .LBB11_9
	b	.LBB11_15
.LBB11_7:
	add	x1, x25, #8
	mov	w0, #1
	bl	__aarch64_ldadd4_acq_rel
	ldr	x1, [x20, #72]
.LBB11_8:
	add	x8, x1, #16
	str	x8, [x20, #72]
	ldur	x25, [x29, #-16]
	cbz	x25, .LBB11_15
.LBB11_9:
	ldrb	w8, [x27]
	cbz	w8, .LBB11_11
// %bb.10:
	ldr	w0, [x25, #8]
	sub	w8, w0, #1
	str	w8, [x25, #8]
	cmp	w0, #1
	b.eq	.LBB11_12
	b	.LBB11_15
.LBB11_11:
	add	x1, x25, #8
	mov	w0, #-1
	bl	__aarch64_ldadd4_acq_rel
	cmp	w0, #1
	b.ne	.LBB11_15
.LBB11_12:
	ldr	x8, [x25]
	mov	x0, x25
	ldr	x8, [x8, #16]
	blr	x8
	ldrb	w8, [x27]
	cbz	w8, .LBB11_133
// %bb.13:
	ldr	w0, [x25, #12]
	sub	w8, w0, #1
	str	w8, [x25, #12]
	cmp	w0, #1
	b.ne	.LBB11_15
.LBB11_14:
	ldr	x8, [x25]
	mov	x0, x25
	ldr	x8, [x8, #24]
	blr	x8
.LBB11_15:
	ldur	x25, [x29, #-32]
	cbz	x25, .LBB11_22
// %bb.16:
	ldrb	w8, [x27]
	cbz	w8, .LBB11_18
// %bb.17:
	ldr	w0, [x25, #8]
	sub	w8, w0, #1
	str	w8, [x25, #8]
	cmp	w0, #1
	b.eq	.LBB11_19
	b	.LBB11_22
.LBB11_18:
	add	x1, x25, #8
	mov	w0, #-1
	bl	__aarch64_ldadd4_acq_rel
	cmp	w0, #1
	b.ne	.LBB11_22
.LBB11_19:
	ldr	x8, [x25]
	mov	x0, x25
	ldr	x8, [x8, #16]
	blr	x8
	ldrb	w8, [x27]
	cbz	w8, .LBB11_134
// %bb.20:
	ldr	w0, [x25, #12]
	sub	w8, w0, #1
	str	w8, [x25, #12]
	cmp	w0, #1
	b.ne	.LBB11_22
.LBB11_21:
	ldr	x8, [x25]
	mov	x0, x25
	ldr	x8, [x8, #24]
	blr	x8
.LBB11_22:
	ldp	d0, d2, [x24]
	ldp	d1, d3, [x23]
	stp	d1, d0, [x29, #-56]
	ldr	d0, [x24, #16]
	stp	d3, d2, [x29, #-72]
	str	d0, [sp, #80]
.Ltmp15:
	mov	w0, #80
	bl	_Znwm
.Ltmp16:
// %bb.23:
	movi	v0.2s, #1
	mov	x25, x0
	add	x26, x0, #16
	str	x28, [x0]
	str	d0, [x0, #8]
.Ltmp18:
	sub	x0, x29, #8
	sub	x2, x29, #48
	sub	x3, x29, #56
	sub	x4, x29, #64
	sub	x5, x29, #72
	add	x6, sp, #80
	mov	x1, x26
	mov	x7, x22
	bl	_ZN9__gnu_cxx13new_allocatorI7xy_rectE9constructIS1_JdddddRSt10shared_ptrI8materialEEEEvPT_DpOT0_
.Ltmp19:
// %bb.24:
	ldp	x1, x8, [x20, #72]
	stp	x26, x25, [sp, #64]
	stp	xzr, xzr, [x29, #-40]
	cmp	x1, x8
	b.eq	.LBB11_27
// %bb.25:
	stp	x26, x25, [x1]
	ldrb	w8, [x27]
	cbz	w8, .LBB11_29
// %bb.26:
	ldr	w8, [x25, #8]
	add	w8, w8, #1
	str	w8, [x25, #8]
	b	.LBB11_30
.LBB11_27:
.Ltmp21:
	add	x2, sp, #64
	mov	x0, x21
	bl	_ZNSt6vectorISt10shared_ptrI8hittableESaIS2_EE17_M_realloc_insertIJRKS2_EEEvN9__gnu_cxx17__normal_iteratorIPS2_S4_EEDpOT_
.Ltmp22:
// %bb.28:
	ldr	x25, [sp, #72]
	cbnz	x25, .LBB11_31
	b	.LBB11_37
.LBB11_29:
	add	x1, x25, #8
	mov	w0, #1
	bl	__aarch64_ldadd4_acq_rel
	ldr	x1, [x20, #72]
.LBB11_30:
	add	x8, x1, #16
	str	x8, [x20, #72]
	ldr	x25, [sp, #72]
	cbz	x25, .LBB11_37
.LBB11_31:
	ldrb	w8, [x27]
	cbz	w8, .LBB11_33
// %bb.32:
	ldr	w0, [x25, #8]
	sub	w8, w0, #1
	str	w8, [x25, #8]
	cmp	w0, #1
	b.eq	.LBB11_34
	b	.LBB11_37
.LBB11_33:
	add	x1, x25, #8
	mov	w0, #-1
	bl	__aarch64_ldadd4_acq_rel
	cmp	w0, #1
	b.ne	.LBB11_37
.LBB11_34:
	ldr	x8, [x25]
	mov	x0, x25
	ldr	x8, [x8, #16]
	blr	x8
	ldrb	w8, [x27]
	cbz	w8, .LBB11_135
// %bb.35:
	ldr	w0, [x25, #12]
	sub	w8, w0, #1
	str	w8, [x25, #12]
	cmp	w0, #1
	b.ne	.LBB11_37
.LBB11_36:
	ldr	x8, [x25]
	mov	x0, x25
	ldr	x8, [x8, #24]
	blr	x8
.LBB11_37:
	ldur	x25, [x29, #-32]
	cbz	x25, .LBB11_44
// %bb.38:
	ldrb	w8, [x27]
	cbz	w8, .LBB11_40
// %bb.39:
	ldr	w0, [x25, #8]
	sub	w8, w0, #1
	str	w8, [x25, #8]
	cmp	w0, #1
	b.eq	.LBB11_41
	b	.LBB11_44
.LBB11_40:
	add	x1, x25, #8
	mov	w0, #-1
	bl	__aarch64_ldadd4_acq_rel
	cmp	w0, #1
	b.ne	.LBB11_44
.LBB11_41:
	ldr	x8, [x25]
	mov	x0, x25
	ldr	x8, [x8, #16]
	blr	x8
	ldrb	w8, [x27]
	cbz	w8, .LBB11_136
// %bb.42:
	ldr	w0, [x25, #12]
	sub	w8, w0, #1
	str	w8, [x25, #12]
	cmp	w0, #1
	b.ne	.LBB11_44
.LBB11_43:
	ldr	x8, [x25]
	mov	x0, x25
	ldr	x8, [x8, #24]
	blr	x8
.LBB11_44:
	ldp	d1, d0, [x23]
	ldr	d4, [x24]
	ldr	d2, [x24, #16]
	ldr	d3, [x23, #16]
	stp	d1, d4, [x29, #-56]
	str	d0, [sp, #80]
	stp	d3, d2, [x29, #-72]
.Ltmp24:
	mov	w0, #80
	bl	_Znwm
.Ltmp25:
// %bb.45:
	movi	v0.2s, #1
	adrp	x28, _ZTVSt23_Sp_counted_ptr_inplaceI7xz_rectSaIS0_ELN9__gnu_cxx12_Lock_policyE2EE+16
	mov	x25, x0
	add	x28, x28, :lo12:_ZTVSt23_Sp_counted_ptr_inplaceI7xz_rectSaIS0_ELN9__gnu_cxx12_Lock_policyE2EE+16
	add	x26, x0, #16
	str	d0, [x0, #8]
	str	x28, [x0]
.Ltmp27:
	sub	x0, x29, #8
	sub	x2, x29, #48
	sub	x3, x29, #56
	sub	x4, x29, #64
	sub	x5, x29, #72
	add	x6, sp, #80
	mov	x1, x26
	mov	x7, x22
	bl	_ZN9__gnu_cxx13new_allocatorI7xz_rectE9constructIS1_JdddddRSt10shared_ptrI8materialEEEEvPT_DpOT0_
.Ltmp28:
// %bb.46:
	ldp	x1, x8, [x20, #72]
	stp	x26, x25, [sp, #48]
	stp	xzr, xzr, [x29, #-40]
	cmp	x1, x8
	b.eq	.LBB11_49
// %bb.47:
	stp	x26, x25, [x1]
	ldrb	w8, [x27]
	cbz	w8, .LBB11_51
// %bb.48:
	ldr	w8, [x25, #8]
	add	w8, w8, #1
	str	w8, [x25, #8]
	b	.LBB11_52
.LBB11_49:
.Ltmp30:
	add	x2, sp, #48
	mov	x0, x21
	bl	_ZNSt6vectorISt10shared_ptrI8hittableESaIS2_EE17_M_realloc_insertIJRKS2_EEEvN9__gnu_cxx17__normal_iteratorIPS2_S4_EEDpOT_
.Ltmp31:
// %bb.50:
	ldr	x25, [sp, #56]
	cbnz	x25, .LBB11_53
	b	.LBB11_59
.LBB11_51:
	add	x1, x25, #8
	mov	w0, #1
	bl	__aarch64_ldadd4_acq_rel
	ldr	x1, [x20, #72]
.LBB11_52:
	add	x8, x1, #16
	str	x8, [x20, #72]
	ldr	x25, [sp, #56]
	cbz	x25, .LBB11_59
.LBB11_53:
	ldrb	w8, [x27]
	cbz	w8, .LBB11_55
// %bb.54:
	ldr	w0, [x25, #8]
	sub	w8, w0, #1
	str	w8, [x25, #8]
	cmp	w0, #1
	b.eq	.LBB11_56
	b	.LBB11_59
.LBB11_55:
	add	x1, x25, #8
	mov	w0, #-1
	bl	__aarch64_ldadd4_acq_rel
	cmp	w0, #1
	b.ne	.LBB11_59
.LBB11_56:
	ldr	x8, [x25]
	mov	x0, x25
	ldr	x8, [x8, #16]
	blr	x8
	ldrb	w8, [x27]
	cbz	w8, .LBB11_137
// %bb.57:
	ldr	w0, [x25, #12]
	sub	w8, w0, #1
	str	w8, [x25, #12]
	cmp	w0, #1
	b.ne	.LBB11_59
.LBB11_58:
	ldr	x8, [x25]
	mov	x0, x25
	ldr	x8, [x8, #24]
	blr	x8
.LBB11_59:
	ldur	x25, [x29, #-32]
	cbz	x25, .LBB11_66
// %bb.60:
	ldrb	w8, [x27]
	cbz	w8, .LBB11_62
// %bb.61:
	ldr	w0, [x25, #8]
	sub	w8, w0, #1
	str	w8, [x25, #8]
	cmp	w0, #1
	b.eq	.LBB11_63
	b	.LBB11_66
.LBB11_62:
	add	x1, x25, #8
	mov	w0, #-1
	bl	__aarch64_ldadd4_acq_rel
	cmp	w0, #1
	b.ne	.LBB11_66
.LBB11_63:
	ldr	x8, [x25]
	mov	x0, x25
	ldr	x8, [x8, #16]
	blr	x8
	ldrb	w8, [x27]
	cbz	w8, .LBB11_138
// %bb.64:
	ldr	w0, [x25, #12]
	sub	w8, w0, #1
	str	w8, [x25, #12]
	cmp	w0, #1
	b.ne	.LBB11_66
.LBB11_65:
	ldr	x8, [x25]
	mov	x0, x25
	ldr	x8, [x8, #24]
	blr	x8
.LBB11_66:
	ldp	d1, d3, [x24]
	ldr	d0, [x23]
	ldr	d2, [x24, #16]
	stp	d0, d1, [x29, #-56]
	ldr	d1, [x23, #16]
	str	d3, [sp, #80]
	stp	d1, d2, [x29, #-72]
.Ltmp33:
	mov	w0, #80
	bl	_Znwm
.Ltmp34:
// %bb.67:
	movi	v0.2s, #1
	mov	x25, x0
	add	x26, x0, #16
	str	x28, [x0]
	str	d0, [x0, #8]
.Ltmp36:
	sub	x0, x29, #8
	sub	x2, x29, #48
	sub	x3, x29, #56
	sub	x4, x29, #64
	sub	x5, x29, #72
	add	x6, sp, #80
	mov	x1, x26
	mov	x7, x22
	bl	_ZN9__gnu_cxx13new_allocatorI7xz_rectE9constructIS1_JdddddRSt10shared_ptrI8materialEEEEvPT_DpOT0_
.Ltmp37:
// %bb.68:
	ldp	x1, x8, [x20, #72]
	stp	x26, x25, [sp, #32]
	stp	xzr, xzr, [x29, #-40]
	cmp	x1, x8
	b.eq	.LBB11_71
// %bb.69:
	stp	x26, x25, [x1]
	ldrb	w8, [x27]
	cbz	w8, .LBB11_73
// %bb.70:
	ldr	w8, [x25, #8]
	add	w8, w8, #1
	str	w8, [x25, #8]
	b	.LBB11_74
.LBB11_71:
.Ltmp39:
	add	x2, sp, #32
	mov	x0, x21
	bl	_ZNSt6vectorISt10shared_ptrI8hittableESaIS2_EE17_M_realloc_insertIJRKS2_EEEvN9__gnu_cxx17__normal_iteratorIPS2_S4_EEDpOT_
.Ltmp40:
// %bb.72:
	ldr	x25, [sp, #40]
	cbnz	x25, .LBB11_75
	b	.LBB11_81
.LBB11_73:
	add	x1, x25, #8
	mov	w0, #1
	bl	__aarch64_ldadd4_acq_rel
	ldr	x1, [x20, #72]
.LBB11_74:
	add	x8, x1, #16
	str	x8, [x20, #72]
	ldr	x25, [sp, #40]
	cbz	x25, .LBB11_81
.LBB11_75:
	ldrb	w8, [x27]
	cbz	w8, .LBB11_77
// %bb.76:
	ldr	w0, [x25, #8]
	sub	w8, w0, #1
	str	w8, [x25, #8]
	cmp	w0, #1
	b.eq	.LBB11_78
	b	.LBB11_81
.LBB11_77:
	add	x1, x25, #8
	mov	w0, #-1
	bl	__aarch64_ldadd4_acq_rel
	cmp	w0, #1
	b.ne	.LBB11_81
.LBB11_78:
	ldr	x8, [x25]
	mov	x0, x25
	ldr	x8, [x8, #16]
	blr	x8
	ldrb	w8, [x27]
	cbz	w8, .LBB11_139
// %bb.79:
	ldr	w0, [x25, #12]
	sub	w8, w0, #1
	str	w8, [x25, #12]
	cmp	w0, #1
	b.ne	.LBB11_81
.LBB11_80:
	ldr	x8, [x25]
	mov	x0, x25
	ldr	x8, [x8, #24]
	blr	x8
.LBB11_81:
	ldur	x25, [x29, #-32]
	cbz	x25, .LBB11_88
// %bb.82:
	ldrb	w8, [x27]
	cbz	w8, .LBB11_84
// %bb.83:
	ldr	w0, [x25, #8]
	sub	w8, w0, #1
	str	w8, [x25, #8]
	cmp	w0, #1
	b.eq	.LBB11_85
	b	.LBB11_88
.LBB11_84:
	add	x1, x25, #8
	mov	w0, #-1
	bl	__aarch64_ldadd4_acq_rel
	cmp	w0, #1
	b.ne	.LBB11_88
.LBB11_85:
	ldr	x8, [x25]
	mov	x0, x25
	ldr	x8, [x8, #16]
	blr	x8
	ldrb	w8, [x27]
	cbz	w8, .LBB11_140
// %bb.86:
	ldr	w0, [x25, #12]
	sub	w8, w0, #1
	str	w8, [x25, #12]
	cmp	w0, #1
	b.ne	.LBB11_88
.LBB11_87:
	ldr	x8, [x25]
	mov	x0, x25
	ldr	x8, [x8, #24]
	blr	x8
.LBB11_88:
	ldp	d0, d2, [x24, #8]
	ldp	d1, d3, [x23, #8]
	stp	d1, d0, [x29, #-56]
	ldr	d0, [x23]
	stp	d3, d2, [x29, #-72]
	str	d0, [sp, #80]
.Ltmp42:
	mov	w0, #80
	bl	_Znwm
.Ltmp43:
// %bb.89:
	movi	v0.2s, #1
	adrp	x28, _ZTVSt23_Sp_counted_ptr_inplaceI7yz_rectSaIS0_ELN9__gnu_cxx12_Lock_policyE2EE+16
	mov	x25, x0
	add	x28, x28, :lo12:_ZTVSt23_Sp_counted_ptr_inplaceI7yz_rectSaIS0_ELN9__gnu_cxx12_Lock_policyE2EE+16
	add	x26, x0, #16
	str	d0, [x0, #8]
	str	x28, [x0]
.Ltmp45:
	sub	x0, x29, #8
	sub	x2, x29, #48
	sub	x3, x29, #56
	sub	x4, x29, #64
	sub	x5, x29, #72
	add	x6, sp, #80
	mov	x1, x26
	mov	x7, x22
	bl	_ZN9__gnu_cxx13new_allocatorI7yz_rectE9constructIS1_JdddddRSt10shared_ptrI8materialEEEEvPT_DpOT0_
.Ltmp46:
// %bb.90:
	ldp	x1, x8, [x20, #72]
	stp	x26, x25, [sp, #16]
	stp	xzr, xzr, [x29, #-40]
	cmp	x1, x8
	b.eq	.LBB11_93
// %bb.91:
	stp	x26, x25, [x1]
	ldrb	w8, [x27]
	cbz	w8, .LBB11_95
// %bb.92:
	ldr	w8, [x25, #8]
	add	w8, w8, #1
	str	w8, [x25, #8]
	b	.LBB11_96
.LBB11_93:
.Ltmp48:
	add	x2, sp, #16
	mov	x0, x21
	bl	_ZNSt6vectorISt10shared_ptrI8hittableESaIS2_EE17_M_realloc_insertIJRKS2_EEEvN9__gnu_cxx17__normal_iteratorIPS2_S4_EEDpOT_
.Ltmp49:
// %bb.94:
	ldr	x25, [sp, #24]
	cbnz	x25, .LBB11_97
	b	.LBB11_103
.LBB11_95:
	add	x1, x25, #8
	mov	w0, #1
	bl	__aarch64_ldadd4_acq_rel
	ldr	x1, [x20, #72]
.LBB11_96:
	add	x8, x1, #16
	str	x8, [x20, #72]
	ldr	x25, [sp, #24]
	cbz	x25, .LBB11_103
.LBB11_97:
	ldrb	w8, [x27]
	cbz	w8, .LBB11_99
// %bb.98:
	ldr	w0, [x25, #8]
	sub	w8, w0, #1
	str	w8, [x25, #8]
	cmp	w0, #1
	b.eq	.LBB11_100
	b	.LBB11_103
.LBB11_99:
	add	x1, x25, #8
	mov	w0, #-1
	bl	__aarch64_ldadd4_acq_rel
	cmp	w0, #1
	b.ne	.LBB11_103
.LBB11_100:
	ldr	x8, [x25]
	mov	x0, x25
	ldr	x8, [x8, #16]
	blr	x8
	ldrb	w8, [x27]
	cbz	w8, .LBB11_141
// %bb.101:
	ldr	w0, [x25, #12]
	sub	w8, w0, #1
	str	w8, [x25, #12]
	cmp	w0, #1
	b.ne	.LBB11_103
.LBB11_102:
	ldr	x8, [x25]
	mov	x0, x25
	ldr	x8, [x8, #24]
	blr	x8
.LBB11_103:
	ldur	x25, [x29, #-32]
	cbz	x25, .LBB11_110
// %bb.104:
	ldrb	w8, [x27]
	cbz	w8, .LBB11_106
// %bb.105:
	ldr	w0, [x25, #8]
	sub	w8, w0, #1
	str	w8, [x25, #8]
	cmp	w0, #1
	b.eq	.LBB11_107
	b	.LBB11_110
.LBB11_106:
	add	x1, x25, #8
	mov	w0, #-1
	bl	__aarch64_ldadd4_acq_rel
	cmp	w0, #1
	b.ne	.LBB11_110
.LBB11_107:
	ldr	x8, [x25]
	mov	x0, x25
	ldr	x8, [x8, #16]
	blr	x8
	ldrb	w8, [x27]
	cbz	w8, .LBB11_142
// %bb.108:
	ldr	w0, [x25, #12]
	sub	w8, w0, #1
	str	w8, [x25, #12]
	cmp	w0, #1
	b.ne	.LBB11_110
.LBB11_109:
	ldr	x8, [x25]
	mov	x0, x25
	ldr	x8, [x8, #24]
	blr	x8
.LBB11_110:
	ldp	d4, d2, [x24, #8]
	ldp	d0, d1, [x23, #8]
	ldr	d3, [x24]
	stp	d0, d4, [x29, #-56]
	stp	d1, d2, [x29, #-72]
	str	d3, [sp, #80]
.Ltmp51:
	mov	w0, #80
	bl	_Znwm
.Ltmp52:
// %bb.111:
	movi	v0.2s, #1
	mov	x23, x0
	add	x24, x0, #16
	str	x28, [x0]
	str	d0, [x0, #8]
.Ltmp54:
	sub	x0, x29, #8
	sub	x2, x29, #48
	sub	x3, x29, #56
	sub	x4, x29, #64
	sub	x5, x29, #72
	add	x6, sp, #80
	mov	x1, x24
	mov	x7, x22
	bl	_ZN9__gnu_cxx13new_allocatorI7yz_rectE9constructIS1_JdddddRSt10shared_ptrI8materialEEEEvPT_DpOT0_
.Ltmp55:
// %bb.112:
	ldp	x1, x8, [x20, #72]
	stp	x24, x23, [sp]
	stp	xzr, xzr, [x29, #-40]
	cmp	x1, x8
	b.eq	.LBB11_115
// %bb.113:
	stp	x24, x23, [x1]
	ldrb	w8, [x27]
	cbz	w8, .LBB11_117
// %bb.114:
	ldr	w8, [x23, #8]
	add	w8, w8, #1
	str	w8, [x23, #8]
	b	.LBB11_118
.LBB11_115:
.Ltmp57:
	mov	x2, sp
	mov	x0, x21
	bl	_ZNSt6vectorISt10shared_ptrI8hittableESaIS2_EE17_M_realloc_insertIJRKS2_EEEvN9__gnu_cxx17__normal_iteratorIPS2_S4_EEDpOT_
.Ltmp58:
// %bb.116:
	ldr	x19, [sp, #8]
	cbnz	x19, .LBB11_119
	b	.LBB11_125
.LBB11_117:
	add	x1, x23, #8
	mov	w0, #1
	bl	__aarch64_ldadd4_acq_rel
	ldr	x1, [x20, #72]
.LBB11_118:
	add	x8, x1, #16
	str	x8, [x20, #72]
	ldr	x19, [sp, #8]
	cbz	x19, .LBB11_125
.LBB11_119:
	ldrb	w8, [x27]
	cbz	w8, .LBB11_121
// %bb.120:
	ldr	w0, [x19, #8]
	sub	w8, w0, #1
	str	w8, [x19, #8]
	cmp	w0, #1
	b.eq	.LBB11_122
	b	.LBB11_125
.LBB11_121:
	add	x1, x19, #8
	mov	w0, #-1
	bl	__aarch64_ldadd4_acq_rel
	cmp	w0, #1
	b.ne	.LBB11_125
.LBB11_122:
	ldr	x8, [x19]
	mov	x0, x19
	ldr	x8, [x8, #16]
	blr	x8
	ldrb	w8, [x27]
	cbz	w8, .LBB11_143
// %bb.123:
	ldr	w0, [x19, #12]
	sub	w8, w0, #1
	str	w8, [x19, #12]
	cmp	w0, #1
	b.ne	.LBB11_125
.LBB11_124:
	ldr	x8, [x19]
	mov	x0, x19
	ldr	x8, [x8, #24]
	blr	x8
.LBB11_125:
	ldur	x19, [x29, #-32]
	cbz	x19, .LBB11_132
// %bb.126:
	ldrb	w8, [x27]
	cbz	w8, .LBB11_128
// %bb.127:
	ldr	w0, [x19, #8]
	sub	w8, w0, #1
	str	w8, [x19, #8]
	cmp	w0, #1
	b.eq	.LBB11_129
	b	.LBB11_132
.LBB11_128:
	add	x1, x19, #8
	mov	w0, #-1
	bl	__aarch64_ldadd4_acq_rel
	cmp	w0, #1
	b.ne	.LBB11_132
.LBB11_129:
	ldr	x8, [x19]
	mov	x0, x19
	ldr	x8, [x8, #16]
	blr	x8
	ldrb	w8, [x27]
	cbz	w8, .LBB11_144
// %bb.130:
	ldr	w0, [x19, #12]
	sub	w8, w0, #1
	str	w8, [x19, #12]
	cmp	w0, #1
	b.ne	.LBB11_132
.LBB11_131:
	ldr	x8, [x19]
	mov	x0, x19
	ldr	x8, [x8, #24]
	blr	x8
.LBB11_132:
	ldp	x20, x19, [sp, #240]            // 16-byte Folded Reload
	ldp	x22, x21, [sp, #224]            // 16-byte Folded Reload
	ldp	x24, x23, [sp, #208]            // 16-byte Folded Reload
	ldp	x26, x25, [sp, #192]            // 16-byte Folded Reload
	ldp	x28, x27, [sp, #176]            // 16-byte Folded Reload
	ldp	x29, x30, [sp, #160]            // 16-byte Folded Reload
	add	sp, sp, #256
	ret
.LBB11_133:
	add	x1, x25, #12
	mov	w0, #-1
	bl	__aarch64_ldadd4_acq_rel
	cmp	w0, #1
	b.eq	.LBB11_14
	b	.LBB11_15
.LBB11_134:
	add	x1, x25, #12
	mov	w0, #-1
	bl	__aarch64_ldadd4_acq_rel
	cmp	w0, #1
	b.eq	.LBB11_21
	b	.LBB11_22
.LBB11_135:
	add	x1, x25, #12
	mov	w0, #-1
	bl	__aarch64_ldadd4_acq_rel
	cmp	w0, #1
	b.eq	.LBB11_36
	b	.LBB11_37
.LBB11_136:
	add	x1, x25, #12
	mov	w0, #-1
	bl	__aarch64_ldadd4_acq_rel
	cmp	w0, #1
	b.eq	.LBB11_43
	b	.LBB11_44
.LBB11_137:
	add	x1, x25, #12
	mov	w0, #-1
	bl	__aarch64_ldadd4_acq_rel
	cmp	w0, #1
	b.eq	.LBB11_58
	b	.LBB11_59
.LBB11_138:
	add	x1, x25, #12
	mov	w0, #-1
	bl	__aarch64_ldadd4_acq_rel
	cmp	w0, #1
	b.eq	.LBB11_65
	b	.LBB11_66
.LBB11_139:
	add	x1, x25, #12
	mov	w0, #-1
	bl	__aarch64_ldadd4_acq_rel
	cmp	w0, #1
	b.eq	.LBB11_80
	b	.LBB11_81
.LBB11_140:
	add	x1, x25, #12
	mov	w0, #-1
	bl	__aarch64_ldadd4_acq_rel
	cmp	w0, #1
	b.eq	.LBB11_87
	b	.LBB11_88
.LBB11_141:
	add	x1, x25, #12
	mov	w0, #-1
	bl	__aarch64_ldadd4_acq_rel
	cmp	w0, #1
	b.eq	.LBB11_102
	b	.LBB11_103
.LBB11_142:
	add	x1, x25, #12
	mov	w0, #-1
	bl	__aarch64_ldadd4_acq_rel
	cmp	w0, #1
	b.eq	.LBB11_109
	b	.LBB11_110
.LBB11_143:
	add	x1, x19, #12
	mov	w0, #-1
	bl	__aarch64_ldadd4_acq_rel
	cmp	w0, #1
	b.eq	.LBB11_124
	b	.LBB11_125
.LBB11_144:
	add	x1, x19, #12
	mov	w0, #-1
	bl	__aarch64_ldadd4_acq_rel
	cmp	w0, #1
	b.eq	.LBB11_131
	b	.LBB11_132
.LBB11_145:
.Ltmp59:
	mov	x20, x0
	mov	x0, sp
	b	.LBB11_147
.LBB11_146:
.Ltmp50:
	mov	x20, x0
	add	x0, sp, #16
.LBB11_147:
	bl	_ZNSt12__shared_ptrI8hittableLN9__gnu_cxx12_Lock_policyE2EED2Ev
	sub	x0, x29, #40
	bl	_ZNSt12__shared_ptrI7yz_rectLN9__gnu_cxx12_Lock_policyE2EED2Ev
	mov	x0, x19
	bl	_ZN13hittable_listD2Ev
	mov	x0, x20
	bl	_Unwind_Resume
.LBB11_148:
.Ltmp41:
	mov	x20, x0
	add	x0, sp, #32
	b	.LBB11_150
.LBB11_149:
.Ltmp32:
	mov	x20, x0
	add	x0, sp, #48
.LBB11_150:
	bl	_ZNSt12__shared_ptrI8hittableLN9__gnu_cxx12_Lock_policyE2EED2Ev
	sub	x0, x29, #40
	bl	_ZNSt12__shared_ptrI7xz_rectLN9__gnu_cxx12_Lock_policyE2EED2Ev
	mov	x0, x19
	bl	_ZN13hittable_listD2Ev
	mov	x0, x20
	bl	_Unwind_Resume
.LBB11_151:
.Ltmp23:
	mov	x20, x0
	add	x0, sp, #64
	b	.LBB11_153
.LBB11_152:
.Ltmp14:
	mov	x20, x0
	sub	x0, x29, #24
.LBB11_153:
	bl	_ZNSt12__shared_ptrI8hittableLN9__gnu_cxx12_Lock_policyE2EED2Ev
	sub	x0, x29, #40
	bl	_ZNSt12__shared_ptrI7xy_rectLN9__gnu_cxx12_Lock_policyE2EED2Ev
	mov	x0, x19
	bl	_ZN13hittable_listD2Ev
	mov	x0, x20
	bl	_Unwind_Resume
.LBB11_154:
.Ltmp56:
	mov	x20, x0
	mov	x0, x23
	bl	_ZdlPv
	mov	x0, x19
	bl	_ZN13hittable_listD2Ev
	mov	x0, x20
	bl	_Unwind_Resume
.LBB11_155:
.Ltmp53:
	mov	x20, x0
	mov	x0, x19
	bl	_ZN13hittable_listD2Ev
	mov	x0, x20
	bl	_Unwind_Resume
.LBB11_156:
.Ltmp47:
	b	.LBB11_165
.LBB11_157:
.Ltmp44:
	mov	x20, x0
	mov	x0, x19
	bl	_ZN13hittable_listD2Ev
	mov	x0, x20
	bl	_Unwind_Resume
.LBB11_158:
.Ltmp38:
	b	.LBB11_165
.LBB11_159:
.Ltmp35:
	mov	x20, x0
	mov	x0, x19
	bl	_ZN13hittable_listD2Ev
	mov	x0, x20
	bl	_Unwind_Resume
.LBB11_160:
.Ltmp29:
	b	.LBB11_165
.LBB11_161:
.Ltmp26:
	mov	x20, x0
	mov	x0, x19
	bl	_ZN13hittable_listD2Ev
	mov	x0, x20
	bl	_Unwind_Resume
.LBB11_162:
.Ltmp20:
	b	.LBB11_165
.LBB11_163:
.Ltmp17:
	mov	x20, x0
	mov	x0, x19
	bl	_ZN13hittable_listD2Ev
	mov	x0, x20
	bl	_Unwind_Resume
.LBB11_164:
.Ltmp11:
.LBB11_165:
	mov	x20, x0
	mov	x0, x25
	bl	_ZdlPv
	mov	x0, x19
	bl	_ZN13hittable_listD2Ev
	mov	x0, x20
	bl	_Unwind_Resume
.LBB11_166:
.Ltmp8:
	mov	x20, x0
	mov	x0, x19
	bl	_ZN13hittable_listD2Ev
	mov	x0, x20
	bl	_Unwind_Resume
.Lfunc_end11:
	.size	_ZN3boxC2ERK4vec3S2_St10shared_ptrI8materialE, .Lfunc_end11-_ZN3boxC2ERK4vec3S2_St10shared_ptrI8materialE
	.cfi_endproc
	.section	.gcc_except_table,"a",@progbits
	.p2align	2
GCC_except_table11:
.Lexception2:
	.byte	255                             // @LPStart Encoding = omit
	.byte	255                             // @TType Encoding = omit
	.byte	1                               // Call site Encoding = uleb128
	.uleb128 .Lcst_end2-.Lcst_begin2
.Lcst_begin2:
	.uleb128 .Ltmp6-.Lfunc_begin2           // >> Call Site 1 <<
	.uleb128 .Ltmp7-.Ltmp6                  //   Call between .Ltmp6 and .Ltmp7
	.uleb128 .Ltmp8-.Lfunc_begin2           //     jumps to .Ltmp8
	.byte	0                               //   On action: cleanup
	.uleb128 .Ltmp9-.Lfunc_begin2           // >> Call Site 2 <<
	.uleb128 .Ltmp10-.Ltmp9                 //   Call between .Ltmp9 and .Ltmp10
	.uleb128 .Ltmp11-.Lfunc_begin2          //     jumps to .Ltmp11
	.byte	0                               //   On action: cleanup
	.uleb128 .Ltmp12-.Lfunc_begin2          // >> Call Site 3 <<
	.uleb128 .Ltmp13-.Ltmp12                //   Call between .Ltmp12 and .Ltmp13
	.uleb128 .Ltmp14-.Lfunc_begin2          //     jumps to .Ltmp14
	.byte	0                               //   On action: cleanup
	.uleb128 .Ltmp13-.Lfunc_begin2          // >> Call Site 4 <<
	.uleb128 .Ltmp15-.Ltmp13                //   Call between .Ltmp13 and .Ltmp15
	.byte	0                               //     has no landing pad
	.byte	0                               //   On action: cleanup
	.uleb128 .Ltmp15-.Lfunc_begin2          // >> Call Site 5 <<
	.uleb128 .Ltmp16-.Ltmp15                //   Call between .Ltmp15 and .Ltmp16
	.uleb128 .Ltmp17-.Lfunc_begin2          //     jumps to .Ltmp17
	.byte	0                               //   On action: cleanup
	.uleb128 .Ltmp18-.Lfunc_begin2          // >> Call Site 6 <<
	.uleb128 .Ltmp19-.Ltmp18                //   Call between .Ltmp18 and .Ltmp19
	.uleb128 .Ltmp20-.Lfunc_begin2          //     jumps to .Ltmp20
	.byte	0                               //   On action: cleanup
	.uleb128 .Ltmp21-.Lfunc_begin2          // >> Call Site 7 <<
	.uleb128 .Ltmp22-.Ltmp21                //   Call between .Ltmp21 and .Ltmp22
	.uleb128 .Ltmp23-.Lfunc_begin2          //     jumps to .Ltmp23
	.byte	0                               //   On action: cleanup
	.uleb128 .Ltmp22-.Lfunc_begin2          // >> Call Site 8 <<
	.uleb128 .Ltmp24-.Ltmp22                //   Call between .Ltmp22 and .Ltmp24
	.byte	0                               //     has no landing pad
	.byte	0                               //   On action: cleanup
	.uleb128 .Ltmp24-.Lfunc_begin2          // >> Call Site 9 <<
	.uleb128 .Ltmp25-.Ltmp24                //   Call between .Ltmp24 and .Ltmp25
	.uleb128 .Ltmp26-.Lfunc_begin2          //     jumps to .Ltmp26
	.byte	0                               //   On action: cleanup
	.uleb128 .Ltmp27-.Lfunc_begin2          // >> Call Site 10 <<
	.uleb128 .Ltmp28-.Ltmp27                //   Call between .Ltmp27 and .Ltmp28
	.uleb128 .Ltmp29-.Lfunc_begin2          //     jumps to .Ltmp29
	.byte	0                               //   On action: cleanup
	.uleb128 .Ltmp30-.Lfunc_begin2          // >> Call Site 11 <<
	.uleb128 .Ltmp31-.Ltmp30                //   Call between .Ltmp30 and .Ltmp31
	.uleb128 .Ltmp32-.Lfunc_begin2          //     jumps to .Ltmp32
	.byte	0                               //   On action: cleanup
	.uleb128 .Ltmp31-.Lfunc_begin2          // >> Call Site 12 <<
	.uleb128 .Ltmp33-.Ltmp31                //   Call between .Ltmp31 and .Ltmp33
	.byte	0                               //     has no landing pad
	.byte	0                               //   On action: cleanup
	.uleb128 .Ltmp33-.Lfunc_begin2          // >> Call Site 13 <<
	.uleb128 .Ltmp34-.Ltmp33                //   Call between .Ltmp33 and .Ltmp34
	.uleb128 .Ltmp35-.Lfunc_begin2          //     jumps to .Ltmp35
	.byte	0                               //   On action: cleanup
	.uleb128 .Ltmp36-.Lfunc_begin2          // >> Call Site 14 <<
	.uleb128 .Ltmp37-.Ltmp36                //   Call between .Ltmp36 and .Ltmp37
	.uleb128 .Ltmp38-.Lfunc_begin2          //     jumps to .Ltmp38
	.byte	0                               //   On action: cleanup
	.uleb128 .Ltmp39-.Lfunc_begin2          // >> Call Site 15 <<
	.uleb128 .Ltmp40-.Ltmp39                //   Call between .Ltmp39 and .Ltmp40
	.uleb128 .Ltmp41-.Lfunc_begin2          //     jumps to .Ltmp41
	.byte	0                               //   On action: cleanup
	.uleb128 .Ltmp40-.Lfunc_begin2          // >> Call Site 16 <<
	.uleb128 .Ltmp42-.Ltmp40                //   Call between .Ltmp40 and .Ltmp42
	.byte	0                               //     has no landing pad
	.byte	0                               //   On action: cleanup
	.uleb128 .Ltmp42-.Lfunc_begin2          // >> Call Site 17 <<
	.uleb128 .Ltmp43-.Ltmp42                //   Call between .Ltmp42 and .Ltmp43
	.uleb128 .Ltmp44-.Lfunc_begin2          //     jumps to .Ltmp44
	.byte	0                               //   On action: cleanup
	.uleb128 .Ltmp45-.Lfunc_begin2          // >> Call Site 18 <<
	.uleb128 .Ltmp46-.Ltmp45                //   Call between .Ltmp45 and .Ltmp46
	.uleb128 .Ltmp47-.Lfunc_begin2          //     jumps to .Ltmp47
	.byte	0                               //   On action: cleanup
	.uleb128 .Ltmp48-.Lfunc_begin2          // >> Call Site 19 <<
	.uleb128 .Ltmp49-.Ltmp48                //   Call between .Ltmp48 and .Ltmp49
	.uleb128 .Ltmp50-.Lfunc_begin2          //     jumps to .Ltmp50
	.byte	0                               //   On action: cleanup
	.uleb128 .Ltmp49-.Lfunc_begin2          // >> Call Site 20 <<
	.uleb128 .Ltmp51-.Ltmp49                //   Call between .Ltmp49 and .Ltmp51
	.byte	0                               //     has no landing pad
	.byte	0                               //   On action: cleanup
	.uleb128 .Ltmp51-.Lfunc_begin2          // >> Call Site 21 <<
	.uleb128 .Ltmp52-.Ltmp51                //   Call between .Ltmp51 and .Ltmp52
	.uleb128 .Ltmp53-.Lfunc_begin2          //     jumps to .Ltmp53
	.byte	0                               //   On action: cleanup
	.uleb128 .Ltmp54-.Lfunc_begin2          // >> Call Site 22 <<
	.uleb128 .Ltmp55-.Ltmp54                //   Call between .Ltmp54 and .Ltmp55
	.uleb128 .Ltmp56-.Lfunc_begin2          //     jumps to .Ltmp56
	.byte	0                               //   On action: cleanup
	.uleb128 .Ltmp57-.Lfunc_begin2          // >> Call Site 23 <<
	.uleb128 .Ltmp58-.Ltmp57                //   Call between .Ltmp57 and .Ltmp58
	.uleb128 .Ltmp59-.Lfunc_begin2          //     jumps to .Ltmp59
	.byte	0                               //   On action: cleanup
	.uleb128 .Ltmp58-.Lfunc_begin2          // >> Call Site 24 <<
	.uleb128 .Lfunc_end11-.Ltmp58           //   Call between .Ltmp58 and .Lfunc_end11
	.byte	0                               //     has no landing pad
	.byte	0                               //   On action: cleanup
.Lcst_end2:
	.p2align	2
                                        // -- End function
	.section	.text._ZNSt12__shared_ptrI7xy_rectLN9__gnu_cxx12_Lock_policyE2EED2Ev,"axG",@progbits,_ZNSt12__shared_ptrI7xy_rectLN9__gnu_cxx12_Lock_policyE2EED2Ev,comdat
	.weak	_ZNSt12__shared_ptrI7xy_rectLN9__gnu_cxx12_Lock_policyE2EED2Ev // -- Begin function _ZNSt12__shared_ptrI7xy_rectLN9__gnu_cxx12_Lock_policyE2EED2Ev
	.p2align	2
	.type	_ZNSt12__shared_ptrI7xy_rectLN9__gnu_cxx12_Lock_policyE2EED2Ev,@function
_ZNSt12__shared_ptrI7xy_rectLN9__gnu_cxx12_Lock_policyE2EED2Ev: // @_ZNSt12__shared_ptrI7xy_rectLN9__gnu_cxx12_Lock_policyE2EED2Ev
	.cfi_startproc
// %bb.0:
	stp	x29, x30, [sp, #-32]!           // 16-byte Folded Spill
	stp	x20, x19, [sp, #16]             // 16-byte Folded Spill
	mov	x29, sp
	.cfi_def_cfa w29, 32
	.cfi_offset w19, -8
	.cfi_offset w20, -16
	.cfi_offset w30, -24
	.cfi_offset w29, -32
	ldr	x19, [x0, #8]
	cbz	x19, .LBB12_8
// %bb.1:
	adrp	x20, :got:__libc_single_threaded
	ldr	x20, [x20, :got_lo12:__libc_single_threaded]
	ldrb	w8, [x20]
	cbz	w8, .LBB12_3
// %bb.2:
	ldr	w0, [x19, #8]
	sub	w8, w0, #1
	str	w8, [x19, #8]
	cmp	w0, #1
	b.eq	.LBB12_4
	b	.LBB12_8
.LBB12_3:
	add	x1, x19, #8
	mov	w0, #-1
	bl	__aarch64_ldadd4_acq_rel
	cmp	w0, #1
	b.ne	.LBB12_8
.LBB12_4:
	ldr	x8, [x19]
	mov	x0, x19
	ldr	x8, [x8, #16]
	blr	x8
	ldrb	w8, [x20]
	cbz	w8, .LBB12_7
// %bb.5:
	ldr	w0, [x19, #12]
	sub	w8, w0, #1
	str	w8, [x19, #12]
	cmp	w0, #1
	b.ne	.LBB12_8
.LBB12_6:
	ldr	x8, [x19]
	mov	x0, x19
	ldp	x20, x19, [sp, #16]             // 16-byte Folded Reload
	ldr	x1, [x8, #24]
	ldp	x29, x30, [sp], #32             // 16-byte Folded Reload
	br	x1
.LBB12_7:
	add	x1, x19, #12
	mov	w0, #-1
	bl	__aarch64_ldadd4_acq_rel
	cmp	w0, #1
	b.eq	.LBB12_6
.LBB12_8:
	ldp	x20, x19, [sp, #16]             // 16-byte Folded Reload
	ldp	x29, x30, [sp], #32             // 16-byte Folded Reload
	ret
.Lfunc_end12:
	.size	_ZNSt12__shared_ptrI7xy_rectLN9__gnu_cxx12_Lock_policyE2EED2Ev, .Lfunc_end12-_ZNSt12__shared_ptrI7xy_rectLN9__gnu_cxx12_Lock_policyE2EED2Ev
	.cfi_endproc
                                        // -- End function
	.section	.text._ZNSt12__shared_ptrI7xz_rectLN9__gnu_cxx12_Lock_policyE2EED2Ev,"axG",@progbits,_ZNSt12__shared_ptrI7xz_rectLN9__gnu_cxx12_Lock_policyE2EED2Ev,comdat
	.weak	_ZNSt12__shared_ptrI7xz_rectLN9__gnu_cxx12_Lock_policyE2EED2Ev // -- Begin function _ZNSt12__shared_ptrI7xz_rectLN9__gnu_cxx12_Lock_policyE2EED2Ev
	.p2align	2
	.type	_ZNSt12__shared_ptrI7xz_rectLN9__gnu_cxx12_Lock_policyE2EED2Ev,@function
_ZNSt12__shared_ptrI7xz_rectLN9__gnu_cxx12_Lock_policyE2EED2Ev: // @_ZNSt12__shared_ptrI7xz_rectLN9__gnu_cxx12_Lock_policyE2EED2Ev
	.cfi_startproc
// %bb.0:
	stp	x29, x30, [sp, #-32]!           // 16-byte Folded Spill
	stp	x20, x19, [sp, #16]             // 16-byte Folded Spill
	mov	x29, sp
	.cfi_def_cfa w29, 32
	.cfi_offset w19, -8
	.cfi_offset w20, -16
	.cfi_offset w30, -24
	.cfi_offset w29, -32
	ldr	x19, [x0, #8]
	cbz	x19, .LBB13_8
// %bb.1:
	adrp	x20, :got:__libc_single_threaded
	ldr	x20, [x20, :got_lo12:__libc_single_threaded]
	ldrb	w8, [x20]
	cbz	w8, .LBB13_3
// %bb.2:
	ldr	w0, [x19, #8]
	sub	w8, w0, #1
	str	w8, [x19, #8]
	cmp	w0, #1
	b.eq	.LBB13_4
	b	.LBB13_8
.LBB13_3:
	add	x1, x19, #8
	mov	w0, #-1
	bl	__aarch64_ldadd4_acq_rel
	cmp	w0, #1
	b.ne	.LBB13_8
.LBB13_4:
	ldr	x8, [x19]
	mov	x0, x19
	ldr	x8, [x8, #16]
	blr	x8
	ldrb	w8, [x20]
	cbz	w8, .LBB13_7
// %bb.5:
	ldr	w0, [x19, #12]
	sub	w8, w0, #1
	str	w8, [x19, #12]
	cmp	w0, #1
	b.ne	.LBB13_8
.LBB13_6:
	ldr	x8, [x19]
	mov	x0, x19
	ldp	x20, x19, [sp, #16]             // 16-byte Folded Reload
	ldr	x1, [x8, #24]
	ldp	x29, x30, [sp], #32             // 16-byte Folded Reload
	br	x1
.LBB13_7:
	add	x1, x19, #12
	mov	w0, #-1
	bl	__aarch64_ldadd4_acq_rel
	cmp	w0, #1
	b.eq	.LBB13_6
.LBB13_8:
	ldp	x20, x19, [sp, #16]             // 16-byte Folded Reload
	ldp	x29, x30, [sp], #32             // 16-byte Folded Reload
	ret
.Lfunc_end13:
	.size	_ZNSt12__shared_ptrI7xz_rectLN9__gnu_cxx12_Lock_policyE2EED2Ev, .Lfunc_end13-_ZNSt12__shared_ptrI7xz_rectLN9__gnu_cxx12_Lock_policyE2EED2Ev
	.cfi_endproc
                                        // -- End function
	.section	.text._ZNSt12__shared_ptrI7yz_rectLN9__gnu_cxx12_Lock_policyE2EED2Ev,"axG",@progbits,_ZNSt12__shared_ptrI7yz_rectLN9__gnu_cxx12_Lock_policyE2EED2Ev,comdat
	.weak	_ZNSt12__shared_ptrI7yz_rectLN9__gnu_cxx12_Lock_policyE2EED2Ev // -- Begin function _ZNSt12__shared_ptrI7yz_rectLN9__gnu_cxx12_Lock_policyE2EED2Ev
	.p2align	2
	.type	_ZNSt12__shared_ptrI7yz_rectLN9__gnu_cxx12_Lock_policyE2EED2Ev,@function
_ZNSt12__shared_ptrI7yz_rectLN9__gnu_cxx12_Lock_policyE2EED2Ev: // @_ZNSt12__shared_ptrI7yz_rectLN9__gnu_cxx12_Lock_policyE2EED2Ev
	.cfi_startproc
// %bb.0:
	stp	x29, x30, [sp, #-32]!           // 16-byte Folded Spill
	stp	x20, x19, [sp, #16]             // 16-byte Folded Spill
	mov	x29, sp
	.cfi_def_cfa w29, 32
	.cfi_offset w19, -8
	.cfi_offset w20, -16
	.cfi_offset w30, -24
	.cfi_offset w29, -32
	ldr	x19, [x0, #8]
	cbz	x19, .LBB14_8
// %bb.1:
	adrp	x20, :got:__libc_single_threaded
	ldr	x20, [x20, :got_lo12:__libc_single_threaded]
	ldrb	w8, [x20]
	cbz	w8, .LBB14_3
// %bb.2:
	ldr	w0, [x19, #8]
	sub	w8, w0, #1
	str	w8, [x19, #8]
	cmp	w0, #1
	b.eq	.LBB14_4
	b	.LBB14_8
.LBB14_3:
	add	x1, x19, #8
	mov	w0, #-1
	bl	__aarch64_ldadd4_acq_rel
	cmp	w0, #1
	b.ne	.LBB14_8
.LBB14_4:
	ldr	x8, [x19]
	mov	x0, x19
	ldr	x8, [x8, #16]
	blr	x8
	ldrb	w8, [x20]
	cbz	w8, .LBB14_7
// %bb.5:
	ldr	w0, [x19, #12]
	sub	w8, w0, #1
	str	w8, [x19, #12]
	cmp	w0, #1
	b.ne	.LBB14_8
.LBB14_6:
	ldr	x8, [x19]
	mov	x0, x19
	ldp	x20, x19, [sp, #16]             // 16-byte Folded Reload
	ldr	x1, [x8, #24]
	ldp	x29, x30, [sp], #32             // 16-byte Folded Reload
	br	x1
.LBB14_7:
	add	x1, x19, #12
	mov	w0, #-1
	bl	__aarch64_ldadd4_acq_rel
	cmp	w0, #1
	b.eq	.LBB14_6
.LBB14_8:
	ldp	x20, x19, [sp, #16]             // 16-byte Folded Reload
	ldp	x29, x30, [sp], #32             // 16-byte Folded Reload
	ret
.Lfunc_end14:
	.size	_ZNSt12__shared_ptrI7yz_rectLN9__gnu_cxx12_Lock_policyE2EED2Ev, .Lfunc_end14-_ZNSt12__shared_ptrI7yz_rectLN9__gnu_cxx12_Lock_policyE2EED2Ev
	.cfi_endproc
                                        // -- End function
	.section	.text._ZN13hittable_listD2Ev,"axG",@progbits,_ZN13hittable_listD2Ev,comdat
	.weak	_ZN13hittable_listD2Ev          // -- Begin function _ZN13hittable_listD2Ev
	.p2align	2
	.type	_ZN13hittable_listD2Ev,@function
_ZN13hittable_listD2Ev:                 // @_ZN13hittable_listD2Ev
	.cfi_startproc
// %bb.0:
	stp	x29, x30, [sp, #-64]!           // 16-byte Folded Spill
	str	x23, [sp, #16]                  // 8-byte Folded Spill
	mov	x29, sp
	stp	x22, x21, [sp, #32]             // 16-byte Folded Spill
	stp	x20, x19, [sp, #48]             // 16-byte Folded Spill
	.cfi_def_cfa w29, 64
	.cfi_offset w19, -8
	.cfi_offset w20, -16
	.cfi_offset w21, -24
	.cfi_offset w22, -32
	.cfi_offset w23, -48
	.cfi_offset w30, -56
	.cfi_offset w29, -64
	ldp	x19, x22, [x0, #8]
	adrp	x8, _ZTV13hittable_list+16
	add	x8, x8, :lo12:_ZTV13hittable_list+16
	cmp	x19, x22
	str	x8, [x0]
	b.eq	.LBB15_12
// %bb.1:
	adrp	x23, :got:__libc_single_threaded
	mov	x20, x0
	ldr	x23, [x23, :got_lo12:__libc_single_threaded]
	b	.LBB15_3
.LBB15_2:                               //   in Loop: Header=BB15_3 Depth=1
	add	x19, x19, #16
	cmp	x19, x22
	b.eq	.LBB15_11
.LBB15_3:                               // =>This Inner Loop Header: Depth=1
	ldr	x21, [x19, #8]
	cbz	x21, .LBB15_2
// %bb.4:                               //   in Loop: Header=BB15_3 Depth=1
	ldrb	w8, [x23]
	cbz	w8, .LBB15_6
// %bb.5:                               //   in Loop: Header=BB15_3 Depth=1
	ldr	w0, [x21, #8]
	sub	w8, w0, #1
	str	w8, [x21, #8]
	cmp	w0, #1
	b.ne	.LBB15_2
	b	.LBB15_7
.LBB15_6:                               //   in Loop: Header=BB15_3 Depth=1
	add	x1, x21, #8
	mov	w0, #-1
	bl	__aarch64_ldadd4_acq_rel
	cmp	w0, #1
	b.ne	.LBB15_2
.LBB15_7:                               //   in Loop: Header=BB15_3 Depth=1
	ldr	x8, [x21]
	mov	x0, x21
	ldr	x8, [x8, #16]
	blr	x8
	ldrb	w8, [x23]
	cbz	w8, .LBB15_9
// %bb.8:                               //   in Loop: Header=BB15_3 Depth=1
	ldr	w0, [x21, #12]
	sub	w8, w0, #1
	str	w8, [x21, #12]
	cmp	w0, #1
	b.ne	.LBB15_2
	b	.LBB15_10
.LBB15_9:                               //   in Loop: Header=BB15_3 Depth=1
	add	x1, x21, #12
	mov	w0, #-1
	bl	__aarch64_ldadd4_acq_rel
	cmp	w0, #1
	b.ne	.LBB15_2
.LBB15_10:                              //   in Loop: Header=BB15_3 Depth=1
	ldr	x8, [x21]
	mov	x0, x21
	ldr	x8, [x8, #24]
	blr	x8
	b	.LBB15_2
.LBB15_11:
	ldr	x19, [x20, #8]
.LBB15_12:
	cbz	x19, .LBB15_14
// %bb.13:
	mov	x0, x19
	ldr	x23, [sp, #16]                  // 8-byte Folded Reload
	ldp	x20, x19, [sp, #48]             // 16-byte Folded Reload
	ldp	x22, x21, [sp, #32]             // 16-byte Folded Reload
	ldp	x29, x30, [sp], #64             // 16-byte Folded Reload
	b	_ZdlPv
.LBB15_14:
	ldp	x20, x19, [sp, #48]             // 16-byte Folded Reload
	ldp	x22, x21, [sp, #32]             // 16-byte Folded Reload
	ldr	x23, [sp, #16]                  // 8-byte Folded Reload
	ldp	x29, x30, [sp], #64             // 16-byte Folded Reload
	ret
.Lfunc_end15:
	.size	_ZN13hittable_listD2Ev, .Lfunc_end15-_ZN13hittable_listD2Ev
	.cfi_endproc
                                        // -- End function
	.text
	.globl	_ZNK3box3hitERK3rayddR10hit_record // -- Begin function _ZNK3box3hitERK3rayddR10hit_record
	.p2align	2
	.type	_ZNK3box3hitERK3rayddR10hit_record,@function
_ZNK3box3hitERK3rayddR10hit_record:     // @_ZNK3box3hitERK3rayddR10hit_record
	.cfi_startproc
// %bb.0:
	add	x0, x0, #56
	b	_ZNK13hittable_list3hitERK3rayddR10hit_record
.Lfunc_end16:
	.size	_ZNK3box3hitERK3rayddR10hit_record, .Lfunc_end16-_ZNK3box3hitERK3rayddR10hit_record
	.cfi_endproc
                                        // -- End function
	.globl	_Z13box_x_compareSt10shared_ptrI8hittableES1_ // -- Begin function _Z13box_x_compareSt10shared_ptrI8hittableES1_
	.p2align	2
	.type	_Z13box_x_compareSt10shared_ptrI8hittableES1_,@function
_Z13box_x_compareSt10shared_ptrI8hittableES1_: // @_Z13box_x_compareSt10shared_ptrI8hittableES1_
.Lfunc_begin3:
	.cfi_startproc
	.cfi_personality 156, DW.ref.__gxx_personality_v0
	.cfi_lsda 28, .Lexception3
// %bb.0:
	sub	sp, sp, #176
	stp	d9, d8, [sp, #128]              // 16-byte Folded Spill
	stp	x29, x30, [sp, #144]            // 16-byte Folded Spill
	add	x29, sp, #144
	stp	x20, x19, [sp, #160]            // 16-byte Folded Spill
	.cfi_def_cfa w29, 32
	.cfi_offset w19, -8
	.cfi_offset w20, -16
	.cfi_offset w30, -24
	.cfi_offset w29, -32
	.cfi_offset b8, -40
	.cfi_offset b9, -48
	adrp	x20, :got:__libc_single_threaded
	mov	x19, x1
	ldr	x20, [x20, :got_lo12:__libc_single_threaded]
	ldp	x9, x8, [x0]
	stp	x9, x8, [sp, #16]
	cbz	x8, .LBB17_3
// %bb.1:
	ldrb	w9, [x20]
	cbz	w9, .LBB17_6
// %bb.2:
	ldr	w9, [x8, #8]
	add	w9, w9, #1
	str	w9, [x8, #8]
.LBB17_3:
	ldp	x9, x8, [x19]
	stp	x9, x8, [sp]
	cbz	x8, .LBB17_8
.LBB17_4:
	ldrb	w9, [x20]
	cbz	w9, .LBB17_7
// %bb.5:
	ldr	w9, [x8, #8]
	add	w9, w9, #1
	str	w9, [x8, #8]
	b	.LBB17_8
.LBB17_6:
	add	x1, x8, #8
	mov	w0, #1
	bl	__aarch64_ldadd4_acq_rel
	ldp	x9, x8, [x19]
	stp	x9, x8, [sp]
	cbnz	x8, .LBB17_4
	b	.LBB17_8
.LBB17_7:
	add	x1, x8, #8
	mov	w0, #1
	bl	__aarch64_ldadd4_acq_rel
.LBB17_8:
	movi	v0.2d, #0000000000000000
	ldr	x0, [sp, #16]
	stp	q0, q0, [x29, #-48]
	stur	q0, [x29, #-64]
	stp	q0, q0, [sp, #48]
	str	q0, [sp, #32]
	ldr	x8, [x0]
	ldr	x8, [x8, #8]
.Ltmp60:
	movi	d0, #0000000000000000
	movi	d1, #0000000000000000
	sub	x1, x29, #64
	blr	x8
.Ltmp61:
// %bb.9:
	tbz	w0, #0, .LBB17_12
// %bb.10:
	ldr	x0, [sp]
	ldr	x8, [x0]
	ldr	x8, [x8, #8]
.Ltmp62:
	movi	d0, #0000000000000000
	movi	d1, #0000000000000000
	add	x1, sp, #32
	blr	x8
.Ltmp63:
// %bb.11:
	tbnz	w0, #0, .LBB17_13
.LBB17_12:
.Ltmp64:
	adrp	x0, :got:_ZSt4cerr
	adrp	x1, .L.str
	add	x1, x1, :lo12:.L.str
	mov	w2, #41
	ldr	x0, [x0, :got_lo12:_ZSt4cerr]
	bl	_ZSt16__ostream_insertIcSt11char_traitsIcEERSt13basic_ostreamIT_T0_ES6_PKS3_l
.Ltmp65:
.LBB17_13:
	ldur	d8, [x29, #-64]
	ldr	x19, [sp, #8]
	ldr	d9, [sp, #32]
	cbz	x19, .LBB17_20
// %bb.14:
	ldrb	w8, [x20]
	cbz	w8, .LBB17_16
// %bb.15:
	ldr	w0, [x19, #8]
	sub	w8, w0, #1
	str	w8, [x19, #8]
	cmp	w0, #1
	b.eq	.LBB17_17
	b	.LBB17_20
.LBB17_16:
	add	x1, x19, #8
	mov	w0, #-1
	bl	__aarch64_ldadd4_acq_rel
	cmp	w0, #1
	b.ne	.LBB17_20
.LBB17_17:
	ldr	x8, [x19]
	mov	x0, x19
	ldr	x8, [x8, #16]
	blr	x8
	ldrb	w8, [x20]
	cbz	w8, .LBB17_28
// %bb.18:
	ldr	w0, [x19, #12]
	sub	w8, w0, #1
	str	w8, [x19, #12]
	cmp	w0, #1
	b.ne	.LBB17_20
.LBB17_19:
	ldr	x8, [x19]
	mov	x0, x19
	ldr	x8, [x8, #24]
	blr	x8
.LBB17_20:
	ldr	x19, [sp, #24]
	cbz	x19, .LBB17_27
// %bb.21:
	ldrb	w8, [x20]
	cbz	w8, .LBB17_23
// %bb.22:
	ldr	w0, [x19, #8]
	sub	w8, w0, #1
	str	w8, [x19, #8]
	cmp	w0, #1
	b.eq	.LBB17_24
	b	.LBB17_27
.LBB17_23:
	add	x1, x19, #8
	mov	w0, #-1
	bl	__aarch64_ldadd4_acq_rel
	cmp	w0, #1
	b.ne	.LBB17_27
.LBB17_24:
	ldr	x8, [x19]
	mov	x0, x19
	ldr	x8, [x8, #16]
	blr	x8
	ldrb	w8, [x20]
	cbz	w8, .LBB17_29
// %bb.25:
	ldr	w0, [x19, #12]
	sub	w8, w0, #1
	str	w8, [x19, #12]
	cmp	w0, #1
	b.ne	.LBB17_27
.LBB17_26:
	ldr	x8, [x19]
	mov	x0, x19
	ldr	x8, [x8, #24]
	blr	x8
.LBB17_27:
	fcmp	d8, d9
	ldp	x20, x19, [sp, #160]            // 16-byte Folded Reload
	ldp	x29, x30, [sp, #144]            // 16-byte Folded Reload
	cset	w0, mi
	ldp	d9, d8, [sp, #128]              // 16-byte Folded Reload
	add	sp, sp, #176
	ret
.LBB17_28:
	add	x1, x19, #12
	mov	w0, #-1
	bl	__aarch64_ldadd4_acq_rel
	cmp	w0, #1
	b.eq	.LBB17_19
	b	.LBB17_20
.LBB17_29:
	add	x1, x19, #12
	mov	w0, #-1
	bl	__aarch64_ldadd4_acq_rel
	cmp	w0, #1
	b.eq	.LBB17_26
	b	.LBB17_27
.LBB17_30:
.Ltmp66:
	mov	x19, x0
	mov	x0, sp
	bl	_ZNSt12__shared_ptrI8hittableLN9__gnu_cxx12_Lock_policyE2EED2Ev
	add	x0, sp, #16
	bl	_ZNSt12__shared_ptrI8hittableLN9__gnu_cxx12_Lock_policyE2EED2Ev
	mov	x0, x19
	bl	_Unwind_Resume
.Lfunc_end17:
	.size	_Z13box_x_compareSt10shared_ptrI8hittableES1_, .Lfunc_end17-_Z13box_x_compareSt10shared_ptrI8hittableES1_
	.cfi_endproc
	.section	.gcc_except_table,"a",@progbits
	.p2align	2
GCC_except_table17:
.Lexception3:
	.byte	255                             // @LPStart Encoding = omit
	.byte	255                             // @TType Encoding = omit
	.byte	1                               // Call site Encoding = uleb128
	.uleb128 .Lcst_end3-.Lcst_begin3
.Lcst_begin3:
	.uleb128 .Lfunc_begin3-.Lfunc_begin3    // >> Call Site 1 <<
	.uleb128 .Ltmp60-.Lfunc_begin3          //   Call between .Lfunc_begin3 and .Ltmp60
	.byte	0                               //     has no landing pad
	.byte	0                               //   On action: cleanup
	.uleb128 .Ltmp60-.Lfunc_begin3          // >> Call Site 2 <<
	.uleb128 .Ltmp65-.Ltmp60                //   Call between .Ltmp60 and .Ltmp65
	.uleb128 .Ltmp66-.Lfunc_begin3          //     jumps to .Ltmp66
	.byte	0                               //   On action: cleanup
	.uleb128 .Ltmp65-.Lfunc_begin3          // >> Call Site 3 <<
	.uleb128 .Lfunc_end17-.Ltmp65           //   Call between .Ltmp65 and .Lfunc_end17
	.byte	0                               //     has no landing pad
	.byte	0                               //   On action: cleanup
.Lcst_end3:
	.p2align	2
                                        // -- End function
	.text
	.globl	_Z13box_y_compareSt10shared_ptrI8hittableES1_ // -- Begin function _Z13box_y_compareSt10shared_ptrI8hittableES1_
	.p2align	2
	.type	_Z13box_y_compareSt10shared_ptrI8hittableES1_,@function
_Z13box_y_compareSt10shared_ptrI8hittableES1_: // @_Z13box_y_compareSt10shared_ptrI8hittableES1_
.Lfunc_begin4:
	.cfi_startproc
	.cfi_personality 156, DW.ref.__gxx_personality_v0
	.cfi_lsda 28, .Lexception4
// %bb.0:
	sub	sp, sp, #176
	stp	d9, d8, [sp, #128]              // 16-byte Folded Spill
	stp	x29, x30, [sp, #144]            // 16-byte Folded Spill
	add	x29, sp, #144
	stp	x20, x19, [sp, #160]            // 16-byte Folded Spill
	.cfi_def_cfa w29, 32
	.cfi_offset w19, -8
	.cfi_offset w20, -16
	.cfi_offset w30, -24
	.cfi_offset w29, -32
	.cfi_offset b8, -40
	.cfi_offset b9, -48
	adrp	x20, :got:__libc_single_threaded
	mov	x19, x1
	ldr	x20, [x20, :got_lo12:__libc_single_threaded]
	ldp	x9, x8, [x0]
	stp	x9, x8, [sp, #16]
	cbz	x8, .LBB18_3
// %bb.1:
	ldrb	w9, [x20]
	cbz	w9, .LBB18_6
// %bb.2:
	ldr	w9, [x8, #8]
	add	w9, w9, #1
	str	w9, [x8, #8]
.LBB18_3:
	ldp	x9, x8, [x19]
	stp	x9, x8, [sp]
	cbz	x8, .LBB18_8
.LBB18_4:
	ldrb	w9, [x20]
	cbz	w9, .LBB18_7
// %bb.5:
	ldr	w9, [x8, #8]
	add	w9, w9, #1
	str	w9, [x8, #8]
	b	.LBB18_8
.LBB18_6:
	add	x1, x8, #8
	mov	w0, #1
	bl	__aarch64_ldadd4_acq_rel
	ldp	x9, x8, [x19]
	stp	x9, x8, [sp]
	cbnz	x8, .LBB18_4
	b	.LBB18_8
.LBB18_7:
	add	x1, x8, #8
	mov	w0, #1
	bl	__aarch64_ldadd4_acq_rel
.LBB18_8:
	movi	v0.2d, #0000000000000000
	ldr	x0, [sp, #16]
	stp	q0, q0, [x29, #-48]
	stur	q0, [x29, #-64]
	stp	q0, q0, [sp, #48]
	str	q0, [sp, #32]
	ldr	x8, [x0]
	ldr	x8, [x8, #8]
.Ltmp67:
	movi	d0, #0000000000000000
	movi	d1, #0000000000000000
	sub	x1, x29, #64
	blr	x8
.Ltmp68:
// %bb.9:
	tbz	w0, #0, .LBB18_12
// %bb.10:
	ldr	x0, [sp]
	ldr	x8, [x0]
	ldr	x8, [x8, #8]
.Ltmp69:
	movi	d0, #0000000000000000
	movi	d1, #0000000000000000
	add	x1, sp, #32
	blr	x8
.Ltmp70:
// %bb.11:
	tbnz	w0, #0, .LBB18_13
.LBB18_12:
.Ltmp71:
	adrp	x0, :got:_ZSt4cerr
	adrp	x1, .L.str
	add	x1, x1, :lo12:.L.str
	mov	w2, #41
	ldr	x0, [x0, :got_lo12:_ZSt4cerr]
	bl	_ZSt16__ostream_insertIcSt11char_traitsIcEERSt13basic_ostreamIT_T0_ES6_PKS3_l
.Ltmp72:
.LBB18_13:
	ldur	d8, [x29, #-56]
	ldr	x19, [sp, #8]
	ldr	d9, [sp, #40]
	cbz	x19, .LBB18_20
// %bb.14:
	ldrb	w8, [x20]
	cbz	w8, .LBB18_16
// %bb.15:
	ldr	w0, [x19, #8]
	sub	w8, w0, #1
	str	w8, [x19, #8]
	cmp	w0, #1
	b.eq	.LBB18_17
	b	.LBB18_20
.LBB18_16:
	add	x1, x19, #8
	mov	w0, #-1
	bl	__aarch64_ldadd4_acq_rel
	cmp	w0, #1
	b.ne	.LBB18_20
.LBB18_17:
	ldr	x8, [x19]
	mov	x0, x19
	ldr	x8, [x8, #16]
	blr	x8
	ldrb	w8, [x20]
	cbz	w8, .LBB18_28
// %bb.18:
	ldr	w0, [x19, #12]
	sub	w8, w0, #1
	str	w8, [x19, #12]
	cmp	w0, #1
	b.ne	.LBB18_20
.LBB18_19:
	ldr	x8, [x19]
	mov	x0, x19
	ldr	x8, [x8, #24]
	blr	x8
.LBB18_20:
	ldr	x19, [sp, #24]
	cbz	x19, .LBB18_27
// %bb.21:
	ldrb	w8, [x20]
	cbz	w8, .LBB18_23
// %bb.22:
	ldr	w0, [x19, #8]
	sub	w8, w0, #1
	str	w8, [x19, #8]
	cmp	w0, #1
	b.eq	.LBB18_24
	b	.LBB18_27
.LBB18_23:
	add	x1, x19, #8
	mov	w0, #-1
	bl	__aarch64_ldadd4_acq_rel
	cmp	w0, #1
	b.ne	.LBB18_27
.LBB18_24:
	ldr	x8, [x19]
	mov	x0, x19
	ldr	x8, [x8, #16]
	blr	x8
	ldrb	w8, [x20]
	cbz	w8, .LBB18_29
// %bb.25:
	ldr	w0, [x19, #12]
	sub	w8, w0, #1
	str	w8, [x19, #12]
	cmp	w0, #1
	b.ne	.LBB18_27
.LBB18_26:
	ldr	x8, [x19]
	mov	x0, x19
	ldr	x8, [x8, #24]
	blr	x8
.LBB18_27:
	fcmp	d8, d9
	ldp	x20, x19, [sp, #160]            // 16-byte Folded Reload
	ldp	x29, x30, [sp, #144]            // 16-byte Folded Reload
	cset	w0, mi
	ldp	d9, d8, [sp, #128]              // 16-byte Folded Reload
	add	sp, sp, #176
	ret
.LBB18_28:
	add	x1, x19, #12
	mov	w0, #-1
	bl	__aarch64_ldadd4_acq_rel
	cmp	w0, #1
	b.eq	.LBB18_19
	b	.LBB18_20
.LBB18_29:
	add	x1, x19, #12
	mov	w0, #-1
	bl	__aarch64_ldadd4_acq_rel
	cmp	w0, #1
	b.eq	.LBB18_26
	b	.LBB18_27
.LBB18_30:
.Ltmp73:
	mov	x19, x0
	mov	x0, sp
	bl	_ZNSt12__shared_ptrI8hittableLN9__gnu_cxx12_Lock_policyE2EED2Ev
	add	x0, sp, #16
	bl	_ZNSt12__shared_ptrI8hittableLN9__gnu_cxx12_Lock_policyE2EED2Ev
	mov	x0, x19
	bl	_Unwind_Resume
.Lfunc_end18:
	.size	_Z13box_y_compareSt10shared_ptrI8hittableES1_, .Lfunc_end18-_Z13box_y_compareSt10shared_ptrI8hittableES1_
	.cfi_endproc
	.section	.gcc_except_table,"a",@progbits
	.p2align	2
GCC_except_table18:
.Lexception4:
	.byte	255                             // @LPStart Encoding = omit
	.byte	255                             // @TType Encoding = omit
	.byte	1                               // Call site Encoding = uleb128
	.uleb128 .Lcst_end4-.Lcst_begin4
.Lcst_begin4:
	.uleb128 .Lfunc_begin4-.Lfunc_begin4    // >> Call Site 1 <<
	.uleb128 .Ltmp67-.Lfunc_begin4          //   Call between .Lfunc_begin4 and .Ltmp67
	.byte	0                               //     has no landing pad
	.byte	0                               //   On action: cleanup
	.uleb128 .Ltmp67-.Lfunc_begin4          // >> Call Site 2 <<
	.uleb128 .Ltmp72-.Ltmp67                //   Call between .Ltmp67 and .Ltmp72
	.uleb128 .Ltmp73-.Lfunc_begin4          //     jumps to .Ltmp73
	.byte	0                               //   On action: cleanup
	.uleb128 .Ltmp72-.Lfunc_begin4          // >> Call Site 3 <<
	.uleb128 .Lfunc_end18-.Ltmp72           //   Call between .Ltmp72 and .Lfunc_end18
	.byte	0                               //     has no landing pad
	.byte	0                               //   On action: cleanup
.Lcst_end4:
	.p2align	2
                                        // -- End function
	.text
	.globl	_Z13box_z_compareSt10shared_ptrI8hittableES1_ // -- Begin function _Z13box_z_compareSt10shared_ptrI8hittableES1_
	.p2align	2
	.type	_Z13box_z_compareSt10shared_ptrI8hittableES1_,@function
_Z13box_z_compareSt10shared_ptrI8hittableES1_: // @_Z13box_z_compareSt10shared_ptrI8hittableES1_
.Lfunc_begin5:
	.cfi_startproc
	.cfi_personality 156, DW.ref.__gxx_personality_v0
	.cfi_lsda 28, .Lexception5
// %bb.0:
	sub	sp, sp, #176
	stp	d9, d8, [sp, #128]              // 16-byte Folded Spill
	stp	x29, x30, [sp, #144]            // 16-byte Folded Spill
	add	x29, sp, #144
	stp	x20, x19, [sp, #160]            // 16-byte Folded Spill
	.cfi_def_cfa w29, 32
	.cfi_offset w19, -8
	.cfi_offset w20, -16
	.cfi_offset w30, -24
	.cfi_offset w29, -32
	.cfi_offset b8, -40
	.cfi_offset b9, -48
	adrp	x20, :got:__libc_single_threaded
	mov	x19, x1
	ldr	x20, [x20, :got_lo12:__libc_single_threaded]
	ldp	x9, x8, [x0]
	stp	x9, x8, [sp, #16]
	cbz	x8, .LBB19_3
// %bb.1:
	ldrb	w9, [x20]
	cbz	w9, .LBB19_6
// %bb.2:
	ldr	w9, [x8, #8]
	add	w9, w9, #1
	str	w9, [x8, #8]
.LBB19_3:
	ldp	x9, x8, [x19]
	stp	x9, x8, [sp]
	cbz	x8, .LBB19_8
.LBB19_4:
	ldrb	w9, [x20]
	cbz	w9, .LBB19_7
// %bb.5:
	ldr	w9, [x8, #8]
	add	w9, w9, #1
	str	w9, [x8, #8]
	b	.LBB19_8
.LBB19_6:
	add	x1, x8, #8
	mov	w0, #1
	bl	__aarch64_ldadd4_acq_rel
	ldp	x9, x8, [x19]
	stp	x9, x8, [sp]
	cbnz	x8, .LBB19_4
	b	.LBB19_8
.LBB19_7:
	add	x1, x8, #8
	mov	w0, #1
	bl	__aarch64_ldadd4_acq_rel
.LBB19_8:
	movi	v0.2d, #0000000000000000
	ldr	x0, [sp, #16]
	stp	q0, q0, [x29, #-48]
	stur	q0, [x29, #-64]
	stp	q0, q0, [sp, #48]
	str	q0, [sp, #32]
	ldr	x8, [x0]
	ldr	x8, [x8, #8]
.Ltmp74:
	movi	d0, #0000000000000000
	movi	d1, #0000000000000000
	sub	x1, x29, #64
	blr	x8
.Ltmp75:
// %bb.9:
	tbz	w0, #0, .LBB19_12
// %bb.10:
	ldr	x0, [sp]
	ldr	x8, [x0]
	ldr	x8, [x8, #8]
.Ltmp76:
	movi	d0, #0000000000000000
	movi	d1, #0000000000000000
	add	x1, sp, #32
	blr	x8
.Ltmp77:
// %bb.11:
	tbnz	w0, #0, .LBB19_13
.LBB19_12:
.Ltmp78:
	adrp	x0, :got:_ZSt4cerr
	adrp	x1, .L.str
	add	x1, x1, :lo12:.L.str
	mov	w2, #41
	ldr	x0, [x0, :got_lo12:_ZSt4cerr]
	bl	_ZSt16__ostream_insertIcSt11char_traitsIcEERSt13basic_ostreamIT_T0_ES6_PKS3_l
.Ltmp79:
.LBB19_13:
	ldur	d8, [x29, #-48]
	ldr	x19, [sp, #8]
	ldr	d9, [sp, #48]
	cbz	x19, .LBB19_20
// %bb.14:
	ldrb	w8, [x20]
	cbz	w8, .LBB19_16
// %bb.15:
	ldr	w0, [x19, #8]
	sub	w8, w0, #1
	str	w8, [x19, #8]
	cmp	w0, #1
	b.eq	.LBB19_17
	b	.LBB19_20
.LBB19_16:
	add	x1, x19, #8
	mov	w0, #-1
	bl	__aarch64_ldadd4_acq_rel
	cmp	w0, #1
	b.ne	.LBB19_20
.LBB19_17:
	ldr	x8, [x19]
	mov	x0, x19
	ldr	x8, [x8, #16]
	blr	x8
	ldrb	w8, [x20]
	cbz	w8, .LBB19_28
// %bb.18:
	ldr	w0, [x19, #12]
	sub	w8, w0, #1
	str	w8, [x19, #12]
	cmp	w0, #1
	b.ne	.LBB19_20
.LBB19_19:
	ldr	x8, [x19]
	mov	x0, x19
	ldr	x8, [x8, #24]
	blr	x8
.LBB19_20:
	ldr	x19, [sp, #24]
	cbz	x19, .LBB19_27
// %bb.21:
	ldrb	w8, [x20]
	cbz	w8, .LBB19_23
// %bb.22:
	ldr	w0, [x19, #8]
	sub	w8, w0, #1
	str	w8, [x19, #8]
	cmp	w0, #1
	b.eq	.LBB19_24
	b	.LBB19_27
.LBB19_23:
	add	x1, x19, #8
	mov	w0, #-1
	bl	__aarch64_ldadd4_acq_rel
	cmp	w0, #1
	b.ne	.LBB19_27
.LBB19_24:
	ldr	x8, [x19]
	mov	x0, x19
	ldr	x8, [x8, #16]
	blr	x8
	ldrb	w8, [x20]
	cbz	w8, .LBB19_29
// %bb.25:
	ldr	w0, [x19, #12]
	sub	w8, w0, #1
	str	w8, [x19, #12]
	cmp	w0, #1
	b.ne	.LBB19_27
.LBB19_26:
	ldr	x8, [x19]
	mov	x0, x19
	ldr	x8, [x8, #24]
	blr	x8
.LBB19_27:
	fcmp	d8, d9
	ldp	x20, x19, [sp, #160]            // 16-byte Folded Reload
	ldp	x29, x30, [sp, #144]            // 16-byte Folded Reload
	cset	w0, mi
	ldp	d9, d8, [sp, #128]              // 16-byte Folded Reload
	add	sp, sp, #176
	ret
.LBB19_28:
	add	x1, x19, #12
	mov	w0, #-1
	bl	__aarch64_ldadd4_acq_rel
	cmp	w0, #1
	b.eq	.LBB19_19
	b	.LBB19_20
.LBB19_29:
	add	x1, x19, #12
	mov	w0, #-1
	bl	__aarch64_ldadd4_acq_rel
	cmp	w0, #1
	b.eq	.LBB19_26
	b	.LBB19_27
.LBB19_30:
.Ltmp80:
	mov	x19, x0
	mov	x0, sp
	bl	_ZNSt12__shared_ptrI8hittableLN9__gnu_cxx12_Lock_policyE2EED2Ev
	add	x0, sp, #16
	bl	_ZNSt12__shared_ptrI8hittableLN9__gnu_cxx12_Lock_policyE2EED2Ev
	mov	x0, x19
	bl	_Unwind_Resume
.Lfunc_end19:
	.size	_Z13box_z_compareSt10shared_ptrI8hittableES1_, .Lfunc_end19-_Z13box_z_compareSt10shared_ptrI8hittableES1_
	.cfi_endproc
	.section	.gcc_except_table,"a",@progbits
	.p2align	2
GCC_except_table19:
.Lexception5:
	.byte	255                             // @LPStart Encoding = omit
	.byte	255                             // @TType Encoding = omit
	.byte	1                               // Call site Encoding = uleb128
	.uleb128 .Lcst_end5-.Lcst_begin5
.Lcst_begin5:
	.uleb128 .Lfunc_begin5-.Lfunc_begin5    // >> Call Site 1 <<
	.uleb128 .Ltmp74-.Lfunc_begin5          //   Call between .Lfunc_begin5 and .Ltmp74
	.byte	0                               //     has no landing pad
	.byte	0                               //   On action: cleanup
	.uleb128 .Ltmp74-.Lfunc_begin5          // >> Call Site 2 <<
	.uleb128 .Ltmp79-.Ltmp74                //   Call between .Ltmp74 and .Ltmp79
	.uleb128 .Ltmp80-.Lfunc_begin5          //     jumps to .Ltmp80
	.byte	0                               //   On action: cleanup
	.uleb128 .Ltmp79-.Lfunc_begin5          // >> Call Site 3 <<
	.uleb128 .Lfunc_end19-.Ltmp79           //   Call between .Ltmp79 and .Lfunc_end19
	.byte	0                               //     has no landing pad
	.byte	0                               //   On action: cleanup
.Lcst_end5:
	.p2align	2
                                        // -- End function
	.text
	.globl	_ZN8bvh_nodeC2ERKSt6vectorISt10shared_ptrI8hittableESaIS3_EEmmdd // -- Begin function _ZN8bvh_nodeC2ERKSt6vectorISt10shared_ptrI8hittableESaIS3_EEmmdd
	.p2align	2
	.type	_ZN8bvh_nodeC2ERKSt6vectorISt10shared_ptrI8hittableESaIS3_EEmmdd,@function
_ZN8bvh_nodeC2ERKSt6vectorISt10shared_ptrI8hittableESaIS3_EEmmdd: // @_ZN8bvh_nodeC2ERKSt6vectorISt10shared_ptrI8hittableESaIS3_EEmmdd
.Lfunc_begin6:
	.cfi_startproc
	.cfi_personality 156, DW.ref.__gxx_personality_v0
	.cfi_lsda 28, .Lexception6
// %bb.0:
	sub	sp, sp, #288
	stp	d9, d8, [sp, #176]              // 16-byte Folded Spill
	stp	x29, x30, [sp, #192]            // 16-byte Folded Spill
	add	x29, sp, #192
	stp	x28, x27, [sp, #208]            // 16-byte Folded Spill
	stp	x26, x25, [sp, #224]            // 16-byte Folded Spill
	stp	x24, x23, [sp, #240]            // 16-byte Folded Spill
	stp	x22, x21, [sp, #256]            // 16-byte Folded Spill
	stp	x20, x19, [sp, #272]            // 16-byte Folded Spill
	.cfi_def_cfa w29, 96
	.cfi_offset w19, -8
	.cfi_offset w20, -16
	.cfi_offset w21, -24
	.cfi_offset w22, -32
	.cfi_offset w23, -40
	.cfi_offset w24, -48
	.cfi_offset w25, -56
	.cfi_offset w26, -64
	.cfi_offset w27, -72
	.cfi_offset w28, -80
	.cfi_offset w30, -88
	.cfi_offset w29, -96
	.cfi_offset b8, -104
	.cfi_offset b9, -112
	fmov	d9, d0
	adrp	x8, _ZTV8bvh_node+16
	movi	v0.2d, #0000000000000000
	add	x8, x8, :lo12:_ZTV8bvh_node+16
	mov	x9, x0
	mov	x10, x0
	fmov	d8, d1
	mov	x21, x0
	str	x8, [x0]
	mov	x23, x3
	str	q0, [x9, #8]!
	str	q0, [x10, #24]!
	stur	q0, [x0, #40]
	mov	x22, x2
	stur	q0, [x0, #56]
	stur	q0, [x0, #72]
	ldp	x20, x27, [x1]
	stp	x10, x9, [sp]                   // 16-byte Folded Spill
	subs	x25, x27, x20
	b.eq	.LBB20_4
// %bb.1:
	mov	x8, #-15
	movk	x8, #32767, lsl #48
	cmp	x25, x8
	b.hs	.LBB20_164
// %bb.2:
	mov	x26, x1
.Ltmp81:
	mov	x0, x25
	bl	_Znwm
.Ltmp82:
// %bb.3:
	ldp	x20, x27, [x26]
	mov	x24, x0
	b	.LBB20_5
.LBB20_4:
	mov	x24, xzr
.LBB20_5:
	adrp	x28, :got:__libc_single_threaded
	asr	x8, x25, #4
	cmp	x20, x27
	add	x8, x24, x8, lsl #4
	ldr	x28, [x28, :got_lo12:__libc_single_threaded]
	stp	x24, x24, [x29, #-48]
	stur	x8, [x29, #-32]
	b.ne	.LBB20_17
.LBB20_6:
	stur	x24, [x29, #-40]
	bl	rand
	mov	x8, #4467570830351532032
	scvtf	d0, w0
	movi	d2, #0000000000000000
	adrp	x9, _Z13box_z_compareSt10shared_ptrI8hittableES1_
	adrp	x10, _Z13box_y_compareSt10shared_ptrI8hittableES1_
	add	x9, x9, :lo12:_Z13box_z_compareSt10shared_ptrI8hittableES1_
	fmov	d1, x8
	add	x10, x10, :lo12:_Z13box_y_compareSt10shared_ptrI8hittableES1_
	adrp	x11, _Z13box_x_compareSt10shared_ptrI8hittableES1_
	sub	x20, x23, x22
	add	x11, x11, :lo12:_Z13box_x_compareSt10shared_ptrI8hittableES1_
	fmul	d0, d0, d1
	fmov	d1, #3.00000000
	fmadd	d0, d0, d1, d2
	fcvtzs	w8, d0
	cmp	w8, #1
	csel	x9, x10, x9, eq
	cmp	w8, #0
	csel	x24, x11, x9, eq
	cmp	x20, #2
	b.eq	.LBB20_20
// %bb.7:
	cmp	x20, #1
	b.ne	.LBB20_23
// %bb.8:
	ldur	x8, [x29, #-48]
	add	x9, x8, x22, lsl #4
	ldr	x22, [x21, #32]
	ldr	x8, [x9]
	str	x8, [x21, #24]
	ldr	x23, [x9, #8]
	cmp	x23, x22
	b.eq	.LBB20_90
// %bb.9:
	cbz	x23, .LBB20_12
// %bb.10:
	ldrb	w8, [x28]
	cbz	w8, .LBB20_84
// %bb.11:
	ldr	w8, [x23, #8]
	add	w8, w8, #1
	str	w8, [x23, #8]
.LBB20_12:
	cbz	x22, .LBB20_89
.LBB20_13:
	ldrb	w8, [x28]
	cbz	w8, .LBB20_85
// %bb.14:
	ldr	w0, [x22, #8]
	sub	w8, w0, #1
	str	w8, [x22, #8]
	cmp	w0, #1
	b.eq	.LBB20_86
	b	.LBB20_89
.LBB20_15:                              //   in Loop: Header=BB20_17 Depth=1
	ldr	w9, [x8, #8]
	add	w9, w9, #1
	str	w9, [x8, #8]
.LBB20_16:                              //   in Loop: Header=BB20_17 Depth=1
	add	x24, x24, #16
	add	x20, x20, #16
	cmp	x20, x27
	b.eq	.LBB20_6
.LBB20_17:                              // =>This Inner Loop Header: Depth=1
	ldr	x8, [x20]
	str	x8, [x24]
	ldr	x8, [x20, #8]
	str	x8, [x24, #8]
	cbz	x8, .LBB20_16
// %bb.18:                              //   in Loop: Header=BB20_17 Depth=1
	ldrb	w9, [x28]
	cbnz	w9, .LBB20_15
// %bb.19:                              //   in Loop: Header=BB20_17 Depth=1
	add	x1, x8, #8
	mov	w0, #1
	bl	__aarch64_ldadd4_acq_rel
	b	.LBB20_16
.LBB20_20:
	ldur	x8, [x29, #-48]
	add	x9, x8, x22, lsl #4
	ldr	x10, [x9]
	stur	x10, [x29, #-64]
	ldr	x9, [x9, #8]
	stur	x9, [x29, #-56]
	cbz	x9, .LBB20_38
// %bb.21:
	ldrb	w10, [x28]
	cbz	w10, .LBB20_37
// %bb.22:
	ldr	w10, [x9, #8]
	add	w10, w10, #1
	str	w10, [x9, #8]
	b	.LBB20_38
.LBB20_23:
	cmp	x23, x22
	b.eq	.LBB20_32
// %bb.24:
	ldur	x19, [x29, #-48]
	mov	w9, #126
	add	x26, x19, x22, lsl #4
	add	x25, x19, x23, lsl #4
	sub	x27, x25, x26
	asr	x8, x27, #4
	clz	x8, x8
	sub	x2, x9, x8, lsl #1
.Ltmp89:
	mov	x0, x26
	mov	x1, x25
	mov	x3, x24
	bl	_ZSt16__introsort_loopIN9__gnu_cxx17__normal_iteratorIPSt10shared_ptrI8hittableESt6vectorIS4_SaIS4_EEEElNS0_5__ops15_Iter_comp_iterIPFbS4_S4_EEEEvT_SF_T0_T1_
.Ltmp90:
// %bb.25:
	cmp	x27, #257
	b.lt	.LBB20_31
// %bb.26:
	add	x27, x26, #256
.Ltmp93:
	mov	x0, x26
	mov	x1, x27
	mov	x2, x24
	bl	_ZSt16__insertion_sortIN9__gnu_cxx17__normal_iteratorIPSt10shared_ptrI8hittableESt6vectorIS4_SaIS4_EEEENS0_5__ops15_Iter_comp_iterIPFbS4_S4_EEEEvT_SF_T0_
.Ltmp94:
// %bb.27:
	cmp	x27, x25
	b.eq	.LBB20_32
// %bb.28:
	lsl	x8, x23, #4
	lsl	x9, x22, #4
	sub	x8, x8, x9
	add	x9, x19, x9
	sub	x19, x8, #256
	add	x25, x9, #256
.LBB20_29:                              // =>This Inner Loop Header: Depth=1
.Ltmp96:
	mov	x0, x25
	mov	x1, x24
	bl	_ZSt25__unguarded_linear_insertIN9__gnu_cxx17__normal_iteratorIPSt10shared_ptrI8hittableESt6vectorIS4_SaIS4_EEEENS0_5__ops14_Val_comp_iterIPFbS4_S4_EEEEvT_T0_
.Ltmp97:
// %bb.30:                              //   in Loop: Header=BB20_29 Depth=1
	subs	x19, x19, #16
	add	x25, x25, #16
	b.ne	.LBB20_29
	b	.LBB20_32
.LBB20_31:
.Ltmp91:
	mov	x0, x26
	mov	x1, x25
	mov	x2, x24
	bl	_ZSt16__insertion_sortIN9__gnu_cxx17__normal_iteratorIPSt10shared_ptrI8hittableESt6vectorIS4_SaIS4_EEEENS0_5__ops15_Iter_comp_iterIPFbS4_S4_EEEEvT_SF_T0_
.Ltmp92:
.LBB20_32:
.Ltmp99:
	mov	w0, #104
	bl	_Znwm
.Ltmp100:
// %bb.33:
	movi	v0.2s, #1
	adrp	x27, _ZTVSt23_Sp_counted_ptr_inplaceI8bvh_nodeSaIS0_ELN9__gnu_cxx12_Lock_policyE2EE+16
	mov	x25, x0
	add	x27, x27, :lo12:_ZTVSt23_Sp_counted_ptr_inplaceI8bvh_nodeSaIS0_ELN9__gnu_cxx12_Lock_policyE2EE+16
	add	x24, x22, x20, lsr #1
	add	x26, x0, #16
	str	d0, [x0, #8]
	str	x27, [x0]
.Ltmp102:
	fmov	d0, d9
	fmov	d1, d8
	sub	x1, x29, #48
	mov	x0, x26
	mov	x2, x22
	mov	x3, x24
	bl	_ZN8bvh_nodeC2ERKSt6vectorISt10shared_ptrI8hittableESaIS3_EEmmdd
.Ltmp103:
// %bb.34:
	ldr	x22, [x21, #16]
	stp	x26, x25, [x21, #8]
	cbz	x22, .LBB20_76
// %bb.35:
	ldrb	w8, [x28]
	cbz	w8, .LBB20_72
// %bb.36:
	ldr	w0, [x22, #8]
	sub	w8, w0, #1
	str	w8, [x22, #8]
	cmp	w0, #1
	b.eq	.LBB20_73
	b	.LBB20_76
.LBB20_37:
	add	x1, x9, #8
	mov	w0, #1
	bl	__aarch64_ldadd4_acq_rel
	ldur	x8, [x29, #-48]
.LBB20_38:
	add	x25, x22, #1
	add	x8, x8, x25, lsl #4
	ldr	x9, [x8]
	stur	x9, [x29, #-80]
	ldr	x8, [x8, #8]
	stur	x8, [x29, #-72]
	cbz	x8, .LBB20_42
// %bb.39:
	ldrb	w9, [x28]
	cbz	w9, .LBB20_41
// %bb.40:
	ldr	w9, [x8, #8]
	add	w9, w9, #1
	str	w9, [x8, #8]
	b	.LBB20_42
.LBB20_41:
	add	x1, x8, #8
	mov	w0, #1
	bl	__aarch64_ldadd4_acq_rel
.LBB20_42:
.Ltmp86:
	sub	x0, x29, #64
	sub	x1, x29, #80
	blr	x24
.Ltmp87:
// %bb.43:
	mov	w23, w0
	ldur	x24, [x29, #-72]
	cbz	x24, .LBB20_50
// %bb.44:
	ldrb	w8, [x28]
	cbz	w8, .LBB20_46
// %bb.45:
	ldr	w0, [x24, #8]
	sub	w8, w0, #1
	str	w8, [x24, #8]
	cmp	w0, #1
	b.eq	.LBB20_47
	b	.LBB20_50
.LBB20_46:
	add	x1, x24, #8
	mov	w0, #-1
	bl	__aarch64_ldadd4_acq_rel
	cmp	w0, #1
	b.ne	.LBB20_50
.LBB20_47:
	ldr	x8, [x24]
	mov	x0, x24
	ldr	x8, [x8, #16]
	blr	x8
	ldrb	w8, [x28]
	cbz	w8, .LBB20_103
// %bb.48:
	ldr	w0, [x24, #12]
	sub	w8, w0, #1
	str	w8, [x24, #12]
	cmp	w0, #1
	b.ne	.LBB20_50
.LBB20_49:
	ldr	x8, [x24]
	mov	x0, x24
	ldr	x8, [x8, #24]
	blr	x8
.LBB20_50:
	ldur	x24, [x29, #-56]
	cbz	x24, .LBB20_57
// %bb.51:
	ldrb	w8, [x28]
	cbz	w8, .LBB20_53
// %bb.52:
	ldr	w0, [x24, #8]
	sub	w8, w0, #1
	str	w8, [x24, #8]
	cmp	w0, #1
	b.eq	.LBB20_54
	b	.LBB20_57
.LBB20_53:
	add	x1, x24, #8
	mov	w0, #-1
	bl	__aarch64_ldadd4_acq_rel
	cmp	w0, #1
	b.ne	.LBB20_57
.LBB20_54:
	ldr	x8, [x24]
	mov	x0, x24
	ldr	x8, [x8, #16]
	blr	x8
	ldrb	w8, [x28]
	cbz	w8, .LBB20_104
// %bb.55:
	ldr	w0, [x24, #12]
	sub	w8, w0, #1
	str	w8, [x24, #12]
	cmp	w0, #1
	b.ne	.LBB20_57
.LBB20_56:
	ldr	x8, [x24]
	mov	x0, x24
	ldr	x8, [x8, #24]
	blr	x8
.LBB20_57:
	ldur	x8, [x29, #-48]
	tbz	w23, #0, .LBB20_65
// %bb.58:
	add	x9, x8, x22, lsl #4
	ldr	x22, [x21, #16]
	ldr	x10, [x9]
	str	x10, [x21, #8]
	ldr	x20, [x9, #8]
	cmp	x20, x22
	b.eq	.LBB20_122
// %bb.59:
	cbz	x20, .LBB20_62
// %bb.60:
	ldrb	w8, [x28]
	cbz	w8, .LBB20_110
// %bb.61:
	ldr	w8, [x20, #8]
	add	w8, w8, #1
	str	w8, [x20, #8]
.LBB20_62:
	cbz	x22, .LBB20_121
.LBB20_63:
	ldrb	w8, [x28]
	cbz	w8, .LBB20_111
// %bb.64:
	ldr	w0, [x22, #8]
	sub	w8, w0, #1
	str	w8, [x22, #8]
	cmp	w0, #1
	b.eq	.LBB20_112
	b	.LBB20_121
.LBB20_65:
	add	x9, x8, x25, lsl #4
	ldr	x23, [x21, #16]
	ldr	x10, [x9]
	str	x10, [x21, #8]
	ldr	x20, [x9, #8]
	cmp	x20, x23
	b.eq	.LBB20_131
// %bb.66:
	cbz	x20, .LBB20_69
// %bb.67:
	ldrb	w8, [x28]
	cbz	w8, .LBB20_114
// %bb.68:
	ldr	w8, [x20, #8]
	add	w8, w8, #1
	str	w8, [x20, #8]
.LBB20_69:
	cbz	x23, .LBB20_130
.LBB20_70:
	ldrb	w8, [x28]
	cbz	w8, .LBB20_115
// %bb.71:
	ldr	w0, [x23, #8]
	sub	w8, w0, #1
	str	w8, [x23, #8]
	cmp	w0, #1
	b.eq	.LBB20_116
	b	.LBB20_130
.LBB20_72:
	add	x1, x22, #8
	mov	w0, #-1
	bl	__aarch64_ldadd4_acq_rel
	cmp	w0, #1
	b.ne	.LBB20_76
.LBB20_73:
	ldr	x8, [x22]
	mov	x0, x22
	ldr	x8, [x8, #16]
	blr	x8
	ldrb	w8, [x28]
	cbz	w8, .LBB20_105
// %bb.74:
	ldr	w0, [x22, #12]
	sub	w8, w0, #1
	str	w8, [x22, #12]
	cmp	w0, #1
	b.ne	.LBB20_76
.LBB20_75:
	ldr	x8, [x22]
	mov	x0, x22
	ldr	x8, [x8, #24]
	blr	x8
.LBB20_76:
.Ltmp105:
	mov	w0, #104
	bl	_Znwm
.Ltmp106:
// %bb.77:
	movi	v0.2s, #1
	mov	x25, x0
	add	x26, x0, #16
	str	x27, [x0]
	str	d0, [x0, #8]
.Ltmp108:
	fmov	d0, d9
	fmov	d1, d8
	sub	x1, x29, #48
	mov	x0, x26
	mov	x2, x24
	mov	x3, x23
	bl	_ZN8bvh_nodeC2ERKSt6vectorISt10shared_ptrI8hittableESaIS3_EEmmdd
.Ltmp109:
// %bb.78:
	ldr	x22, [x21, #32]
	stp	x26, x25, [x21, #24]
	cbz	x22, .LBB20_144
// %bb.79:
	ldrb	w8, [x28]
	cbz	w8, .LBB20_81
// %bb.80:
	ldr	w0, [x22, #8]
	sub	w8, w0, #1
	str	w8, [x22, #8]
	cmp	w0, #1
	b.eq	.LBB20_82
	b	.LBB20_144
.LBB20_81:
	add	x1, x22, #8
	mov	w0, #-1
	bl	__aarch64_ldadd4_acq_rel
	cmp	w0, #1
	b.ne	.LBB20_144
.LBB20_82:
	ldr	x8, [x22]
	mov	x0, x22
	ldr	x8, [x8, #16]
	blr	x8
	ldrb	w8, [x28]
	cbz	w8, .LBB20_106
// %bb.83:
	ldr	w0, [x22, #12]
	sub	w8, w0, #1
	str	w8, [x22, #12]
	cmp	w0, #1
	b.eq	.LBB20_107
	b	.LBB20_144
.LBB20_84:
	add	x1, x23, #8
	mov	w0, #1
	bl	__aarch64_ldadd4_acq_rel
	ldr	x22, [x21, #32]
	cbnz	x22, .LBB20_13
	b	.LBB20_89
.LBB20_85:
	add	x1, x22, #8
	mov	w0, #-1
	bl	__aarch64_ldadd4_acq_rel
	cmp	w0, #1
	b.ne	.LBB20_89
.LBB20_86:
	ldr	x8, [x22]
	mov	x0, x22
	ldr	x8, [x8, #16]
	blr	x8
	ldrb	w8, [x28]
	cbz	w8, .LBB20_108
// %bb.87:
	ldr	w0, [x22, #12]
	sub	w8, w0, #1
	str	w8, [x22, #12]
	cmp	w0, #1
	b.ne	.LBB20_89
.LBB20_88:
	ldr	x8, [x22]
	mov	x0, x22
	ldr	x8, [x8, #24]
	blr	x8
.LBB20_89:
	ldr	x8, [x21, #24]
	str	x23, [x21, #32]
.LBB20_90:
	ldr	x22, [x21, #16]
	str	x8, [x21, #8]
	cmp	x23, x22
	b.eq	.LBB20_144
// %bb.91:
	cbz	x23, .LBB20_94
// %bb.92:
	ldrb	w8, [x28]
	cbz	w8, .LBB20_97
// %bb.93:
	ldr	w8, [x23, #8]
	add	w8, w8, #1
	str	w8, [x23, #8]
.LBB20_94:
	cbz	x22, .LBB20_102
.LBB20_95:
	ldrb	w8, [x28]
	cbz	w8, .LBB20_98
// %bb.96:
	ldr	w0, [x22, #8]
	sub	w8, w0, #1
	str	w8, [x22, #8]
	cmp	w0, #1
	b.eq	.LBB20_99
	b	.LBB20_102
.LBB20_97:
	add	x1, x23, #8
	mov	w0, #1
	bl	__aarch64_ldadd4_acq_rel
	ldr	x22, [x21, #16]
	cbnz	x22, .LBB20_95
	b	.LBB20_102
.LBB20_98:
	add	x1, x22, #8
	mov	w0, #-1
	bl	__aarch64_ldadd4_acq_rel
	cmp	w0, #1
	b.ne	.LBB20_102
.LBB20_99:
	ldr	x8, [x22]
	mov	x0, x22
	ldr	x8, [x8, #16]
	blr	x8
	ldrb	w8, [x28]
	cbz	w8, .LBB20_109
// %bb.100:
	ldr	w0, [x22, #12]
	sub	w8, w0, #1
	str	w8, [x22, #12]
	cmp	w0, #1
	b.ne	.LBB20_102
.LBB20_101:
	ldr	x8, [x22]
	mov	x0, x22
	ldr	x8, [x8, #24]
	blr	x8
.LBB20_102:
	str	x23, [x21, #16]
	b	.LBB20_144
.LBB20_103:
	add	x1, x24, #12
	mov	w0, #-1
	bl	__aarch64_ldadd4_acq_rel
	cmp	w0, #1
	b.eq	.LBB20_49
	b	.LBB20_50
.LBB20_104:
	add	x1, x24, #12
	mov	w0, #-1
	bl	__aarch64_ldadd4_acq_rel
	cmp	w0, #1
	b.eq	.LBB20_56
	b	.LBB20_57
.LBB20_105:
	add	x1, x22, #12
	mov	w0, #-1
	bl	__aarch64_ldadd4_acq_rel
	cmp	w0, #1
	b.eq	.LBB20_75
	b	.LBB20_76
.LBB20_106:
	add	x1, x22, #12
	mov	w0, #-1
	bl	__aarch64_ldadd4_acq_rel
	cmp	w0, #1
	b.ne	.LBB20_144
.LBB20_107:
	ldr	x8, [x22]
	mov	x0, x22
	ldr	x8, [x8, #24]
	blr	x8
	b	.LBB20_144
.LBB20_108:
	add	x1, x22, #12
	mov	w0, #-1
	bl	__aarch64_ldadd4_acq_rel
	cmp	w0, #1
	b.eq	.LBB20_88
	b	.LBB20_89
.LBB20_109:
	add	x1, x22, #12
	mov	w0, #-1
	bl	__aarch64_ldadd4_acq_rel
	cmp	w0, #1
	b.eq	.LBB20_101
	b	.LBB20_102
.LBB20_110:
	add	x1, x20, #8
	mov	w0, #1
	bl	__aarch64_ldadd4_acq_rel
	ldr	x22, [x21, #16]
	cbnz	x22, .LBB20_63
	b	.LBB20_121
.LBB20_111:
	add	x1, x22, #8
	mov	w0, #-1
	bl	__aarch64_ldadd4_acq_rel
	cmp	w0, #1
	b.ne	.LBB20_121
.LBB20_112:
	ldr	x8, [x22]
	mov	x0, x22
	ldr	x8, [x8, #16]
	blr	x8
	ldrb	w8, [x28]
	cbz	w8, .LBB20_118
// %bb.113:
	ldr	w0, [x22, #12]
	sub	w8, w0, #1
	str	w8, [x22, #12]
	b	.LBB20_119
.LBB20_114:
	add	x1, x20, #8
	mov	w0, #1
	bl	__aarch64_ldadd4_acq_rel
	ldr	x23, [x21, #16]
	cbnz	x23, .LBB20_70
	b	.LBB20_130
.LBB20_115:
	add	x1, x23, #8
	mov	w0, #-1
	bl	__aarch64_ldadd4_acq_rel
	cmp	w0, #1
	b.ne	.LBB20_130
.LBB20_116:
	ldr	x8, [x23]
	mov	x0, x23
	ldr	x8, [x8, #16]
	blr	x8
	ldrb	w8, [x28]
	cbz	w8, .LBB20_127
// %bb.117:
	ldr	w0, [x23, #12]
	sub	w8, w0, #1
	str	w8, [x23, #12]
	b	.LBB20_128
.LBB20_118:
	add	x1, x22, #12
	mov	w0, #-1
	bl	__aarch64_ldadd4_acq_rel
.LBB20_119:
	cmp	w0, #1
	b.ne	.LBB20_121
// %bb.120:
	ldr	x8, [x22]
	mov	x0, x22
	ldr	x8, [x8, #24]
	blr	x8
.LBB20_121:
	ldur	x8, [x29, #-48]
	str	x20, [x21, #16]
.LBB20_122:
	add	x8, x8, x25, lsl #4
	ldr	x22, [x21, #32]
	ldr	x9, [x8]
	str	x9, [x21, #24]
	ldr	x20, [x8, #8]
	cmp	x20, x22
	b.eq	.LBB20_144
// %bb.123:
	cbz	x20, .LBB20_136
// %bb.124:
	ldrb	w8, [x28]
	cbz	w8, .LBB20_126
// %bb.125:
	ldr	w8, [x20, #8]
	add	w8, w8, #1
	str	w8, [x20, #8]
	b	.LBB20_136
.LBB20_126:
	add	x1, x20, #8
	mov	w0, #1
	bl	__aarch64_ldadd4_acq_rel
	ldr	x22, [x21, #32]
	cbnz	x22, .LBB20_137
	b	.LBB20_143
.LBB20_127:
	add	x1, x23, #12
	mov	w0, #-1
	bl	__aarch64_ldadd4_acq_rel
.LBB20_128:
	cmp	w0, #1
	b.ne	.LBB20_130
// %bb.129:
	ldr	x8, [x23]
	mov	x0, x23
	ldr	x8, [x8, #24]
	blr	x8
.LBB20_130:
	ldur	x8, [x29, #-48]
	str	x20, [x21, #16]
.LBB20_131:
	add	x8, x8, x22, lsl #4
	ldr	x22, [x21, #32]
	ldr	x9, [x8]
	str	x9, [x21, #24]
	ldr	x20, [x8, #8]
	cmp	x20, x22
	b.eq	.LBB20_144
// %bb.132:
	cbz	x20, .LBB20_136
// %bb.133:
	ldrb	w8, [x28]
	cbz	w8, .LBB20_135
// %bb.134:
	ldr	w8, [x20, #8]
	add	w8, w8, #1
	str	w8, [x20, #8]
	cbnz	x22, .LBB20_137
	b	.LBB20_143
.LBB20_135:
	add	x1, x20, #8
	mov	w0, #1
	bl	__aarch64_ldadd4_acq_rel
	ldr	x22, [x21, #32]
.LBB20_136:
	cbz	x22, .LBB20_143
.LBB20_137:
	ldrb	w8, [x28]
	cbz	w8, .LBB20_139
// %bb.138:
	ldr	w0, [x22, #8]
	sub	w8, w0, #1
	str	w8, [x22, #8]
	cmp	w0, #1
	b.eq	.LBB20_140
	b	.LBB20_143
.LBB20_139:
	add	x1, x22, #8
	mov	w0, #-1
	bl	__aarch64_ldadd4_acq_rel
	cmp	w0, #1
	b.ne	.LBB20_143
.LBB20_140:
	ldr	x8, [x22]
	mov	x0, x22
	ldr	x8, [x8, #16]
	blr	x8
	ldrb	w8, [x28]
	cbz	w8, .LBB20_163
// %bb.141:
	ldr	w0, [x22, #12]
	sub	w8, w0, #1
	str	w8, [x22, #12]
	cmp	w0, #1
	b.ne	.LBB20_143
.LBB20_142:
	ldr	x8, [x22]
	mov	x0, x22
	ldr	x8, [x8, #24]
	blr	x8
.LBB20_143:
	str	x20, [x21, #32]
.LBB20_144:
	ldr	x8, [sp, #8]                    // 8-byte Folded Reload
	movi	v0.2d, #0000000000000000
	ldr	x0, [x8]
	stp	q0, q0, [sp, #80]
	stp	q0, q0, [sp, #48]
	stp	q0, q0, [sp, #16]
	ldr	x8, [x0]
	ldr	x8, [x8, #8]
.Ltmp111:
	fmov	d0, d9
	fmov	d1, d8
	add	x1, sp, #64
	blr	x8
.Ltmp112:
// %bb.145:
	tbz	w0, #0, .LBB20_148
// %bb.146:
	ldr	x8, [sp]                        // 8-byte Folded Reload
	ldr	x0, [x8]
	ldr	x8, [x0]
	ldr	x8, [x8, #8]
.Ltmp113:
	fmov	d0, d9
	fmov	d1, d8
	add	x1, sp, #16
	blr	x8
.Ltmp114:
// %bb.147:
	tbnz	w0, #0, .LBB20_149
.LBB20_148:
.Ltmp115:
	adrp	x0, :got:_ZSt4cerr
	adrp	x1, .L.str
	add	x1, x1, :lo12:.L.str
	mov	w2, #41
	ldr	x0, [x0, :got_lo12:_ZSt4cerr]
	bl	_ZSt16__ostream_insertIcSt11char_traitsIcEERSt13basic_ostreamIT_T0_ES6_PKS3_l
.Ltmp116:
.LBB20_149:
	ldp	d0, d1, [sp, #64]
	ldp	d6, d7, [sp, #16]
	ldp	d2, d3, [sp, #80]
	ldp	d4, d5, [sp, #96]
	fminnm	d0, d0, d6
	fminnm	d1, d1, d7
	ldp	d16, d17, [sp, #32]
	ldp	d18, d6, [sp, #48]
	stp	d0, d1, [x21, #40]
	ldp	x19, x22, [x29, #-48]
	fminnm	d2, d2, d16
	fmaxnm	d3, d3, d17
	fmaxnm	d4, d4, d18
	fmaxnm	d5, d5, d6
	cmp	x19, x22
	stp	d2, d3, [x21, #56]
	stp	d4, d5, [x21, #72]
	b.ne	.LBB20_155
// %bb.150:
	cbz	x19, .LBB20_152
.LBB20_151:
	mov	x0, x19
	bl	_ZdlPv
.LBB20_152:
	ldp	x20, x19, [sp, #272]            // 16-byte Folded Reload
	ldp	x22, x21, [sp, #256]            // 16-byte Folded Reload
	ldp	x24, x23, [sp, #240]            // 16-byte Folded Reload
	ldp	x26, x25, [sp, #224]            // 16-byte Folded Reload
	ldp	x28, x27, [sp, #208]            // 16-byte Folded Reload
	ldp	x29, x30, [sp, #192]            // 16-byte Folded Reload
	ldp	d9, d8, [sp, #176]              // 16-byte Folded Reload
	add	sp, sp, #288
	ret
.LBB20_153:                             //   in Loop: Header=BB20_155 Depth=1
	ldr	x8, [x20]
	mov	x0, x20
	ldr	x8, [x8, #24]
	blr	x8
.LBB20_154:                             //   in Loop: Header=BB20_155 Depth=1
	add	x19, x19, #16
	cmp	x19, x22
	b.eq	.LBB20_162
.LBB20_155:                             // =>This Inner Loop Header: Depth=1
	ldr	x20, [x19, #8]
	cbz	x20, .LBB20_154
// %bb.156:                             //   in Loop: Header=BB20_155 Depth=1
	ldrb	w8, [x28]
	cbz	w8, .LBB20_158
// %bb.157:                             //   in Loop: Header=BB20_155 Depth=1
	ldr	w0, [x20, #8]
	sub	w8, w0, #1
	str	w8, [x20, #8]
	cmp	w0, #1
	b.ne	.LBB20_154
	b	.LBB20_159
.LBB20_158:                             //   in Loop: Header=BB20_155 Depth=1
	add	x1, x20, #8
	mov	w0, #-1
	bl	__aarch64_ldadd4_acq_rel
	cmp	w0, #1
	b.ne	.LBB20_154
.LBB20_159:                             //   in Loop: Header=BB20_155 Depth=1
	ldr	x8, [x20]
	mov	x0, x20
	ldr	x8, [x8, #16]
	blr	x8
	ldrb	w8, [x28]
	cbz	w8, .LBB20_161
// %bb.160:                             //   in Loop: Header=BB20_155 Depth=1
	ldr	w0, [x20, #12]
	sub	w8, w0, #1
	str	w8, [x20, #12]
	cmp	w0, #1
	b.ne	.LBB20_154
	b	.LBB20_153
.LBB20_161:                             //   in Loop: Header=BB20_155 Depth=1
	add	x1, x20, #12
	mov	w0, #-1
	bl	__aarch64_ldadd4_acq_rel
	cmp	w0, #1
	b.ne	.LBB20_154
	b	.LBB20_153
.LBB20_162:
	ldur	x19, [x29, #-48]
	cbnz	x19, .LBB20_151
	b	.LBB20_152
.LBB20_163:
	add	x1, x22, #12
	mov	w0, #-1
	bl	__aarch64_ldadd4_acq_rel
	cmp	w0, #1
	b.eq	.LBB20_142
	b	.LBB20_143
.LBB20_164:
.Ltmp83:
	bl	_ZSt28__throw_bad_array_new_lengthv
.Ltmp84:
// %bb.165:
.LBB20_166:
.Ltmp110:
	b	.LBB20_169
.LBB20_167:
.Ltmp107:
	b	.LBB20_175
.LBB20_168:
.Ltmp104:
.LBB20_169:
	mov	x21, x0
	mov	x0, x25
	bl	_ZdlPv
	b	.LBB20_176
.LBB20_170:
.Ltmp101:
	b	.LBB20_175
.LBB20_171:
.Ltmp95:
	b	.LBB20_175
.LBB20_172:
.Ltmp88:
	mov	x21, x0
	sub	x0, x29, #80
	bl	_ZNSt12__shared_ptrI8hittableLN9__gnu_cxx12_Lock_policyE2EED2Ev
	sub	x0, x29, #64
	bl	_ZNSt12__shared_ptrI8hittableLN9__gnu_cxx12_Lock_policyE2EED2Ev
	b	.LBB20_176
.LBB20_173:
.Ltmp98:
	b	.LBB20_175
.LBB20_174:
.Ltmp117:
.LBB20_175:
	mov	x21, x0
.LBB20_176:
	sub	x0, x29, #48
	bl	_ZNSt6vectorISt10shared_ptrI8hittableESaIS2_EED2Ev
	b	.LBB20_178
.LBB20_177:
.Ltmp85:
	mov	x21, x0
.LBB20_178:
	ldr	x0, [sp]                        // 8-byte Folded Reload
	bl	_ZNSt12__shared_ptrI8hittableLN9__gnu_cxx12_Lock_policyE2EED2Ev
	ldr	x0, [sp, #8]                    // 8-byte Folded Reload
	bl	_ZNSt12__shared_ptrI8hittableLN9__gnu_cxx12_Lock_policyE2EED2Ev
	mov	x0, x21
	bl	_Unwind_Resume
.Lfunc_end20:
	.size	_ZN8bvh_nodeC2ERKSt6vectorISt10shared_ptrI8hittableESaIS3_EEmmdd, .Lfunc_end20-_ZN8bvh_nodeC2ERKSt6vectorISt10shared_ptrI8hittableESaIS3_EEmmdd
	.cfi_endproc
	.section	.gcc_except_table,"a",@progbits
	.p2align	2
GCC_except_table20:
.Lexception6:
	.byte	255                             // @LPStart Encoding = omit
	.byte	255                             // @TType Encoding = omit
	.byte	1                               // Call site Encoding = uleb128
	.uleb128 .Lcst_end6-.Lcst_begin6
.Lcst_begin6:
	.uleb128 .Ltmp81-.Lfunc_begin6          // >> Call Site 1 <<
	.uleb128 .Ltmp82-.Ltmp81                //   Call between .Ltmp81 and .Ltmp82
	.uleb128 .Ltmp85-.Lfunc_begin6          //     jumps to .Ltmp85
	.byte	0                               //   On action: cleanup
	.uleb128 .Ltmp82-.Lfunc_begin6          // >> Call Site 2 <<
	.uleb128 .Ltmp89-.Ltmp82                //   Call between .Ltmp82 and .Ltmp89
	.byte	0                               //     has no landing pad
	.byte	0                               //   On action: cleanup
	.uleb128 .Ltmp89-.Lfunc_begin6          // >> Call Site 3 <<
	.uleb128 .Ltmp94-.Ltmp89                //   Call between .Ltmp89 and .Ltmp94
	.uleb128 .Ltmp95-.Lfunc_begin6          //     jumps to .Ltmp95
	.byte	0                               //   On action: cleanup
	.uleb128 .Ltmp96-.Lfunc_begin6          // >> Call Site 4 <<
	.uleb128 .Ltmp97-.Ltmp96                //   Call between .Ltmp96 and .Ltmp97
	.uleb128 .Ltmp98-.Lfunc_begin6          //     jumps to .Ltmp98
	.byte	0                               //   On action: cleanup
	.uleb128 .Ltmp91-.Lfunc_begin6          // >> Call Site 5 <<
	.uleb128 .Ltmp92-.Ltmp91                //   Call between .Ltmp91 and .Ltmp92
	.uleb128 .Ltmp95-.Lfunc_begin6          //     jumps to .Ltmp95
	.byte	0                               //   On action: cleanup
	.uleb128 .Ltmp99-.Lfunc_begin6          // >> Call Site 6 <<
	.uleb128 .Ltmp100-.Ltmp99               //   Call between .Ltmp99 and .Ltmp100
	.uleb128 .Ltmp101-.Lfunc_begin6         //     jumps to .Ltmp101
	.byte	0                               //   On action: cleanup
	.uleb128 .Ltmp102-.Lfunc_begin6         // >> Call Site 7 <<
	.uleb128 .Ltmp103-.Ltmp102              //   Call between .Ltmp102 and .Ltmp103
	.uleb128 .Ltmp104-.Lfunc_begin6         //     jumps to .Ltmp104
	.byte	0                               //   On action: cleanup
	.uleb128 .Ltmp103-.Lfunc_begin6         // >> Call Site 8 <<
	.uleb128 .Ltmp86-.Ltmp103               //   Call between .Ltmp103 and .Ltmp86
	.byte	0                               //     has no landing pad
	.byte	0                               //   On action: cleanup
	.uleb128 .Ltmp86-.Lfunc_begin6          // >> Call Site 9 <<
	.uleb128 .Ltmp87-.Ltmp86                //   Call between .Ltmp86 and .Ltmp87
	.uleb128 .Ltmp88-.Lfunc_begin6          //     jumps to .Ltmp88
	.byte	0                               //   On action: cleanup
	.uleb128 .Ltmp87-.Lfunc_begin6          // >> Call Site 10 <<
	.uleb128 .Ltmp105-.Ltmp87               //   Call between .Ltmp87 and .Ltmp105
	.byte	0                               //     has no landing pad
	.byte	0                               //   On action: cleanup
	.uleb128 .Ltmp105-.Lfunc_begin6         // >> Call Site 11 <<
	.uleb128 .Ltmp106-.Ltmp105              //   Call between .Ltmp105 and .Ltmp106
	.uleb128 .Ltmp107-.Lfunc_begin6         //     jumps to .Ltmp107
	.byte	0                               //   On action: cleanup
	.uleb128 .Ltmp108-.Lfunc_begin6         // >> Call Site 12 <<
	.uleb128 .Ltmp109-.Ltmp108              //   Call between .Ltmp108 and .Ltmp109
	.uleb128 .Ltmp110-.Lfunc_begin6         //     jumps to .Ltmp110
	.byte	0                               //   On action: cleanup
	.uleb128 .Ltmp109-.Lfunc_begin6         // >> Call Site 13 <<
	.uleb128 .Ltmp111-.Ltmp109              //   Call between .Ltmp109 and .Ltmp111
	.byte	0                               //     has no landing pad
	.byte	0                               //   On action: cleanup
	.uleb128 .Ltmp111-.Lfunc_begin6         // >> Call Site 14 <<
	.uleb128 .Ltmp116-.Ltmp111              //   Call between .Ltmp111 and .Ltmp116
	.uleb128 .Ltmp117-.Lfunc_begin6         //     jumps to .Ltmp117
	.byte	0                               //   On action: cleanup
	.uleb128 .Ltmp116-.Lfunc_begin6         // >> Call Site 15 <<
	.uleb128 .Ltmp83-.Ltmp116               //   Call between .Ltmp116 and .Ltmp83
	.byte	0                               //     has no landing pad
	.byte	0                               //   On action: cleanup
	.uleb128 .Ltmp83-.Lfunc_begin6          // >> Call Site 16 <<
	.uleb128 .Ltmp84-.Ltmp83                //   Call between .Ltmp83 and .Ltmp84
	.uleb128 .Ltmp85-.Lfunc_begin6          //     jumps to .Ltmp85
	.byte	0                               //   On action: cleanup
	.uleb128 .Ltmp84-.Lfunc_begin6          // >> Call Site 17 <<
	.uleb128 .Lfunc_end20-.Ltmp84           //   Call between .Ltmp84 and .Lfunc_end20
	.byte	0                               //     has no landing pad
	.byte	0                               //   On action: cleanup
.Lcst_end6:
	.p2align	2
                                        // -- End function
	.section	.text._ZNSt12__shared_ptrI8bvh_nodeLN9__gnu_cxx12_Lock_policyE2EED2Ev,"axG",@progbits,_ZNSt12__shared_ptrI8bvh_nodeLN9__gnu_cxx12_Lock_policyE2EED2Ev,comdat
	.weak	_ZNSt12__shared_ptrI8bvh_nodeLN9__gnu_cxx12_Lock_policyE2EED2Ev // -- Begin function _ZNSt12__shared_ptrI8bvh_nodeLN9__gnu_cxx12_Lock_policyE2EED2Ev
	.p2align	2
	.type	_ZNSt12__shared_ptrI8bvh_nodeLN9__gnu_cxx12_Lock_policyE2EED2Ev,@function
_ZNSt12__shared_ptrI8bvh_nodeLN9__gnu_cxx12_Lock_policyE2EED2Ev: // @_ZNSt12__shared_ptrI8bvh_nodeLN9__gnu_cxx12_Lock_policyE2EED2Ev
	.cfi_startproc
// %bb.0:
	stp	x29, x30, [sp, #-32]!           // 16-byte Folded Spill
	stp	x20, x19, [sp, #16]             // 16-byte Folded Spill
	mov	x29, sp
	.cfi_def_cfa w29, 32
	.cfi_offset w19, -8
	.cfi_offset w20, -16
	.cfi_offset w30, -24
	.cfi_offset w29, -32
	ldr	x19, [x0, #8]
	cbz	x19, .LBB21_8
// %bb.1:
	adrp	x20, :got:__libc_single_threaded
	ldr	x20, [x20, :got_lo12:__libc_single_threaded]
	ldrb	w8, [x20]
	cbz	w8, .LBB21_3
// %bb.2:
	ldr	w0, [x19, #8]
	sub	w8, w0, #1
	str	w8, [x19, #8]
	cmp	w0, #1
	b.eq	.LBB21_4
	b	.LBB21_8
.LBB21_3:
	add	x1, x19, #8
	mov	w0, #-1
	bl	__aarch64_ldadd4_acq_rel
	cmp	w0, #1
	b.ne	.LBB21_8
.LBB21_4:
	ldr	x8, [x19]
	mov	x0, x19
	ldr	x8, [x8, #16]
	blr	x8
	ldrb	w8, [x20]
	cbz	w8, .LBB21_7
// %bb.5:
	ldr	w0, [x19, #12]
	sub	w8, w0, #1
	str	w8, [x19, #12]
	cmp	w0, #1
	b.ne	.LBB21_8
.LBB21_6:
	ldr	x8, [x19]
	mov	x0, x19
	ldp	x20, x19, [sp, #16]             // 16-byte Folded Reload
	ldr	x1, [x8, #24]
	ldp	x29, x30, [sp], #32             // 16-byte Folded Reload
	br	x1
.LBB21_7:
	add	x1, x19, #12
	mov	w0, #-1
	bl	__aarch64_ldadd4_acq_rel
	cmp	w0, #1
	b.eq	.LBB21_6
.LBB21_8:
	ldp	x20, x19, [sp, #16]             // 16-byte Folded Reload
	ldp	x29, x30, [sp], #32             // 16-byte Folded Reload
	ret
.Lfunc_end21:
	.size	_ZNSt12__shared_ptrI8bvh_nodeLN9__gnu_cxx12_Lock_policyE2EED2Ev, .Lfunc_end21-_ZNSt12__shared_ptrI8bvh_nodeLN9__gnu_cxx12_Lock_policyE2EED2Ev
	.cfi_endproc
                                        // -- End function
	.section	.text._ZNSt6vectorISt10shared_ptrI8hittableESaIS2_EED2Ev,"axG",@progbits,_ZNSt6vectorISt10shared_ptrI8hittableESaIS2_EED2Ev,comdat
	.weak	_ZNSt6vectorISt10shared_ptrI8hittableESaIS2_EED2Ev // -- Begin function _ZNSt6vectorISt10shared_ptrI8hittableESaIS2_EED2Ev
	.p2align	2
	.type	_ZNSt6vectorISt10shared_ptrI8hittableESaIS2_EED2Ev,@function
_ZNSt6vectorISt10shared_ptrI8hittableESaIS2_EED2Ev: // @_ZNSt6vectorISt10shared_ptrI8hittableESaIS2_EED2Ev
	.cfi_startproc
// %bb.0:
	stp	x29, x30, [sp, #-64]!           // 16-byte Folded Spill
	str	x23, [sp, #16]                  // 8-byte Folded Spill
	mov	x29, sp
	stp	x22, x21, [sp, #32]             // 16-byte Folded Spill
	stp	x20, x19, [sp, #48]             // 16-byte Folded Spill
	.cfi_def_cfa w29, 64
	.cfi_offset w19, -8
	.cfi_offset w20, -16
	.cfi_offset w21, -24
	.cfi_offset w22, -32
	.cfi_offset w23, -48
	.cfi_offset w30, -56
	.cfi_offset w29, -64
	ldp	x19, x22, [x0]
	cmp	x19, x22
	b.eq	.LBB22_12
// %bb.1:
	adrp	x23, :got:__libc_single_threaded
	mov	x20, x0
	ldr	x23, [x23, :got_lo12:__libc_single_threaded]
	b	.LBB22_3
.LBB22_2:                               //   in Loop: Header=BB22_3 Depth=1
	add	x19, x19, #16
	cmp	x19, x22
	b.eq	.LBB22_11
.LBB22_3:                               // =>This Inner Loop Header: Depth=1
	ldr	x21, [x19, #8]
	cbz	x21, .LBB22_2
// %bb.4:                               //   in Loop: Header=BB22_3 Depth=1
	ldrb	w8, [x23]
	cbz	w8, .LBB22_6
// %bb.5:                               //   in Loop: Header=BB22_3 Depth=1
	ldr	w0, [x21, #8]
	sub	w8, w0, #1
	str	w8, [x21, #8]
	cmp	w0, #1
	b.ne	.LBB22_2
	b	.LBB22_7
.LBB22_6:                               //   in Loop: Header=BB22_3 Depth=1
	add	x1, x21, #8
	mov	w0, #-1
	bl	__aarch64_ldadd4_acq_rel
	cmp	w0, #1
	b.ne	.LBB22_2
.LBB22_7:                               //   in Loop: Header=BB22_3 Depth=1
	ldr	x8, [x21]
	mov	x0, x21
	ldr	x8, [x8, #16]
	blr	x8
	ldrb	w8, [x23]
	cbz	w8, .LBB22_9
// %bb.8:                               //   in Loop: Header=BB22_3 Depth=1
	ldr	w0, [x21, #12]
	sub	w8, w0, #1
	str	w8, [x21, #12]
	cmp	w0, #1
	b.ne	.LBB22_2
	b	.LBB22_10
.LBB22_9:                               //   in Loop: Header=BB22_3 Depth=1
	add	x1, x21, #12
	mov	w0, #-1
	bl	__aarch64_ldadd4_acq_rel
	cmp	w0, #1
	b.ne	.LBB22_2
.LBB22_10:                              //   in Loop: Header=BB22_3 Depth=1
	ldr	x8, [x21]
	mov	x0, x21
	ldr	x8, [x8, #24]
	blr	x8
	b	.LBB22_2
.LBB22_11:
	ldr	x19, [x20]
.LBB22_12:
	cbz	x19, .LBB22_14
// %bb.13:
	mov	x0, x19
	ldr	x23, [sp, #16]                  // 8-byte Folded Reload
	ldp	x20, x19, [sp, #48]             // 16-byte Folded Reload
	ldp	x22, x21, [sp, #32]             // 16-byte Folded Reload
	ldp	x29, x30, [sp], #64             // 16-byte Folded Reload
	b	_ZdlPv
.LBB22_14:
	ldp	x20, x19, [sp, #48]             // 16-byte Folded Reload
	ldp	x22, x21, [sp, #32]             // 16-byte Folded Reload
	ldr	x23, [sp, #16]                  // 8-byte Folded Reload
	ldp	x29, x30, [sp], #64             // 16-byte Folded Reload
	ret
.Lfunc_end22:
	.size	_ZNSt6vectorISt10shared_ptrI8hittableESaIS2_EED2Ev, .Lfunc_end22-_ZNSt6vectorISt10shared_ptrI8hittableESaIS2_EED2Ev
	.cfi_endproc
                                        // -- End function
	.text
	.globl	_ZNK8bvh_node3hitERK3rayddR10hit_record // -- Begin function _ZNK8bvh_node3hitERK3rayddR10hit_record
	.p2align	2
	.type	_ZNK8bvh_node3hitERK3rayddR10hit_record,@function
_ZNK8bvh_node3hitERK3rayddR10hit_record: // @_ZNK8bvh_node3hitERK3rayddR10hit_record
	.cfi_startproc
// %bb.0:
	stp	d9, d8, [sp, #-64]!             // 16-byte Folded Spill
	stp	x29, x30, [sp, #16]             // 16-byte Folded Spill
	add	x29, sp, #16
	stp	x22, x21, [sp, #32]             // 16-byte Folded Spill
	stp	x20, x19, [sp, #48]             // 16-byte Folded Spill
	.cfi_def_cfa w29, 48
	.cfi_offset w19, -8
	.cfi_offset w20, -16
	.cfi_offset w21, -24
	.cfi_offset w22, -32
	.cfi_offset w30, -40
	.cfi_offset w29, -48
	.cfi_offset b8, -56
	.cfi_offset b9, -64
	fmov	d9, d1
	fmov	d8, d0
	ldr	d0, [x1]
	ldr	d1, [x0, #40]
	ldr	d3, [x0, #64]
	ldr	d2, [x1, #24]
	fsub	d1, d1, d0
	fsub	d0, d3, d0
	fdiv	d1, d1, d2
	fdiv	d0, d0, d2
	fminnm	d2, d1, d0
	fmaxnm	d1, d1, d0
	fmaxnm	d0, d2, d8
	fminnm	d1, d1, d9
	fcmp	d1, d0
	b.ls	.LBB23_4
// %bb.1:
	ldr	d2, [x1, #8]
	mov	x19, x1
	ldr	d3, [x0, #48]
	mov	x20, x0
	ldr	d5, [x0, #72]
	ldr	d4, [x1, #32]
	fsub	d3, d3, d2
	fsub	d2, d5, d2
	fdiv	d3, d3, d4
	fdiv	d2, d2, d4
	fminnm	d4, d3, d2
	fmaxnm	d2, d3, d2
	fmaxnm	d0, d4, d0
	fminnm	d1, d2, d1
	fcmp	d1, d0
	b.ls	.LBB23_4
// %bb.2:
	ldr	d2, [x19, #16]
	ldr	d3, [x20, #56]
	ldr	d5, [x20, #80]
	ldr	d4, [x19, #40]
	fsub	d3, d3, d2
	fsub	d2, d5, d2
	fdiv	d3, d3, d4
	fdiv	d2, d2, d4
	fminnm	d4, d3, d2
	fmaxnm	d2, d3, d2
	fmaxnm	d0, d4, d0
	fminnm	d1, d2, d1
	fcmp	d1, d0
	b.ls	.LBB23_4
// %bb.3:
	ldr	x0, [x20, #8]
	fmov	d0, d8
	fmov	d1, d9
	mov	x1, x19
	mov	x21, x2
	ldr	x8, [x0]
	ldr	x8, [x8]
	blr	x8
	mov	w22, w0
	ldr	x0, [x20, #24]
	ldr	d0, [x21, #64]
	tst	w22, #0x1
	mov	x1, x19
	mov	x2, x21
	ldr	x8, [x0]
	fcsel	d1, d0, d9, ne
	fmov	d0, d8
	ldr	x8, [x8]
	blr	x8
	orr	w8, w22, w0
	ldp	x20, x19, [sp, #48]             // 16-byte Folded Reload
	and	w0, w8, #0x1
	ldp	x22, x21, [sp, #32]             // 16-byte Folded Reload
	ldp	x29, x30, [sp, #16]             // 16-byte Folded Reload
	ldp	d9, d8, [sp], #64               // 16-byte Folded Reload
	ret
.LBB23_4:
	mov	w8, wzr
	ldp	x20, x19, [sp, #48]             // 16-byte Folded Reload
	and	w0, w8, #0x1
	ldp	x22, x21, [sp, #32]             // 16-byte Folded Reload
	ldp	x29, x30, [sp, #16]             // 16-byte Folded Reload
	ldp	d9, d8, [sp], #64               // 16-byte Folded Reload
	ret
.Lfunc_end23:
	.size	_ZNK8bvh_node3hitERK3rayddR10hit_record, .Lfunc_end23-_ZNK8bvh_node3hitERK3rayddR10hit_record
	.cfi_endproc
                                        // -- End function
	.globl	_ZNK8bvh_node12bounding_boxEddR4aabb // -- Begin function _ZNK8bvh_node12bounding_boxEddR4aabb
	.p2align	2
	.type	_ZNK8bvh_node12bounding_boxEddR4aabb,@function
_ZNK8bvh_node12bounding_boxEddR4aabb:   // @_ZNK8bvh_node12bounding_boxEddR4aabb
	.cfi_startproc
// %bb.0:
	mov	x8, x0
	mov	w0, #1
	ldur	q0, [x8, #72]
	ldur	q1, [x8, #56]
	ldur	q2, [x8, #40]
	stp	q1, q0, [x1, #16]
	str	q2, [x1]
	ret
.Lfunc_end24:
	.size	_ZNK8bvh_node12bounding_boxEddR4aabb, .Lfunc_end24-_ZNK8bvh_node12bounding_boxEddR4aabb
	.cfi_endproc
                                        // -- End function
	.section	.rodata.cst8,"aM",@progbits,8
	.p2align	3                               // -- Begin function _Z11write_colorRSo4vec3i
.LCPI25_0:
	.xword	0x3feff7ced916872b              // double 0.99899999999999999
	.text
	.globl	_Z11write_colorRSo4vec3i
	.p2align	2
	.type	_Z11write_colorRSo4vec3i,@function
_Z11write_colorRSo4vec3i:               // @_Z11write_colorRSo4vec3i
	.cfi_startproc
// %bb.0:
	sub	sp, sp, #96
	str	d12, [sp, #32]                  // 8-byte Folded Spill
	stp	d11, d10, [sp, #40]             // 16-byte Folded Spill
	stp	d9, d8, [sp, #56]               // 16-byte Folded Spill
	stp	x29, x30, [sp, #72]             // 16-byte Folded Spill
	add	x29, sp, #72
	str	x19, [sp, #88]                  // 8-byte Folded Spill
	.cfi_def_cfa w29, 24
	.cfi_offset w19, -8
	.cfi_offset w30, -16
	.cfi_offset w29, -24
	.cfi_offset b8, -32
	.cfi_offset b9, -40
	.cfi_offset b10, -48
	.cfi_offset b11, -56
	.cfi_offset b12, -64
	scvtf	d3, w1
	fmov	d4, #1.00000000
	fcmp	d0, d0
	fdiv	d8, d4, d3
	movi	d4, #0000000000000000
	fcsel	d0, d0, d4, vc
	fcmp	d1, d1
	fcsel	d9, d1, d4, vc
	fcmp	d2, d2
	fcsel	d2, d2, d4, vc
	fmul	d3, d8, d0
	fsqrt	d0, d3
	fcmp	d0, d0
	b.vs	.LBB25_4
// %bb.1:
	fmul	d1, d8, d9
	fsqrt	d9, d1
	fcmp	d9, d9
	b.vs	.LBB25_5
.LBB25_2:
	fmul	d1, d8, d2
	fsqrt	d8, d1
	fcmp	d8, d8
	b.vs	.LBB25_6
.LBB25_3:
	adrp	x8, .LCPI25_0
	movi	d12, #0000000000000000
	fcmp	d0, #0.0
	ldr	d10, [x8, :lo12:.LCPI25_0]
	mov	x8, #4643211215818981376
	fmin	d1, d0, d10
	fmov	d11, x8
	fmul	d1, d1, d11
	fcsel	d0, d12, d1, mi
	fcvtzs	w1, d0
	bl	_ZNSolsEi
	mov	w19, #32
	add	x1, sp, #20
	mov	w2, #1
	strb	w19, [sp, #20]
	bl	_ZSt16__ostream_insertIcSt11char_traitsIcEERSt13basic_ostreamIT_T0_ES6_PKS3_l
	fmin	d0, d9, d10
	fcmp	d9, #0.0
	fmul	d0, d0, d11
	fcsel	d0, d12, d0, mi
	fcvtzs	w1, d0
	bl	_ZNSolsEi
	add	x1, sp, #24
	mov	w2, #1
	strb	w19, [sp, #24]
	bl	_ZSt16__ostream_insertIcSt11char_traitsIcEERSt13basic_ostreamIT_T0_ES6_PKS3_l
	fmin	d0, d8, d10
	fcmp	d8, #0.0
	fmul	d0, d0, d11
	fcsel	d0, d12, d0, mi
	fcvtzs	w1, d0
	bl	_ZNSolsEi
	mov	w8, #10
	add	x1, sp, #28
	mov	w2, #1
	strb	w8, [sp, #28]
	bl	_ZSt16__ostream_insertIcSt11char_traitsIcEERSt13basic_ostreamIT_T0_ES6_PKS3_l
	ldp	x29, x30, [sp, #72]             // 16-byte Folded Reload
	ldp	d9, d8, [sp, #56]               // 16-byte Folded Reload
	ldp	d11, d10, [sp, #40]             // 16-byte Folded Reload
	ldr	x19, [sp, #88]                  // 8-byte Folded Reload
	ldr	d12, [sp, #32]                  // 8-byte Folded Reload
	add	sp, sp, #96
	ret
.LBB25_4:
	fmov	d0, d3
	str	x0, [sp, #8]                    // 8-byte Folded Spill
	str	d2, [sp]                        // 8-byte Folded Spill
	bl	sqrt
	ldr	d2, [sp]                        // 8-byte Folded Reload
	ldr	x0, [sp, #8]                    // 8-byte Folded Reload
	fmul	d1, d8, d9
	fsqrt	d9, d1
	fcmp	d9, d9
	b.vc	.LBB25_2
.LBB25_5:
	str	d0, [sp]                        // 8-byte Folded Spill
	fmov	d0, d1
	str	x0, [sp, #8]                    // 8-byte Folded Spill
	fmov	d9, d2
	bl	sqrt
	fmov	d2, d9
	fmov	d9, d0
	ldr	x0, [sp, #8]                    // 8-byte Folded Reload
	ldr	d0, [sp]                        // 8-byte Folded Reload
	fmul	d1, d8, d2
	fsqrt	d8, d1
	fcmp	d8, d8
	b.vc	.LBB25_3
.LBB25_6:
	str	d0, [sp]                        // 8-byte Folded Spill
	fmov	d0, d1
	str	x0, [sp, #8]                    // 8-byte Folded Spill
	bl	sqrt
	fmov	d8, d0
	ldr	x0, [sp, #8]                    // 8-byte Folded Reload
	ldr	d0, [sp]                        // 8-byte Folded Reload
	b	.LBB25_3
.Lfunc_end25:
	.size	_Z11write_colorRSo4vec3i, .Lfunc_end25-_Z11write_colorRSo4vec3i
	.cfi_endproc
                                        // -- End function
	.globl	stbi_failure_reason             // -- Begin function stbi_failure_reason
	.p2align	2
	.type	stbi_failure_reason,@function
stbi_failure_reason:                    // @stbi_failure_reason
	.cfi_startproc
// %bb.0:
	adrp	x8, .L_MergedGlobals.126+8
	ldr	x0, [x8, :lo12:.L_MergedGlobals.126+8]
	ret
.Lfunc_end26:
	.size	stbi_failure_reason, .Lfunc_end26-stbi_failure_reason
	.cfi_endproc
                                        // -- End function
	.globl	stbi_image_free                 // -- Begin function stbi_image_free
	.p2align	2
	.type	stbi_image_free,@function
stbi_image_free:                        // @stbi_image_free
	.cfi_startproc
// %bb.0:
	b	free
.Lfunc_end27:
	.size	stbi_image_free, .Lfunc_end27-stbi_image_free
	.cfi_endproc
                                        // -- End function
	.globl	stbi_set_flip_vertically_on_load // -- Begin function stbi_set_flip_vertically_on_load
	.p2align	2
	.type	stbi_set_flip_vertically_on_load,@function
stbi_set_flip_vertically_on_load:       // @stbi_set_flip_vertically_on_load
	.cfi_startproc
// %bb.0:
	adrp	x8, .L_MergedGlobals.126
	str	w0, [x8, :lo12:.L_MergedGlobals.126]
	ret
.Lfunc_end28:
	.size	stbi_set_flip_vertically_on_load, .Lfunc_end28-stbi_set_flip_vertically_on_load
	.cfi_endproc
                                        // -- End function
	.globl	stbi_load                       // -- Begin function stbi_load
	.p2align	2
	.type	stbi_load,@function
stbi_load:                              // @stbi_load
	.cfi_startproc
// %bb.0:
	stp	x29, x30, [sp, #-64]!           // 16-byte Folded Spill
	str	x23, [sp, #16]                  // 8-byte Folded Spill
	mov	x29, sp
	stp	x22, x21, [sp, #32]             // 16-byte Folded Spill
	stp	x20, x19, [sp, #48]             // 16-byte Folded Spill
	.cfi_def_cfa w29, 64
	.cfi_offset w19, -8
	.cfi_offset w20, -16
	.cfi_offset w21, -24
	.cfi_offset w22, -32
	.cfi_offset w23, -48
	.cfi_offset w30, -56
	.cfi_offset w29, -64
	mov	x22, x1
	adrp	x1, .L.str.1
	add	x1, x1, :lo12:.L.str.1
	mov	w19, w4
	mov	x20, x3
	mov	x21, x2
	bl	fopen
	cbz	x0, .LBB29_2
// %bb.1:
	mov	x1, x22
	mov	x2, x21
	mov	x3, x20
	mov	w4, w19
	mov	x23, x0
	bl	stbi_load_from_file
	mov	x19, x0
	mov	x0, x23
	bl	fclose
	mov	x0, x19
	ldp	x20, x19, [sp, #48]             // 16-byte Folded Reload
	ldp	x22, x21, [sp, #32]             // 16-byte Folded Reload
	ldr	x23, [sp, #16]                  // 8-byte Folded Reload
	ldp	x29, x30, [sp], #64             // 16-byte Folded Reload
	ret
.LBB29_2:
	adrp	x9, .L.str.2
	adrp	x8, .L_MergedGlobals.126+8
	add	x9, x9, :lo12:.L.str.2
	str	x9, [x8, :lo12:.L_MergedGlobals.126+8]
	ldp	x20, x19, [sp, #48]             // 16-byte Folded Reload
	ldp	x22, x21, [sp, #32]             // 16-byte Folded Reload
	ldr	x23, [sp, #16]                  // 8-byte Folded Reload
	ldp	x29, x30, [sp], #64             // 16-byte Folded Reload
	ret
.Lfunc_end29:
	.size	stbi_load, .Lfunc_end29-stbi_load
	.cfi_endproc
                                        // -- End function
	.section	.rodata.cst8,"aM",@progbits,8
	.p2align	3                               // -- Begin function stbi_load_from_file
.LCPI30_0:
	.word	1                               // 0x1
	.word	128                             // 0x80
	.text
	.globl	stbi_load_from_file
	.p2align	2
	.type	stbi_load_from_file,@function
stbi_load_from_file:                    // @stbi_load_from_file
	.cfi_startproc
// %bb.0:
	sub	sp, sp, #320
	stp	x29, x30, [sp, #224]            // 16-byte Folded Spill
	add	x29, sp, #224
	stp	x28, x27, [sp, #240]            // 16-byte Folded Spill
	stp	x26, x25, [sp, #256]            // 16-byte Folded Spill
	stp	x24, x23, [sp, #272]            // 16-byte Folded Spill
	stp	x22, x21, [sp, #288]            // 16-byte Folded Spill
	stp	x20, x19, [sp, #304]            // 16-byte Folded Spill
	.cfi_def_cfa w29, 96
	.cfi_offset w19, -8
	.cfi_offset w20, -16
	.cfi_offset w21, -24
	.cfi_offset w22, -32
	.cfi_offset w23, -40
	.cfi_offset w24, -48
	.cfi_offset w25, -56
	.cfi_offset w26, -64
	.cfi_offset w27, -72
	.cfi_offset w28, -80
	.cfi_offset w30, -88
	.cfi_offset w29, -96
	adrp	x9, _ZL21stbi__stdio_callbacks
	adrp	x8, .LCPI30_0
	add	x9, x9, :lo12:_ZL21stbi__stdio_callbacks
	add	x25, sp, #8
	add	x21, x25, #56
	mov	x24, x2
	mov	x22, x1
	mov	x1, x21
	ldr	q0, [x9]
	mov	w2, #128
	ldr	x9, [x9, #16]
	mov	w20, w4
	mov	x23, x3
	mov	x19, x0
	stur	q0, [sp, #24]
	ldr	d0, [x8, :lo12:.LCPI30_0]
	ldr	x8, [sp, #24]
	stp	x9, x0, [sp, #40]
	str	x21, [sp, #208]
	str	d0, [sp, #56]
	blr	x8
	cbz	w0, .LBB30_2
// %bb.1:
	add	x8, x25, w0, sxtw
	add	x8, x8, #56
	b	.LBB30_3
.LBB30_2:
	add	x8, x25, #57
	str	wzr, [sp, #56]
	strb	wzr, [sp, #64]
.LBB30_3:
	add	x0, sp, #8
	mov	x1, x22
	mov	x2, x24
	mov	x3, x23
	mov	w4, w20
	stp	x21, x8, [sp, #192]
	bl	_ZL15stbi__load_mainP13stbi__contextPiS1_S1_i
	mov	x21, x0
	cbz	x0, .LBB30_29
// %bb.4:
	adrp	x8, .L_MergedGlobals.126
	ldr	w8, [x8, :lo12:.L_MergedGlobals.126]
	cbz	w8, .LBB30_29
// %bb.5:
	ldr	w8, [x24]
	cbnz	w20, .LBB30_7
// %bb.6:
	ldr	w20, [x23]
.LBB30_7:
	cmp	w8, #2
	b.lt	.LBB30_30
// %bb.8:
	ldr	w9, [x22]
	cmp	w9, #1
	b.lt	.LBB30_30
// %bb.9:
	cmp	w20, #1
	b.lt	.LBB30_30
// %bb.10:
	mov	w12, w20
	sub	w18, w8, #1
	add	x14, x21, #16
	and	x17, x12, #0xfffffff8
	mul	x15, x12, x9
	mov	x10, xzr
	mul	w18, w9, w18
	lsr	x11, x8, #1
	and	x13, x12, #0xffffffe0
	and	x16, x12, #0x18
	neg	x0, x17
	mov	x1, x21
	mov	x2, x14
	b	.LBB30_12
.LBB30_11:                              //   in Loop: Header=BB30_12 Depth=1
	add	x10, x10, #1
	add	x2, x2, x15
	sub	w18, w18, w9
	add	x1, x1, x15
	cmp	x10, x11
	b.eq	.LBB30_30
.LBB30_12:                              // =>This Loop Header: Depth=1
                                        //     Child Loop BB30_14 Depth 2
                                        //       Child Loop BB30_22 Depth 3
                                        //       Child Loop BB30_26 Depth 3
                                        //       Child Loop BB30_28 Depth 3
	mvn	w4, w10
	sxtw	x6, w18
	add	w4, w8, w4
	mov	x3, xzr
	mul	x22, x12, x6
	mov	x24, x1
	mul	w5, w9, w4
	mov	x25, x2
	mul	x4, x15, x10
	add	x7, x21, x22
	sxtw	x5, w5
	add	x22, x14, x22
	add	x6, x4, x12
	mul	x5, x12, x5
	add	x23, x12, x5
	b	.LBB30_14
.LBB30_13:                              //   in Loop: Header=BB30_14 Depth=2
	add	x3, x3, #1
	add	x25, x25, x12
	add	x22, x22, x12
	add	x24, x24, x12
	add	x7, x7, x12
	cmp	x3, x9
	b.eq	.LBB30_11
.LBB30_14:                              //   Parent Loop BB30_12 Depth=1
                                        // =>  This Loop Header: Depth=2
                                        //       Child Loop BB30_22 Depth 3
                                        //       Child Loop BB30_26 Depth 3
                                        //       Child Loop BB30_28 Depth 3
	cmp	w20, #8
	b.hs	.LBB30_16
// %bb.15:                              //   in Loop: Header=BB30_14 Depth=2
	mov	x26, xzr
	b	.LBB30_28
.LBB30_16:                              //   in Loop: Header=BB30_14 Depth=2
	mul	x26, x3, x12
	add	x27, x23, x26
	add	x28, x4, x26
	add	x27, x21, x27
	add	x28, x21, x28
	cmp	x28, x27
	b.hs	.LBB30_19
// %bb.17:                              //   in Loop: Header=BB30_14 Depth=2
	add	x27, x5, x26
	add	x26, x6, x26
	add	x27, x21, x27
	add	x26, x21, x26
	cmp	x27, x26
	b.hs	.LBB30_19
// %bb.18:                              //   in Loop: Header=BB30_14 Depth=2
	mov	x26, xzr
	b	.LBB30_28
.LBB30_19:                              //   in Loop: Header=BB30_14 Depth=2
	cmp	w20, #32
	b.hs	.LBB30_21
// %bb.20:                              //   in Loop: Header=BB30_14 Depth=2
	mov	x28, xzr
	b	.LBB30_25
.LBB30_21:                              //   in Loop: Header=BB30_14 Depth=2
	mov	x26, x22
	mov	x27, x25
	mov	x28, x13
.LBB30_22:                              //   Parent Loop BB30_12 Depth=1
                                        //     Parent Loop BB30_14 Depth=2
                                        // =>    This Inner Loop Header: Depth=3
	ldp	q0, q1, [x26, #-16]
	subs	x28, x28, #32
	ldp	q2, q3, [x27, #-16]
	stp	q0, q1, [x27, #-16]
	add	x27, x27, #32
	stp	q2, q3, [x26, #-16]
	add	x26, x26, #32
	b.ne	.LBB30_22
// %bb.23:                              //   in Loop: Header=BB30_14 Depth=2
	cmp	x13, x12
	b.eq	.LBB30_13
// %bb.24:                              //   in Loop: Header=BB30_14 Depth=2
	mov	x28, x13
	mov	x26, x13
	cbz	x16, .LBB30_28
.LBB30_25:                              //   in Loop: Header=BB30_14 Depth=2
	add	x26, x24, x28
	add	x27, x7, x28
	add	x28, x0, x28
.LBB30_26:                              //   Parent Loop BB30_12 Depth=1
                                        //     Parent Loop BB30_14 Depth=2
                                        // =>    This Inner Loop Header: Depth=3
	ldr	d0, [x27]
	adds	x28, x28, #8
	ldr	d1, [x26]
	str	d0, [x26], #8
	str	d1, [x27], #8
	b.ne	.LBB30_26
// %bb.27:                              //   in Loop: Header=BB30_14 Depth=2
	mov	x26, x17
	cmp	x17, x12
	b.eq	.LBB30_13
.LBB30_28:                              //   Parent Loop BB30_12 Depth=1
                                        //     Parent Loop BB30_14 Depth=2
                                        // =>    This Inner Loop Header: Depth=3
	ldrb	w27, [x7, x26]
	ldrb	w28, [x24, x26]
	strb	w27, [x24, x26]
	strb	w28, [x7, x26]
	add	x26, x26, #1
	cmp	x12, x26
	b.ne	.LBB30_28
	b	.LBB30_13
.LBB30_29:
	cbz	x21, .LBB30_31
.LBB30_30:
	ldr	w8, [sp, #200]
	mov	x0, x19
	ldr	w9, [sp, #192]
	mov	w2, #1
	sub	w8, w9, w8
	sxtw	x1, w8
	bl	fseek
.LBB30_31:
	mov	x0, x21
	ldp	x20, x19, [sp, #304]            // 16-byte Folded Reload
	ldp	x22, x21, [sp, #288]            // 16-byte Folded Reload
	ldp	x24, x23, [sp, #272]            // 16-byte Folded Reload
	ldp	x26, x25, [sp, #256]            // 16-byte Folded Reload
	ldp	x28, x27, [sp, #240]            // 16-byte Folded Reload
	ldp	x29, x30, [sp, #224]            // 16-byte Folded Reload
	add	sp, sp, #320
	ret
.Lfunc_end30:
	.size	stbi_load_from_file, .Lfunc_end30-stbi_load_from_file
	.cfi_endproc
                                        // -- End function
	.globl	stbi_load_from_memory           // -- Begin function stbi_load_from_memory
	.p2align	2
	.type	stbi_load_from_memory,@function
stbi_load_from_memory:                  // @stbi_load_from_memory
	.cfi_startproc
// %bb.0:
	sub	sp, sp, #304
	stp	x29, x30, [sp, #208]            // 16-byte Folded Spill
	add	x29, sp, #208
	stp	x28, x27, [sp, #224]            // 16-byte Folded Spill
	stp	x26, x25, [sp, #240]            // 16-byte Folded Spill
	stp	x24, x23, [sp, #256]            // 16-byte Folded Spill
	stp	x22, x21, [sp, #272]            // 16-byte Folded Spill
	stp	x20, x19, [sp, #288]            // 16-byte Folded Spill
	.cfi_def_cfa w29, 96
	.cfi_offset w19, -8
	.cfi_offset w20, -16
	.cfi_offset w21, -24
	.cfi_offset w22, -32
	.cfi_offset w23, -40
	.cfi_offset w24, -48
	.cfi_offset w25, -56
	.cfi_offset w26, -64
	.cfi_offset w27, -72
	.cfi_offset w28, -80
	.cfi_offset w30, -88
	.cfi_offset w29, -96
	add	x8, x0, w1, sxtw
	mov	x21, x4
	mov	x22, x3
	mov	x20, x2
	str	x0, [sp, #184]
	mov	x1, x2
	stp	x8, x0, [sp, #192]
	mov	x0, sp
	mov	x2, x3
	mov	x3, x4
	mov	w4, w5
	mov	w19, w5
	str	xzr, [sp, #16]
	str	wzr, [sp, #48]
	bl	_ZL15stbi__load_mainP13stbi__contextPiS1_S1_i
	cbz	x0, .LBB31_26
// %bb.1:
	adrp	x8, .L_MergedGlobals.126
	ldr	w8, [x8, :lo12:.L_MergedGlobals.126]
	cbz	w8, .LBB31_26
// %bb.2:
	ldr	w8, [x22]
	cbnz	w19, .LBB31_4
// %bb.3:
	ldr	w19, [x21]
.LBB31_4:
	cmp	w8, #2
	b.lt	.LBB31_26
// %bb.5:
	ldr	w9, [x20]
	cmp	w9, #1
	b.lt	.LBB31_26
// %bb.6:
	cmp	w19, #1
	b.lt	.LBB31_26
// %bb.7:
	mov	w12, w19
	sub	w18, w8, #1
	add	x14, x0, #16
	and	x17, x12, #0xfffffff8
	mul	x15, x12, x9
	mov	x10, xzr
	mul	w18, w9, w18
	lsr	x11, x8, #1
	and	x13, x12, #0xffffffe0
	and	x16, x12, #0x18
	neg	x1, x17
	mov	x2, x0
	mov	x3, x14
	b	.LBB31_9
.LBB31_8:                               //   in Loop: Header=BB31_9 Depth=1
	add	x10, x10, #1
	add	x3, x3, x15
	sub	w18, w18, w9
	add	x2, x2, x15
	cmp	x10, x11
	b.eq	.LBB31_26
.LBB31_9:                               // =>This Loop Header: Depth=1
                                        //     Child Loop BB31_11 Depth 2
                                        //       Child Loop BB31_19 Depth 3
                                        //       Child Loop BB31_23 Depth 3
                                        //       Child Loop BB31_25 Depth 3
	mvn	w5, w10
	sxtw	x7, w18
	add	w5, w8, w5
	mov	x4, xzr
	mul	x21, x12, x7
	mov	x23, x2
	mul	w6, w9, w5
	mov	x24, x3
	mul	x5, x15, x10
	add	x20, x0, x21
	sxtw	x6, w6
	add	x21, x14, x21
	add	x7, x5, x12
	mul	x6, x12, x6
	add	x22, x12, x6
	b	.LBB31_11
.LBB31_10:                              //   in Loop: Header=BB31_11 Depth=2
	add	x4, x4, #1
	add	x24, x24, x12
	add	x21, x21, x12
	add	x23, x23, x12
	add	x20, x20, x12
	cmp	x4, x9
	b.eq	.LBB31_8
.LBB31_11:                              //   Parent Loop BB31_9 Depth=1
                                        // =>  This Loop Header: Depth=2
                                        //       Child Loop BB31_19 Depth 3
                                        //       Child Loop BB31_23 Depth 3
                                        //       Child Loop BB31_25 Depth 3
	cmp	w19, #8
	b.hs	.LBB31_13
// %bb.12:                              //   in Loop: Header=BB31_11 Depth=2
	mov	x25, xzr
	b	.LBB31_25
.LBB31_13:                              //   in Loop: Header=BB31_11 Depth=2
	mul	x25, x4, x12
	add	x26, x22, x25
	add	x27, x5, x25
	add	x26, x0, x26
	add	x27, x0, x27
	cmp	x27, x26
	b.hs	.LBB31_16
// %bb.14:                              //   in Loop: Header=BB31_11 Depth=2
	add	x26, x6, x25
	add	x25, x7, x25
	add	x26, x0, x26
	add	x25, x0, x25
	cmp	x26, x25
	b.hs	.LBB31_16
// %bb.15:                              //   in Loop: Header=BB31_11 Depth=2
	mov	x25, xzr
	b	.LBB31_25
.LBB31_16:                              //   in Loop: Header=BB31_11 Depth=2
	cmp	w19, #32
	b.hs	.LBB31_18
// %bb.17:                              //   in Loop: Header=BB31_11 Depth=2
	mov	x27, xzr
	b	.LBB31_22
.LBB31_18:                              //   in Loop: Header=BB31_11 Depth=2
	mov	x25, x21
	mov	x26, x24
	mov	x27, x13
.LBB31_19:                              //   Parent Loop BB31_9 Depth=1
                                        //     Parent Loop BB31_11 Depth=2
                                        // =>    This Inner Loop Header: Depth=3
	ldp	q0, q1, [x25, #-16]
	subs	x27, x27, #32
	ldp	q2, q3, [x26, #-16]
	stp	q0, q1, [x26, #-16]
	add	x26, x26, #32
	stp	q2, q3, [x25, #-16]
	add	x25, x25, #32
	b.ne	.LBB31_19
// %bb.20:                              //   in Loop: Header=BB31_11 Depth=2
	cmp	x13, x12
	b.eq	.LBB31_10
// %bb.21:                              //   in Loop: Header=BB31_11 Depth=2
	mov	x27, x13
	mov	x25, x13
	cbz	x16, .LBB31_25
.LBB31_22:                              //   in Loop: Header=BB31_11 Depth=2
	add	x25, x23, x27
	add	x26, x20, x27
	add	x27, x1, x27
.LBB31_23:                              //   Parent Loop BB31_9 Depth=1
                                        //     Parent Loop BB31_11 Depth=2
                                        // =>    This Inner Loop Header: Depth=3
	ldr	d0, [x26]
	adds	x27, x27, #8
	ldr	d1, [x25]
	str	d0, [x25], #8
	str	d1, [x26], #8
	b.ne	.LBB31_23
// %bb.24:                              //   in Loop: Header=BB31_11 Depth=2
	mov	x25, x17
	cmp	x17, x12
	b.eq	.LBB31_10
.LBB31_25:                              //   Parent Loop BB31_9 Depth=1
                                        //     Parent Loop BB31_11 Depth=2
                                        // =>    This Inner Loop Header: Depth=3
	ldrb	w26, [x20, x25]
	ldrb	w27, [x23, x25]
	strb	w26, [x23, x25]
	strb	w27, [x20, x25]
	add	x25, x25, #1
	cmp	x12, x25
	b.ne	.LBB31_25
	b	.LBB31_10
.LBB31_26:
	ldp	x20, x19, [sp, #288]            // 16-byte Folded Reload
	ldp	x22, x21, [sp, #272]            // 16-byte Folded Reload
	ldp	x24, x23, [sp, #256]            // 16-byte Folded Reload
	ldp	x26, x25, [sp, #240]            // 16-byte Folded Reload
	ldp	x28, x27, [sp, #224]            // 16-byte Folded Reload
	ldp	x29, x30, [sp, #208]            // 16-byte Folded Reload
	add	sp, sp, #304
	ret
.Lfunc_end31:
	.size	stbi_load_from_memory, .Lfunc_end31-stbi_load_from_memory
	.cfi_endproc
                                        // -- End function
	.section	.rodata.cst8,"aM",@progbits,8
	.p2align	3                               // -- Begin function stbi_load_from_callbacks
.LCPI32_0:
	.word	1                               // 0x1
	.word	128                             // 0x80
	.text
	.globl	stbi_load_from_callbacks
	.p2align	2
	.type	stbi_load_from_callbacks,@function
stbi_load_from_callbacks:               // @stbi_load_from_callbacks
	.cfi_startproc
// %bb.0:
	sub	sp, sp, #304
	stp	x29, x30, [sp, #208]            // 16-byte Folded Spill
	add	x29, sp, #208
	stp	x28, x27, [sp, #224]            // 16-byte Folded Spill
	stp	x26, x25, [sp, #240]            // 16-byte Folded Spill
	stp	x24, x23, [sp, #256]            // 16-byte Folded Spill
	stp	x22, x21, [sp, #272]            // 16-byte Folded Spill
	stp	x20, x19, [sp, #288]            // 16-byte Folded Spill
	.cfi_def_cfa w29, 96
	.cfi_offset w19, -8
	.cfi_offset w20, -16
	.cfi_offset w21, -24
	.cfi_offset w22, -32
	.cfi_offset w23, -40
	.cfi_offset w24, -48
	.cfi_offset w25, -56
	.cfi_offset w26, -64
	.cfi_offset w27, -72
	.cfi_offset w28, -80
	.cfi_offset w30, -88
	.cfi_offset w29, -96
	ldr	q0, [x0]
	adrp	x8, .LCPI32_0
	ldr	x9, [x0, #16]
	mov	x24, sp
	add	x23, x24, #56
	mov	x20, x2
	str	q0, [sp, #16]
	ldr	d0, [x8, :lo12:.LCPI32_0]
	stp	x9, x1, [sp, #32]
	ldr	x8, [sp, #16]
	mov	x0, x1
	mov	x1, x23
	mov	w2, #128
	mov	w19, w5
	mov	x21, x4
	mov	x22, x3
	str	d0, [sp, #48]
	str	x23, [sp, #200]
	blr	x8
	cbz	w0, .LBB32_2
// %bb.1:
	add	x8, x24, w0, sxtw
	add	x8, x8, #56
	b	.LBB32_3
.LBB32_2:
	add	x8, x24, #57
	str	wzr, [sp, #48]
	strb	wzr, [sp, #56]
.LBB32_3:
	mov	x0, sp
	mov	x1, x20
	mov	x2, x22
	mov	x3, x21
	mov	w4, w19
	stp	x23, x8, [sp, #184]
	bl	_ZL15stbi__load_mainP13stbi__contextPiS1_S1_i
	cbz	x0, .LBB32_29
// %bb.4:
	adrp	x8, .L_MergedGlobals.126
	ldr	w8, [x8, :lo12:.L_MergedGlobals.126]
	cbz	w8, .LBB32_29
// %bb.5:
	ldr	w8, [x22]
	cbnz	w19, .LBB32_7
// %bb.6:
	ldr	w19, [x21]
.LBB32_7:
	cmp	w8, #2
	b.lt	.LBB32_29
// %bb.8:
	ldr	w9, [x20]
	cmp	w9, #1
	b.lt	.LBB32_29
// %bb.9:
	cmp	w19, #1
	b.lt	.LBB32_29
// %bb.10:
	mov	w12, w19
	sub	w18, w8, #1
	add	x14, x0, #16
	and	x17, x12, #0xfffffff8
	mul	x15, x12, x9
	mov	x10, xzr
	mul	w18, w9, w18
	lsr	x11, x8, #1
	and	x13, x12, #0xffffffe0
	and	x16, x12, #0x18
	neg	x1, x17
	mov	x2, x0
	mov	x3, x14
	b	.LBB32_12
.LBB32_11:                              //   in Loop: Header=BB32_12 Depth=1
	add	x10, x10, #1
	add	x3, x3, x15
	sub	w18, w18, w9
	add	x2, x2, x15
	cmp	x10, x11
	b.eq	.LBB32_29
.LBB32_12:                              // =>This Loop Header: Depth=1
                                        //     Child Loop BB32_14 Depth 2
                                        //       Child Loop BB32_22 Depth 3
                                        //       Child Loop BB32_26 Depth 3
                                        //       Child Loop BB32_28 Depth 3
	mvn	w5, w10
	sxtw	x7, w18
	add	w5, w8, w5
	mov	x4, xzr
	mul	x21, x12, x7
	mov	x23, x2
	mul	w6, w9, w5
	mov	x24, x3
	mul	x5, x15, x10
	add	x20, x0, x21
	sxtw	x6, w6
	add	x21, x14, x21
	add	x7, x5, x12
	mul	x6, x12, x6
	add	x22, x12, x6
	b	.LBB32_14
.LBB32_13:                              //   in Loop: Header=BB32_14 Depth=2
	add	x4, x4, #1
	add	x24, x24, x12
	add	x21, x21, x12
	add	x23, x23, x12
	add	x20, x20, x12
	cmp	x4, x9
	b.eq	.LBB32_11
.LBB32_14:                              //   Parent Loop BB32_12 Depth=1
                                        // =>  This Loop Header: Depth=2
                                        //       Child Loop BB32_22 Depth 3
                                        //       Child Loop BB32_26 Depth 3
                                        //       Child Loop BB32_28 Depth 3
	cmp	w19, #8
	b.hs	.LBB32_16
// %bb.15:                              //   in Loop: Header=BB32_14 Depth=2
	mov	x25, xzr
	b	.LBB32_28
.LBB32_16:                              //   in Loop: Header=BB32_14 Depth=2
	mul	x25, x4, x12
	add	x26, x22, x25
	add	x27, x5, x25
	add	x26, x0, x26
	add	x27, x0, x27
	cmp	x27, x26
	b.hs	.LBB32_19
// %bb.17:                              //   in Loop: Header=BB32_14 Depth=2
	add	x26, x6, x25
	add	x25, x7, x25
	add	x26, x0, x26
	add	x25, x0, x25
	cmp	x26, x25
	b.hs	.LBB32_19
// %bb.18:                              //   in Loop: Header=BB32_14 Depth=2
	mov	x25, xzr
	b	.LBB32_28
.LBB32_19:                              //   in Loop: Header=BB32_14 Depth=2
	cmp	w19, #32
	b.hs	.LBB32_21
// %bb.20:                              //   in Loop: Header=BB32_14 Depth=2
	mov	x27, xzr
	b	.LBB32_25
.LBB32_21:                              //   in Loop: Header=BB32_14 Depth=2
	mov	x25, x21
	mov	x26, x24
	mov	x27, x13
.LBB32_22:                              //   Parent Loop BB32_12 Depth=1
                                        //     Parent Loop BB32_14 Depth=2
                                        // =>    This Inner Loop Header: Depth=3
	ldp	q0, q1, [x25, #-16]
	subs	x27, x27, #32
	ldp	q2, q3, [x26, #-16]
	stp	q0, q1, [x26, #-16]
	add	x26, x26, #32
	stp	q2, q3, [x25, #-16]
	add	x25, x25, #32
	b.ne	.LBB32_22
// %bb.23:                              //   in Loop: Header=BB32_14 Depth=2
	cmp	x13, x12
	b.eq	.LBB32_13
// %bb.24:                              //   in Loop: Header=BB32_14 Depth=2
	mov	x27, x13
	mov	x25, x13
	cbz	x16, .LBB32_28
.LBB32_25:                              //   in Loop: Header=BB32_14 Depth=2
	add	x25, x23, x27
	add	x26, x20, x27
	add	x27, x1, x27
.LBB32_26:                              //   Parent Loop BB32_12 Depth=1
                                        //     Parent Loop BB32_14 Depth=2
                                        // =>    This Inner Loop Header: Depth=3
	ldr	d0, [x26]
	adds	x27, x27, #8
	ldr	d1, [x25]
	str	d0, [x25], #8
	str	d1, [x26], #8
	b.ne	.LBB32_26
// %bb.27:                              //   in Loop: Header=BB32_14 Depth=2
	mov	x25, x17
	cmp	x17, x12
	b.eq	.LBB32_13
.LBB32_28:                              //   Parent Loop BB32_12 Depth=1
                                        //     Parent Loop BB32_14 Depth=2
                                        // =>    This Inner Loop Header: Depth=3
	ldrb	w26, [x20, x25]
	ldrb	w27, [x23, x25]
	strb	w26, [x23, x25]
	strb	w27, [x20, x25]
	add	x25, x25, #1
	cmp	x12, x25
	b.ne	.LBB32_28
	b	.LBB32_13
.LBB32_29:
	ldp	x20, x19, [sp, #288]            // 16-byte Folded Reload
	ldp	x22, x21, [sp, #272]            // 16-byte Folded Reload
	ldp	x24, x23, [sp, #256]            // 16-byte Folded Reload
	ldp	x26, x25, [sp, #240]            // 16-byte Folded Reload
	ldp	x28, x27, [sp, #224]            // 16-byte Folded Reload
	ldp	x29, x30, [sp, #208]            // 16-byte Folded Reload
	add	sp, sp, #304
	ret
.Lfunc_end32:
	.size	stbi_load_from_callbacks, .Lfunc_end32-stbi_load_from_callbacks
	.cfi_endproc
                                        // -- End function
	.globl	stbi_loadf_from_memory          // -- Begin function stbi_loadf_from_memory
	.p2align	2
	.type	stbi_loadf_from_memory,@function
stbi_loadf_from_memory:                 // @stbi_loadf_from_memory
	.cfi_startproc
// %bb.0:
	sub	sp, sp, #224
	stp	x29, x30, [sp, #208]            // 16-byte Folded Spill
	add	x29, sp, #208
	.cfi_def_cfa w29, 16
	.cfi_offset w30, -8
	.cfi_offset w29, -16
	add	x8, x0, w1, sxtw
	str	x0, [sp, #184]
	mov	x1, x2
	mov	x2, x3
	mov	x3, x4
	mov	w4, w5
	stp	x8, x0, [sp, #192]
	mov	x0, sp
	str	xzr, [sp, #16]
	str	wzr, [sp, #48]
	bl	_ZL16stbi__loadf_mainP13stbi__contextPiS1_S1_i
	ldp	x29, x30, [sp, #208]            // 16-byte Folded Reload
	add	sp, sp, #224
	ret
.Lfunc_end33:
	.size	stbi_loadf_from_memory, .Lfunc_end33-stbi_loadf_from_memory
	.cfi_endproc
                                        // -- End function
	.p2align	2                               // -- Begin function _ZL16stbi__loadf_mainP13stbi__contextPiS1_S1_i
	.type	_ZL16stbi__loadf_mainP13stbi__contextPiS1_S1_i,@function
_ZL16stbi__loadf_mainP13stbi__contextPiS1_S1_i: // @_ZL16stbi__loadf_mainP13stbi__contextPiS1_S1_i
	.cfi_startproc
// %bb.0:
	sub	sp, sp, #144
	stp	x29, x30, [sp, #48]             // 16-byte Folded Spill
	add	x29, sp, #48
	stp	x28, x27, [sp, #64]             // 16-byte Folded Spill
	stp	x26, x25, [sp, #80]             // 16-byte Folded Spill
	stp	x24, x23, [sp, #96]             // 16-byte Folded Spill
	stp	x22, x21, [sp, #112]            // 16-byte Folded Spill
	stp	x20, x19, [sp, #128]            // 16-byte Folded Spill
	.cfi_def_cfa w29, 96
	.cfi_offset w19, -8
	.cfi_offset w20, -16
	.cfi_offset w21, -24
	.cfi_offset w22, -32
	.cfi_offset w23, -40
	.cfi_offset w24, -48
	.cfi_offset w25, -56
	.cfi_offset w26, -64
	.cfi_offset w27, -72
	.cfi_offset w28, -80
	.cfi_offset w30, -88
	.cfi_offset w29, -96
	ldp	x9, x8, [x0, #184]
	adrp	x27, .L.str.119
	mov	w19, w4
	mov	x23, x3
	mov	x20, x0
	mov	x24, x2
	mov	x22, x1
	mov	x25, xzr
	add	x21, x0, #56
	add	x26, x0, #57
	add	x27, x27, :lo12:.L.str.119
.LBB34_1:                               // =>This Inner Loop Header: Depth=1
	cmp	x9, x8
	b.hs	.LBB34_3
// %bb.2:                               //   in Loop: Header=BB34_1 Depth=1
	add	x11, x9, #1
	str	x11, [x20, #184]
	ldrb	w10, [x9]
	mov	x9, x11
	b	.LBB34_8
.LBB34_3:                               //   in Loop: Header=BB34_1 Depth=1
	ldr	w10, [x20, #48]
	cbz	w10, .LBB34_8
// %bb.4:                               //   in Loop: Header=BB34_1 Depth=1
	ldr	x8, [x20, #16]
	mov	x1, x21
	ldr	x0, [x20, #40]
	ldr	w2, [x20, #52]
	blr	x8
	cbz	w0, .LBB34_6
// %bb.5:                               //   in Loop: Header=BB34_1 Depth=1
	mov	x8, x20
	ldrb	w10, [x8, #56]!
	add	x8, x8, w0, sxtw
	b	.LBB34_7
.LBB34_6:                               //   in Loop: Header=BB34_1 Depth=1
	mov	w10, wzr
	mov	x8, x26
	str	wzr, [x20, #48]
	strb	wzr, [x20, #56]
.LBB34_7:                               //   in Loop: Header=BB34_1 Depth=1
	mov	x9, x26
	stp	x26, x8, [x20, #184]
.LBB34_8:                               //   in Loop: Header=BB34_1 Depth=1
	ldrb	w11, [x27, x25]
	cmp	w10, w11
	b.ne	.LBB34_30
// %bb.9:                               //   in Loop: Header=BB34_1 Depth=1
	add	x25, x25, #1
	cmp	x25, #11
	b.ne	.LBB34_1
// %bb.10:
	ldr	x8, [x20, #200]
	mov	x0, x20
	mov	x1, x22
	mov	x2, x24
	mov	x3, x23
	mov	w4, w19
	str	x8, [x20, #184]
	bl	_ZL14stbi__hdr_loadP13stbi__contextPiS1_S1_i
	mov	x21, x0
	cbz	x0, .LBB34_83
// %bb.11:
	adrp	x8, .L_MergedGlobals.126
	ldr	w8, [x8, :lo12:.L_MergedGlobals.126]
	cbz	w8, .LBB34_83
// %bb.12:
	ldr	w8, [x24]
	cbnz	w19, .LBB34_14
// %bb.13:
	ldr	w19, [x23]
.LBB34_14:
	cmp	w8, #2
	b.lt	.LBB34_83
// %bb.15:
	ldr	w9, [x22]
	cmp	w9, #1
	b.lt	.LBB34_83
// %bb.16:
	cmp	w19, #1
	b.lt	.LBB34_83
// %bb.17:
	mov	w12, w19
	sub	w17, w8, #1
	add	x13, x21, #16
	mov	x10, xzr
	mul	x14, x12, x9
	mov	x11, xzr
	mul	w17, w9, w17
	lsr	x15, x8, #1
	and	x16, x12, #0xfffffff8
	lsl	x18, x14, #2
	lsl	x0, x12, #2
	mov	x1, x13
	b	.LBB34_19
.LBB34_18:                              //   in Loop: Header=BB34_19 Depth=1
	add	x11, x11, #1
	add	x1, x1, x18
	sub	w17, w17, w9
	add	x10, x10, x14
	cmp	x11, x15
	b.eq	.LBB34_83
.LBB34_19:                              // =>This Loop Header: Depth=1
                                        //     Child Loop BB34_21 Depth 2
                                        //       Child Loop BB34_28 Depth 3
                                        //       Child Loop BB34_26 Depth 3
	mvn	w3, w11
	sxtw	x4, w17
	add	w3, w8, w3
	mov	x2, xzr
	mov	x22, x10
	mov	x23, x1
	mul	w5, w9, w3
	mul	x3, x12, x4
	sxtw	x6, w5
	sbfiz	x5, x5, #2, #32
	add	x20, x5, #4
	mul	x4, x14, x11
	mul	x6, x12, x6
	add	x5, x13, x3, lsl #2
	mul	x20, x20, x12
	add	x7, x4, x12
	b	.LBB34_21
.LBB34_20:                              //   in Loop: Header=BB34_21 Depth=2
	add	x2, x2, #1
	add	x23, x23, x0
	add	x5, x5, x0
	add	x3, x3, x12
	add	x22, x22, x12
	cmp	x2, x9
	b.eq	.LBB34_18
.LBB34_21:                              //   Parent Loop BB34_19 Depth=1
                                        // =>  This Loop Header: Depth=2
                                        //       Child Loop BB34_28 Depth 3
                                        //       Child Loop BB34_26 Depth 3
	cmp	w19, #8
	b.lo	.LBB34_24
// %bb.22:                              //   in Loop: Header=BB34_21 Depth=2
	mul	x24, x2, x12
	add	x25, x4, x24
	add	x26, x21, x24, lsl #2
	add	x26, x26, x20
	add	x25, x21, x25, lsl #2
	cmp	x26, x25
	b.ls	.LBB34_27
// %bb.23:                              //   in Loop: Header=BB34_21 Depth=2
	add	x25, x6, x24
	add	x24, x7, x24
	add	x25, x21, x25, lsl #2
	add	x24, x21, x24, lsl #2
	cmp	x25, x24
	b.hs	.LBB34_27
.LBB34_24:                              //   in Loop: Header=BB34_21 Depth=2
	mov	x24, xzr
.LBB34_25:                              //   in Loop: Header=BB34_21 Depth=2
	add	x25, x24, x3
	add	x26, x24, x22
	sub	x24, x12, x24
	add	x25, x21, x25, lsl #2
	add	x26, x21, x26, lsl #2
.LBB34_26:                              //   Parent Loop BB34_19 Depth=1
                                        //     Parent Loop BB34_21 Depth=2
                                        // =>    This Inner Loop Header: Depth=3
	ldr	s0, [x25]
	subs	x24, x24, #1
	ldr	s1, [x26]
	str	s0, [x26], #4
	str	s1, [x25], #4
	b.ne	.LBB34_26
	b	.LBB34_20
.LBB34_27:                              //   in Loop: Header=BB34_21 Depth=2
	mov	x24, x5
	mov	x25, x23
	mov	x26, x16
.LBB34_28:                              //   Parent Loop BB34_19 Depth=1
                                        //     Parent Loop BB34_21 Depth=2
                                        // =>    This Inner Loop Header: Depth=3
	ldp	q0, q1, [x24, #-16]
	subs	x26, x26, #8
	ldp	q2, q3, [x25, #-16]
	stp	q0, q1, [x25, #-16]
	add	x25, x25, #32
	stp	q2, q3, [x24, #-16]
	add	x24, x24, #32
	b.ne	.LBB34_28
// %bb.29:                              //   in Loop: Header=BB34_21 Depth=2
	mov	x24, x16
	cmp	x16, x12
	b.eq	.LBB34_20
	b	.LBB34_25
.LBB34_30:
	ldr	x8, [x20, #200]
	mov	x0, x20
	mov	x1, x22
	mov	x2, x24
	mov	x3, x23
	mov	w4, w19
	str	x8, [x20, #184]
	bl	_ZL15stbi__load_mainP13stbi__contextPiS1_S1_i
	mov	x20, x0
	stp	x23, x22, [x29, #-16]           // 16-byte Folded Spill
	cbz	x0, .LBB34_56
// %bb.31:
	adrp	x8, .L_MergedGlobals.126
	ldr	w8, [x8, :lo12:.L_MergedGlobals.126]
	cbz	w8, .LBB34_56
// %bb.32:
	ldr	w8, [x24]
	mov	w9, w19
	cbnz	w19, .LBB34_34
// %bb.33:
	ldr	w9, [x23]
.LBB34_34:
	cmp	w8, #2
	b.lt	.LBB34_57
// %bb.35:
	ldur	x10, [x29, #-8]                 // 8-byte Folded Reload
	ldr	w10, [x10]
	cmp	w10, #1
	b.lt	.LBB34_57
// %bb.36:
	cmp	w9, #1
	b.lt	.LBB34_57
// %bb.37:
	mov	w13, w9
	sub	w14, w8, #1
	add	x15, x20, #16
	and	x18, x13, #0xfffffff8
	mul	x16, x13, x10
	mov	x11, xzr
	mul	w0, w10, w14
	lsr	x12, x8, #1
	and	x22, x13, #0xffffffe0
	and	x17, x13, #0x18
	neg	x1, x18
	mov	x2, x20
	mov	x3, x15
	b	.LBB34_39
.LBB34_38:                              //   in Loop: Header=BB34_39 Depth=1
	add	x11, x11, #1
	add	x3, x3, x16
	sub	w0, w0, w10
	add	x2, x2, x16
	cmp	x11, x12
	b.eq	.LBB34_57
.LBB34_39:                              // =>This Loop Header: Depth=1
                                        //     Child Loop BB34_41 Depth 2
                                        //       Child Loop BB34_49 Depth 3
                                        //       Child Loop BB34_53 Depth 3
                                        //       Child Loop BB34_55 Depth 3
	mvn	w14, w11
	sxtw	x6, w0
	add	w14, w8, w14
	mul	x5, x16, x11
	mul	x23, x13, x6
	mov	x4, xzr
	mul	w14, w10, w14
	add	x7, x5, x13
	add	x21, x20, x23
	add	x25, x15, x23
	sxtw	x14, w14
	mov	x27, x2
	mov	x28, x3
	mul	x6, x13, x14
	add	x26, x13, x6
	b	.LBB34_41
.LBB34_40:                              //   in Loop: Header=BB34_41 Depth=2
	add	x4, x4, #1
	add	x28, x28, x13
	add	x25, x25, x13
	add	x27, x27, x13
	add	x21, x21, x13
	cmp	x4, x10
	b.eq	.LBB34_38
.LBB34_41:                              //   Parent Loop BB34_39 Depth=1
                                        // =>  This Loop Header: Depth=2
                                        //       Child Loop BB34_49 Depth 3
                                        //       Child Loop BB34_53 Depth 3
                                        //       Child Loop BB34_55 Depth 3
	cmp	w9, #8
	b.hs	.LBB34_43
// %bb.42:                              //   in Loop: Header=BB34_41 Depth=2
	mov	x23, xzr
	b	.LBB34_55
.LBB34_43:                              //   in Loop: Header=BB34_41 Depth=2
	mul	x14, x4, x13
	add	x23, x26, x14
	add	x30, x5, x14
	add	x23, x20, x23
	add	x30, x20, x30
	cmp	x30, x23
	b.hs	.LBB34_46
// %bb.44:                              //   in Loop: Header=BB34_41 Depth=2
	add	x23, x6, x14
	add	x14, x7, x14
	add	x23, x20, x23
	add	x14, x20, x14
	cmp	x23, x14
	b.hs	.LBB34_46
// %bb.45:                              //   in Loop: Header=BB34_41 Depth=2
	mov	x23, xzr
	b	.LBB34_55
.LBB34_46:                              //   in Loop: Header=BB34_41 Depth=2
	cmp	w9, #32
	b.hs	.LBB34_48
// %bb.47:                              //   in Loop: Header=BB34_41 Depth=2
	mov	x14, xzr
	b	.LBB34_52
.LBB34_48:                              //   in Loop: Header=BB34_41 Depth=2
	mov	x30, x25
	mov	x23, x28
	mov	x14, x22
.LBB34_49:                              //   Parent Loop BB34_39 Depth=1
                                        //     Parent Loop BB34_41 Depth=2
                                        // =>    This Inner Loop Header: Depth=3
	ldp	q0, q1, [x30, #-16]
	subs	x14, x14, #32
	ldp	q2, q3, [x23, #-16]
	stp	q0, q1, [x23, #-16]
	add	x23, x23, #32
	stp	q2, q3, [x30, #-16]
	add	x30, x30, #32
	b.ne	.LBB34_49
// %bb.50:                              //   in Loop: Header=BB34_41 Depth=2
	cmp	x22, x13
	b.eq	.LBB34_40
// %bb.51:                              //   in Loop: Header=BB34_41 Depth=2
	mov	x14, x22
	mov	x23, x22
	cbz	x17, .LBB34_55
.LBB34_52:                              //   in Loop: Header=BB34_41 Depth=2
	add	x30, x27, x14
	add	x23, x21, x14
	add	x14, x1, x14
.LBB34_53:                              //   Parent Loop BB34_39 Depth=1
                                        //     Parent Loop BB34_41 Depth=2
                                        // =>    This Inner Loop Header: Depth=3
	ldr	d0, [x23]
	adds	x14, x14, #8
	ldr	d1, [x30]
	str	d0, [x30], #8
	str	d1, [x23], #8
	b.ne	.LBB34_53
// %bb.54:                              //   in Loop: Header=BB34_41 Depth=2
	mov	x23, x18
	cmp	x18, x13
	b.eq	.LBB34_40
.LBB34_55:                              //   Parent Loop BB34_39 Depth=1
                                        //     Parent Loop BB34_41 Depth=2
                                        // =>    This Inner Loop Header: Depth=3
	ldrb	w14, [x21, x23]
	ldrb	w30, [x27, x23]
	strb	w14, [x27, x23]
	strb	w30, [x21, x23]
	add	x23, x23, #1
	cmp	x13, x23
	b.ne	.LBB34_55
	b	.LBB34_40
.LBB34_56:
	cbz	x20, .LBB34_68
.LBB34_57:
	ldur	x8, [x29, #-8]                  // 8-byte Folded Reload
	ldr	w9, [x24]
	ldr	w8, [x8]
	cbz	w19, .LBB34_66
// %bb.58:
	mul	w22, w9, w8
	mul	w8, w19, w22
	sbfiz	x0, x8, #2, #32
	bl	malloc
	mov	x21, x0
	cbz	x0, .LBB34_67
.LBB34_59:
	cmp	w22, #1
	b.lt	.LBB34_82
// %bb.60:
	and	w8, w19, #0x1
	add	w8, w19, w8
	sub	w25, w8, #1
	cmp	w25, #1
	b.lt	.LBB34_70
// %bb.61:
	sxtw	x10, w19
	cmp	w25, w19
	mov	x19, xzr
	stp	x25, x22, [x29, #-16]           // 16-byte Folded Spill
	str	x10, [sp, #24]                  // 8-byte Folded Spill
	b.ge	.LBB34_73
// %bb.62:
	adrp	x22, .L_MergedGlobals
	lsl	x8, x10, #2
	mov	w26, #1132396544
	mov	x24, x20
	mov	x23, x21
	add	x22, x22, :lo12:.L_MergedGlobals
	str	x8, [sp, #8]                    // 8-byte Folded Spill
.LBB34_63:                              // =>This Loop Header: Depth=1
                                        //     Child Loop BB34_64 Depth 2
	mul	x8, x19, x10
	mov	x27, x24
	mov	x28, x23
	str	x8, [sp, #16]                   // 8-byte Folded Spill
.LBB34_64:                              //   Parent Loop BB34_63 Depth=1
                                        // =>  This Inner Loop Header: Depth=2
	ldrb	w8, [x27], #1
	fmov	s1, w26
	ucvtf	s0, w8
	fdiv	s0, s0, s1
	ldr	s1, [x22]
	bl	powf
	ldr	s1, [x22, #4]
	subs	x25, x25, #1
	fmul	s0, s0, s1
	str	s0, [x28], #4
	b.ne	.LBB34_64
// %bb.65:                              //   in Loop: Header=BB34_63 Depth=1
	ldp	x9, x8, [sp, #8]                // 16-byte Folded Reload
	fmov	s1, w26
	add	x19, x19, #1
	ldr	x10, [sp, #24]                  // 8-byte Folded Reload
	add	x23, x23, x9
	ldp	x25, x9, [x29, #-16]            // 16-byte Folded Reload
	add	x8, x8, x25
	add	x24, x24, x10
	cmp	x19, x9
	ldr	b0, [x20, x8]
	ucvtf	s0, s0
	fdiv	s0, s0, s1
	str	s0, [x21, x8, lsl #2]
	b.ne	.LBB34_63
	b	.LBB34_82
.LBB34_66:
	ldur	x10, [x29, #-16]                // 8-byte Folded Reload
	ldr	w19, [x10]
	mul	w22, w9, w8
	mul	w8, w19, w22
	sbfiz	x0, x8, #2, #32
	bl	malloc
	mov	x21, x0
	cbnz	x0, .LBB34_59
.LBB34_67:
	mov	x0, x20
	bl	free
	adrp	x9, .L.str.28
	adrp	x8, .L_MergedGlobals.126+8
	add	x9, x9, :lo12:.L.str.28
	b	.LBB34_69
.LBB34_68:
	adrp	x9, .L.str.9
	adrp	x8, .L_MergedGlobals.126+8
	mov	x21, xzr
	add	x9, x9, :lo12:.L.str.9
.LBB34_69:
	str	x9, [x8, :lo12:.L_MergedGlobals.126+8]
	b	.LBB34_83
.LBB34_70:
	cmp	w19, #1
	b.lt	.LBB34_82
// %bb.71:
	mov	w8, w19
	cmp	w22, #2
	b.hs	.LBB34_77
// %bb.72:
	mov	x9, xzr
	b	.LBB34_80
.LBB34_73:
	adrp	x28, .L_MergedGlobals
	lsl	x8, x10, #2
	mov	w22, #1132396544
	mov	x26, x20
	mov	x27, x21
	add	x28, x28, :lo12:.L_MergedGlobals
	str	x8, [sp, #16]                   // 8-byte Folded Spill
.LBB34_74:                              // =>This Loop Header: Depth=1
                                        //     Child Loop BB34_75 Depth 2
	mov	x24, x26
	mov	x23, x27
.LBB34_75:                              //   Parent Loop BB34_74 Depth=1
                                        // =>  This Inner Loop Header: Depth=2
	ldrb	w8, [x24], #1
	fmov	s1, w22
	ucvtf	s0, w8
	fdiv	s0, s0, s1
	ldr	s1, [x28]
	bl	powf
	ldr	s1, [x28, #4]
	subs	x25, x25, #1
	fmul	s0, s0, s1
	str	s0, [x23], #4
	b.ne	.LBB34_75
// %bb.76:                              //   in Loop: Header=BB34_74 Depth=1
	ldr	x8, [sp, #16]                   // 8-byte Folded Reload
	add	x19, x19, #1
	add	x27, x27, x8
	ldr	x8, [sp, #24]                   // 8-byte Folded Reload
	add	x26, x26, x8
	ldp	x25, x8, [x29, #-16]            // 16-byte Folded Reload
	cmp	x19, x8
	b.ne	.LBB34_74
	b	.LBB34_82
.LBB34_77:
	and	x9, x22, #0xfffffffe
	mov	x10, xzr
	add	x11, x21, x8, lsl #2
	lsl	x12, x8, #1
	add	x13, x20, x8
	mov	w14, #1132396544
	mov	x15, x9
.LBB34_78:                              // =>This Inner Loop Header: Depth=1
	ldr	b0, [x20, x10]
	fmov	s1, w14
	ldr	b2, [x13, x10]
	lsl	x16, x10, #2
	add	x10, x10, x12
	subs	x15, x15, #2
	ucvtf	s0, s0
	ucvtf	s2, s2
	fdiv	s0, s0, s1
	fdiv	s1, s2, s1
	str	s0, [x21, x16]
	str	s1, [x11, x16]
	b.ne	.LBB34_78
// %bb.79:
	cmp	x9, x22
	b.eq	.LBB34_82
.LBB34_80:
	mul	x10, x9, x8
	sub	x9, x22, x9
	mov	w11, #1132396544
.LBB34_81:                              // =>This Inner Loop Header: Depth=1
	ldr	b0, [x20, x10]
	fmov	s1, w11
	subs	x9, x9, #1
	ucvtf	s0, s0
	fdiv	s0, s0, s1
	str	s0, [x21, x10, lsl #2]
	add	x10, x10, x8
	b.ne	.LBB34_81
.LBB34_82:
	mov	x0, x20
	bl	free
.LBB34_83:
	mov	x0, x21
	ldp	x20, x19, [sp, #128]            // 16-byte Folded Reload
	ldp	x22, x21, [sp, #112]            // 16-byte Folded Reload
	ldp	x24, x23, [sp, #96]             // 16-byte Folded Reload
	ldp	x26, x25, [sp, #80]             // 16-byte Folded Reload
	ldp	x28, x27, [sp, #64]             // 16-byte Folded Reload
	ldp	x29, x30, [sp, #48]             // 16-byte Folded Reload
	add	sp, sp, #144
	ret
.Lfunc_end34:
	.size	_ZL16stbi__loadf_mainP13stbi__contextPiS1_S1_i, .Lfunc_end34-_ZL16stbi__loadf_mainP13stbi__contextPiS1_S1_i
	.cfi_endproc
                                        // -- End function
	.section	.rodata.cst8,"aM",@progbits,8
	.p2align	3                               // -- Begin function stbi_loadf_from_callbacks
.LCPI35_0:
	.word	1                               // 0x1
	.word	128                             // 0x80
	.text
	.globl	stbi_loadf_from_callbacks
	.p2align	2
	.type	stbi_loadf_from_callbacks,@function
stbi_loadf_from_callbacks:              // @stbi_loadf_from_callbacks
	.cfi_startproc
// %bb.0:
	sub	sp, sp, #288
	stp	x29, x30, [sp, #208]            // 16-byte Folded Spill
	add	x29, sp, #208
	str	x28, [sp, #224]                 // 8-byte Folded Spill
	stp	x24, x23, [sp, #240]            // 16-byte Folded Spill
	stp	x22, x21, [sp, #256]            // 16-byte Folded Spill
	stp	x20, x19, [sp, #272]            // 16-byte Folded Spill
	.cfi_def_cfa w29, 80
	.cfi_offset w19, -8
	.cfi_offset w20, -16
	.cfi_offset w21, -24
	.cfi_offset w22, -32
	.cfi_offset w23, -40
	.cfi_offset w24, -48
	.cfi_offset w28, -64
	.cfi_offset w30, -72
	.cfi_offset w29, -80
	ldr	q0, [x0]
	adrp	x8, .LCPI35_0
	ldr	x9, [x0, #16]
	mov	x24, sp
	add	x23, x24, #56
	mov	x22, x2
	str	q0, [sp, #16]
	ldr	d0, [x8, :lo12:.LCPI35_0]
	stp	x9, x1, [sp, #32]
	ldr	x8, [sp, #16]
	mov	x0, x1
	mov	x1, x23
	mov	w2, #128
	mov	w19, w5
	mov	x20, x4
	mov	x21, x3
	str	d0, [sp, #48]
	str	x23, [sp, #200]
	blr	x8
	cbz	w0, .LBB35_2
// %bb.1:
	add	x8, x24, w0, sxtw
	add	x8, x8, #56
	b	.LBB35_3
.LBB35_2:
	add	x8, x24, #57
	str	wzr, [sp, #48]
	strb	wzr, [sp, #56]
.LBB35_3:
	mov	x0, sp
	mov	x1, x22
	mov	x2, x21
	mov	x3, x20
	mov	w4, w19
	stp	x23, x8, [sp, #184]
	bl	_ZL16stbi__loadf_mainP13stbi__contextPiS1_S1_i
	ldp	x20, x19, [sp, #272]            // 16-byte Folded Reload
	ldp	x22, x21, [sp, #256]            // 16-byte Folded Reload
	ldp	x24, x23, [sp, #240]            // 16-byte Folded Reload
	ldp	x29, x30, [sp, #208]            // 16-byte Folded Reload
	ldr	x28, [sp, #224]                 // 8-byte Folded Reload
	add	sp, sp, #288
	ret
.Lfunc_end35:
	.size	stbi_loadf_from_callbacks, .Lfunc_end35-stbi_loadf_from_callbacks
	.cfi_endproc
                                        // -- End function
	.section	.rodata.cst8,"aM",@progbits,8
	.p2align	3                               // -- Begin function stbi_loadf
.LCPI36_0:
	.word	1                               // 0x1
	.word	128                             // 0x80
	.text
	.globl	stbi_loadf
	.p2align	2
	.type	stbi_loadf,@function
stbi_loadf:                             // @stbi_loadf
	.cfi_startproc
// %bb.0:
	sub	sp, sp, #288
	stp	x29, x30, [sp, #208]            // 16-byte Folded Spill
	add	x29, sp, #208
	stp	x28, x25, [sp, #224]            // 16-byte Folded Spill
	stp	x24, x23, [sp, #240]            // 16-byte Folded Spill
	stp	x22, x21, [sp, #256]            // 16-byte Folded Spill
	stp	x20, x19, [sp, #272]            // 16-byte Folded Spill
	.cfi_def_cfa w29, 80
	.cfi_offset w19, -8
	.cfi_offset w20, -16
	.cfi_offset w21, -24
	.cfi_offset w22, -32
	.cfi_offset w23, -40
	.cfi_offset w24, -48
	.cfi_offset w25, -56
	.cfi_offset w28, -64
	.cfi_offset w30, -72
	.cfi_offset w29, -80
	mov	x23, x1
	adrp	x1, .L.str.1
	add	x1, x1, :lo12:.L.str.1
	mov	w19, w4
	mov	x20, x3
	mov	x21, x2
	bl	fopen
	cbz	x0, .LBB36_3
// %bb.1:
	adrp	x8, _ZL21stbi__stdio_callbacks
	adrp	x9, .LCPI36_0
	add	x8, x8, :lo12:_ZL21stbi__stdio_callbacks
	mov	x25, sp
	add	x24, x25, #56
	mov	w2, #128
	mov	x1, x24
	mov	x22, x0
	ldr	q0, [x8]
	ldr	x8, [x8, #16]
	str	x24, [sp, #200]
	str	q0, [sp, #16]
	ldr	d0, [x9, :lo12:.LCPI36_0]
	stp	x8, x0, [sp, #32]
	ldr	x8, [sp, #16]
	str	d0, [sp, #48]
	blr	x8
	cbz	w0, .LBB36_4
// %bb.2:
	add	x8, x25, w0, sxtw
	add	x8, x8, #56
	b	.LBB36_5
.LBB36_3:
	adrp	x9, .L.str.2
	adrp	x8, .L_MergedGlobals.126+8
	add	x9, x9, :lo12:.L.str.2
	mov	x19, xzr
	str	x9, [x8, :lo12:.L_MergedGlobals.126+8]
	b	.LBB36_6
.LBB36_4:
	add	x8, x25, #57
	str	wzr, [sp, #48]
	strb	wzr, [sp, #56]
.LBB36_5:
	mov	x0, sp
	mov	x1, x23
	mov	x2, x21
	mov	x3, x20
	mov	w4, w19
	stp	x24, x8, [sp, #184]
	bl	_ZL16stbi__loadf_mainP13stbi__contextPiS1_S1_i
	mov	x19, x0
	mov	x0, x22
	bl	fclose
.LBB36_6:
	mov	x0, x19
	ldp	x20, x19, [sp, #272]            // 16-byte Folded Reload
	ldp	x22, x21, [sp, #256]            // 16-byte Folded Reload
	ldp	x24, x23, [sp, #240]            // 16-byte Folded Reload
	ldp	x28, x25, [sp, #224]            // 16-byte Folded Reload
	ldp	x29, x30, [sp, #208]            // 16-byte Folded Reload
	add	sp, sp, #288
	ret
.Lfunc_end36:
	.size	stbi_loadf, .Lfunc_end36-stbi_loadf
	.cfi_endproc
                                        // -- End function
	.section	.rodata.cst8,"aM",@progbits,8
	.p2align	3                               // -- Begin function stbi_loadf_from_file
.LCPI37_0:
	.word	1                               // 0x1
	.word	128                             // 0x80
	.text
	.globl	stbi_loadf_from_file
	.p2align	2
	.type	stbi_loadf_from_file,@function
stbi_loadf_from_file:                   // @stbi_loadf_from_file
	.cfi_startproc
// %bb.0:
	sub	sp, sp, #288
	stp	x29, x30, [sp, #208]            // 16-byte Folded Spill
	add	x29, sp, #208
	str	x28, [sp, #224]                 // 8-byte Folded Spill
	stp	x24, x23, [sp, #240]            // 16-byte Folded Spill
	stp	x22, x21, [sp, #256]            // 16-byte Folded Spill
	stp	x20, x19, [sp, #272]            // 16-byte Folded Spill
	.cfi_def_cfa w29, 80
	.cfi_offset w19, -8
	.cfi_offset w20, -16
	.cfi_offset w21, -24
	.cfi_offset w22, -32
	.cfi_offset w23, -40
	.cfi_offset w24, -48
	.cfi_offset w28, -64
	.cfi_offset w30, -72
	.cfi_offset w29, -80
	adrp	x9, _ZL21stbi__stdio_callbacks
	adrp	x8, .LCPI37_0
	add	x9, x9, :lo12:_ZL21stbi__stdio_callbacks
	mov	x24, sp
	add	x23, x24, #56
	mov	x21, x2
	mov	x22, x1
	mov	x1, x23
	ldr	q0, [x9]
	mov	w2, #128
	ldr	x9, [x9, #16]
	mov	w19, w4
	mov	x20, x3
	str	x23, [sp, #200]
	str	q0, [sp, #16]
	ldr	d0, [x8, :lo12:.LCPI37_0]
	ldr	x8, [sp, #16]
	stp	x9, x0, [sp, #32]
	str	d0, [sp, #48]
	blr	x8
	cbz	w0, .LBB37_2
// %bb.1:
	add	x8, x24, w0, sxtw
	add	x8, x8, #56
	b	.LBB37_3
.LBB37_2:
	add	x8, x24, #57
	str	wzr, [sp, #48]
	strb	wzr, [sp, #56]
.LBB37_3:
	mov	x0, sp
	mov	x1, x22
	mov	x2, x21
	mov	x3, x20
	mov	w4, w19
	stp	x23, x8, [sp, #184]
	bl	_ZL16stbi__loadf_mainP13stbi__contextPiS1_S1_i
	ldp	x20, x19, [sp, #272]            // 16-byte Folded Reload
	ldp	x22, x21, [sp, #256]            // 16-byte Folded Reload
	ldp	x24, x23, [sp, #240]            // 16-byte Folded Reload
	ldp	x29, x30, [sp, #208]            // 16-byte Folded Reload
	ldr	x28, [sp, #224]                 // 8-byte Folded Reload
	add	sp, sp, #288
	ret
.Lfunc_end37:
	.size	stbi_loadf_from_file, .Lfunc_end37-stbi_loadf_from_file
	.cfi_endproc
                                        // -- End function
	.globl	stbi_is_hdr_from_memory         // -- Begin function stbi_is_hdr_from_memory
	.p2align	2
	.type	stbi_is_hdr_from_memory,@function
stbi_is_hdr_from_memory:                // @stbi_is_hdr_from_memory
	.cfi_startproc
// %bb.0:
	sub	sp, sp, #272
	stp	x29, x30, [sp, #208]            // 16-byte Folded Spill
	add	x29, sp, #208
	stp	x28, x23, [sp, #224]            // 16-byte Folded Spill
	stp	x22, x21, [sp, #240]            // 16-byte Folded Spill
	stp	x20, x19, [sp, #256]            // 16-byte Folded Spill
	.cfi_def_cfa w29, 64
	.cfi_offset w19, -8
	.cfi_offset w20, -16
	.cfi_offset w21, -24
	.cfi_offset w22, -32
	.cfi_offset w23, -40
	.cfi_offset w28, -48
	.cfi_offset w30, -56
	.cfi_offset w29, -64
	mov	x21, sp
	adrp	x23, .L.str.119
	mov	x20, xzr
	add	x8, x0, w1, sxtw
	add	x19, x21, #56
	add	x22, x21, #57
	add	x23, x23, :lo12:.L.str.119
	str	xzr, [sp, #16]
	str	wzr, [sp, #48]
	stp	x8, x0, [sp, #192]
	str	x0, [sp, #184]
.LBB38_1:                               // =>This Inner Loop Header: Depth=1
	cmp	x0, x8
	b.hs	.LBB38_3
// %bb.2:                               //   in Loop: Header=BB38_1 Depth=1
	add	x10, x0, #1
	str	x10, [sp, #184]
	ldrb	w9, [x0]
	mov	x0, x10
	b	.LBB38_8
.LBB38_3:                               //   in Loop: Header=BB38_1 Depth=1
	ldr	w9, [sp, #48]
	cbz	w9, .LBB38_8
// %bb.4:                               //   in Loop: Header=BB38_1 Depth=1
	ldr	x8, [sp, #16]
	mov	x1, x19
	ldr	x0, [sp, #40]
	ldr	w2, [sp, #52]
	blr	x8
	cbz	w0, .LBB38_6
// %bb.5:                               //   in Loop: Header=BB38_1 Depth=1
	add	x8, x21, #56
	ldrb	w9, [sp, #56]
	add	x8, x8, w0, sxtw
	b	.LBB38_7
.LBB38_6:                               //   in Loop: Header=BB38_1 Depth=1
	mov	w9, wzr
	mov	x8, x22
	str	wzr, [sp, #48]
	strb	wzr, [sp, #56]
.LBB38_7:                               //   in Loop: Header=BB38_1 Depth=1
	mov	x0, x22
	stp	x22, x8, [sp, #184]
.LBB38_8:                               //   in Loop: Header=BB38_1 Depth=1
	ldrb	w10, [x23, x20]
	cmp	w9, w10
	b.ne	.LBB38_11
// %bb.9:                               //   in Loop: Header=BB38_1 Depth=1
	add	x20, x20, #1
	cmp	x20, #11
	b.ne	.LBB38_1
// %bb.10:
	mov	w0, #1
	ldp	x20, x19, [sp, #256]            // 16-byte Folded Reload
	ldp	x22, x21, [sp, #240]            // 16-byte Folded Reload
	ldp	x28, x23, [sp, #224]            // 16-byte Folded Reload
	ldp	x29, x30, [sp, #208]            // 16-byte Folded Reload
	add	sp, sp, #272
	ret
.LBB38_11:
	mov	w0, wzr
	ldp	x20, x19, [sp, #256]            // 16-byte Folded Reload
	ldp	x22, x21, [sp, #240]            // 16-byte Folded Reload
	ldp	x28, x23, [sp, #224]            // 16-byte Folded Reload
	ldp	x29, x30, [sp, #208]            // 16-byte Folded Reload
	add	sp, sp, #272
	ret
.Lfunc_end38:
	.size	stbi_is_hdr_from_memory, .Lfunc_end38-stbi_is_hdr_from_memory
	.cfi_endproc
                                        // -- End function
	.p2align	2                               // -- Begin function _ZL14stbi__hdr_testP13stbi__context
	.type	_ZL14stbi__hdr_testP13stbi__context,@function
_ZL14stbi__hdr_testP13stbi__context:    // @_ZL14stbi__hdr_testP13stbi__context
	.cfi_startproc
// %bb.0:
	stp	x29, x30, [sp, #-64]!           // 16-byte Folded Spill
	str	x23, [sp, #16]                  // 8-byte Folded Spill
	mov	x29, sp
	stp	x22, x21, [sp, #32]             // 16-byte Folded Spill
	stp	x20, x19, [sp, #48]             // 16-byte Folded Spill
	.cfi_def_cfa w29, 64
	.cfi_offset w19, -8
	.cfi_offset w20, -16
	.cfi_offset w21, -24
	.cfi_offset w22, -32
	.cfi_offset w23, -48
	.cfi_offset w30, -56
	.cfi_offset w29, -64
	ldp	x9, x8, [x0, #184]
	adrp	x23, .L.str.119
	mov	x19, x0
	mov	x21, xzr
	add	x20, x0, #56
	add	x22, x0, #57
	add	x23, x23, :lo12:.L.str.119
.LBB39_1:                               // =>This Inner Loop Header: Depth=1
	cmp	x9, x8
	b.hs	.LBB39_3
// %bb.2:                               //   in Loop: Header=BB39_1 Depth=1
	add	x11, x9, #1
	str	x11, [x19, #184]
	ldrb	w10, [x9]
	mov	x9, x11
	b	.LBB39_8
.LBB39_3:                               //   in Loop: Header=BB39_1 Depth=1
	ldr	w10, [x19, #48]
	cbz	w10, .LBB39_8
// %bb.4:                               //   in Loop: Header=BB39_1 Depth=1
	ldr	x8, [x19, #16]
	mov	x1, x20
	ldr	x0, [x19, #40]
	ldr	w2, [x19, #52]
	blr	x8
	cbz	w0, .LBB39_6
// %bb.5:                               //   in Loop: Header=BB39_1 Depth=1
	mov	x8, x19
	ldrb	w10, [x8, #56]!
	add	x8, x8, w0, sxtw
	b	.LBB39_7
.LBB39_6:                               //   in Loop: Header=BB39_1 Depth=1
	mov	w10, wzr
	mov	x8, x22
	str	wzr, [x19, #48]
	strb	wzr, [x19, #56]
.LBB39_7:                               //   in Loop: Header=BB39_1 Depth=1
	mov	x9, x22
	stp	x22, x8, [x19, #184]
.LBB39_8:                               //   in Loop: Header=BB39_1 Depth=1
	ldrb	w11, [x23, x21]
	cmp	w10, w11
	b.ne	.LBB39_11
// %bb.9:                               //   in Loop: Header=BB39_1 Depth=1
	add	x21, x21, #1
	cmp	x21, #11
	b.ne	.LBB39_1
// %bb.10:
	mov	w0, #1
	b	.LBB39_12
.LBB39_11:
	mov	w0, wzr
.LBB39_12:
	ldr	x8, [x19, #200]
	ldp	x22, x21, [sp, #32]             // 16-byte Folded Reload
	str	x8, [x19, #184]
	ldr	x23, [sp, #16]                  // 8-byte Folded Reload
	ldp	x20, x19, [sp, #48]             // 16-byte Folded Reload
	ldp	x29, x30, [sp], #64             // 16-byte Folded Reload
	ret
.Lfunc_end39:
	.size	_ZL14stbi__hdr_testP13stbi__context, .Lfunc_end39-_ZL14stbi__hdr_testP13stbi__context
	.cfi_endproc
                                        // -- End function
	.section	.rodata.cst8,"aM",@progbits,8
	.p2align	3                               // -- Begin function stbi_is_hdr
.LCPI40_0:
	.word	1                               // 0x1
	.word	128                             // 0x80
	.text
	.globl	stbi_is_hdr
	.p2align	2
	.type	stbi_is_hdr,@function
stbi_is_hdr:                            // @stbi_is_hdr
	.cfi_startproc
// %bb.0:
	sub	sp, sp, #288
	stp	x29, x30, [sp, #208]            // 16-byte Folded Spill
	add	x29, sp, #208
	str	x28, [sp, #224]                 // 8-byte Folded Spill
	stp	x24, x23, [sp, #240]            // 16-byte Folded Spill
	stp	x22, x21, [sp, #256]            // 16-byte Folded Spill
	stp	x20, x19, [sp, #272]            // 16-byte Folded Spill
	.cfi_def_cfa w29, 80
	.cfi_offset w19, -8
	.cfi_offset w20, -16
	.cfi_offset w21, -24
	.cfi_offset w22, -32
	.cfi_offset w23, -40
	.cfi_offset w24, -48
	.cfi_offset w28, -64
	.cfi_offset w30, -72
	.cfi_offset w29, -80
	adrp	x1, .L.str.1
	add	x1, x1, :lo12:.L.str.1
	bl	fopen
	cbz	x0, .LBB40_3
// %bb.1:
	adrp	x8, _ZL21stbi__stdio_callbacks
	adrp	x9, .LCPI40_0
	add	x8, x8, :lo12:_ZL21stbi__stdio_callbacks
	mov	x21, sp
	add	x20, x21, #56
	mov	w2, #128
	mov	x1, x20
	mov	x19, x0
	ldr	q0, [x8]
	ldr	x8, [x8, #16]
	str	x20, [sp, #200]
	str	q0, [sp, #16]
	ldr	d0, [x9, :lo12:.LCPI40_0]
	stp	x8, x0, [sp, #32]
	ldr	x8, [sp, #16]
	str	d0, [sp, #48]
	blr	x8
	cbz	w0, .LBB40_4
// %bb.2:
	add	x8, x21, w0, sxtw
	add	x8, x8, #56
	b	.LBB40_5
.LBB40_3:
	mov	w20, wzr
	b	.LBB40_18
.LBB40_4:
	add	x8, x21, #57
	str	wzr, [sp, #48]
	strb	wzr, [sp, #56]
.LBB40_5:
	mov	x22, sp
	adrp	x24, .L.str.119
	mov	x21, xzr
	add	x23, x22, #57
	mov	x9, x20
	add	x24, x24, :lo12:.L.str.119
	stp	x20, x8, [sp, #184]
.LBB40_6:                               // =>This Inner Loop Header: Depth=1
	cmp	x9, x8
	b.hs	.LBB40_8
// %bb.7:                               //   in Loop: Header=BB40_6 Depth=1
	add	x11, x9, #1
	str	x11, [sp, #184]
	ldrb	w10, [x9]
	mov	x9, x11
	b	.LBB40_13
.LBB40_8:                               //   in Loop: Header=BB40_6 Depth=1
	ldr	w10, [sp, #48]
	cbz	w10, .LBB40_13
// %bb.9:                               //   in Loop: Header=BB40_6 Depth=1
	ldr	x8, [sp, #16]
	mov	x1, x20
	ldr	x0, [sp, #40]
	ldr	w2, [sp, #52]
	blr	x8
	cbz	w0, .LBB40_11
// %bb.10:                              //   in Loop: Header=BB40_6 Depth=1
	add	x8, x22, #56
	ldrb	w10, [sp, #56]
	add	x8, x8, w0, sxtw
	b	.LBB40_12
.LBB40_11:                              //   in Loop: Header=BB40_6 Depth=1
	mov	w10, wzr
	mov	x8, x23
	str	wzr, [sp, #48]
	strb	wzr, [sp, #56]
.LBB40_12:                              //   in Loop: Header=BB40_6 Depth=1
	mov	x9, x23
	stp	x23, x8, [sp, #184]
.LBB40_13:                              //   in Loop: Header=BB40_6 Depth=1
	ldrb	w11, [x24, x21]
	cmp	w10, w11
	b.ne	.LBB40_16
// %bb.14:                              //   in Loop: Header=BB40_6 Depth=1
	add	x21, x21, #1
	cmp	x21, #11
	b.ne	.LBB40_6
// %bb.15:
	mov	w20, #1
	b	.LBB40_17
.LBB40_16:
	mov	w20, wzr
.LBB40_17:
	mov	x0, x19
	bl	fclose
.LBB40_18:
	mov	w0, w20
	ldr	x28, [sp, #224]                 // 8-byte Folded Reload
	ldp	x20, x19, [sp, #272]            // 16-byte Folded Reload
	ldp	x22, x21, [sp, #256]            // 16-byte Folded Reload
	ldp	x24, x23, [sp, #240]            // 16-byte Folded Reload
	ldp	x29, x30, [sp, #208]            // 16-byte Folded Reload
	add	sp, sp, #288
	ret
.Lfunc_end40:
	.size	stbi_is_hdr, .Lfunc_end40-stbi_is_hdr
	.cfi_endproc
                                        // -- End function
	.section	.rodata.cst8,"aM",@progbits,8
	.p2align	3                               // -- Begin function stbi_is_hdr_from_file
.LCPI41_0:
	.word	1                               // 0x1
	.word	128                             // 0x80
	.text
	.globl	stbi_is_hdr_from_file
	.p2align	2
	.type	stbi_is_hdr_from_file,@function
stbi_is_hdr_from_file:                  // @stbi_is_hdr_from_file
	.cfi_startproc
// %bb.0:
	sub	sp, sp, #272
	stp	x29, x30, [sp, #208]            // 16-byte Folded Spill
	add	x29, sp, #208
	stp	x28, x23, [sp, #224]            // 16-byte Folded Spill
	stp	x22, x21, [sp, #240]            // 16-byte Folded Spill
	stp	x20, x19, [sp, #256]            // 16-byte Folded Spill
	.cfi_def_cfa w29, 64
	.cfi_offset w19, -8
	.cfi_offset w20, -16
	.cfi_offset w21, -24
	.cfi_offset w22, -32
	.cfi_offset w23, -40
	.cfi_offset w28, -48
	.cfi_offset w30, -56
	.cfi_offset w29, -64
	adrp	x9, _ZL21stbi__stdio_callbacks
	adrp	x8, .LCPI41_0
	add	x9, x9, :lo12:_ZL21stbi__stdio_callbacks
	mov	x20, sp
	add	x19, x20, #56
	mov	w2, #128
	mov	x1, x19
	ldr	q0, [x9]
	ldr	x9, [x9, #16]
	str	x19, [sp, #200]
	str	q0, [sp, #16]
	ldr	d0, [x8, :lo12:.LCPI41_0]
	ldr	x8, [sp, #16]
	stp	x9, x0, [sp, #32]
	str	d0, [sp, #48]
	blr	x8
	cbz	w0, .LBB41_2
// %bb.1:
	add	x8, x20, w0, sxtw
	add	x8, x8, #56
	b	.LBB41_3
.LBB41_2:
	add	x8, x20, #57
	str	wzr, [sp, #48]
	strb	wzr, [sp, #56]
.LBB41_3:
	mov	x21, sp
	adrp	x23, .L.str.119
	mov	x20, xzr
	add	x22, x21, #57
	mov	x9, x19
	add	x23, x23, :lo12:.L.str.119
	stp	x19, x8, [sp, #184]
.LBB41_4:                               // =>This Inner Loop Header: Depth=1
	cmp	x9, x8
	b.hs	.LBB41_6
// %bb.5:                               //   in Loop: Header=BB41_4 Depth=1
	add	x11, x9, #1
	str	x11, [sp, #184]
	ldrb	w10, [x9]
	mov	x9, x11
	b	.LBB41_11
.LBB41_6:                               //   in Loop: Header=BB41_4 Depth=1
	ldr	w10, [sp, #48]
	cbz	w10, .LBB41_11
// %bb.7:                               //   in Loop: Header=BB41_4 Depth=1
	ldr	x8, [sp, #16]
	mov	x1, x19
	ldr	x0, [sp, #40]
	ldr	w2, [sp, #52]
	blr	x8
	cbz	w0, .LBB41_9
// %bb.8:                               //   in Loop: Header=BB41_4 Depth=1
	add	x8, x21, #56
	ldrb	w10, [sp, #56]
	add	x8, x8, w0, sxtw
	b	.LBB41_10
.LBB41_9:                               //   in Loop: Header=BB41_4 Depth=1
	mov	w10, wzr
	mov	x8, x22
	str	wzr, [sp, #48]
	strb	wzr, [sp, #56]
.LBB41_10:                              //   in Loop: Header=BB41_4 Depth=1
	mov	x9, x22
	stp	x22, x8, [sp, #184]
.LBB41_11:                              //   in Loop: Header=BB41_4 Depth=1
	ldrb	w11, [x23, x20]
	cmp	w10, w11
	b.ne	.LBB41_14
// %bb.12:                              //   in Loop: Header=BB41_4 Depth=1
	add	x20, x20, #1
	cmp	x20, #11
	b.ne	.LBB41_4
// %bb.13:
	mov	w0, #1
	ldp	x20, x19, [sp, #256]            // 16-byte Folded Reload
	ldp	x22, x21, [sp, #240]            // 16-byte Folded Reload
	ldp	x28, x23, [sp, #224]            // 16-byte Folded Reload
	ldp	x29, x30, [sp, #208]            // 16-byte Folded Reload
	add	sp, sp, #272
	ret
.LBB41_14:
	mov	w0, wzr
	ldp	x20, x19, [sp, #256]            // 16-byte Folded Reload
	ldp	x22, x21, [sp, #240]            // 16-byte Folded Reload
	ldp	x28, x23, [sp, #224]            // 16-byte Folded Reload
	ldp	x29, x30, [sp, #208]            // 16-byte Folded Reload
	add	sp, sp, #272
	ret
.Lfunc_end41:
	.size	stbi_is_hdr_from_file, .Lfunc_end41-stbi_is_hdr_from_file
	.cfi_endproc
                                        // -- End function
	.section	.rodata.cst8,"aM",@progbits,8
	.p2align	3                               // -- Begin function stbi_is_hdr_from_callbacks
.LCPI42_0:
	.word	1                               // 0x1
	.word	128                             // 0x80
	.text
	.globl	stbi_is_hdr_from_callbacks
	.p2align	2
	.type	stbi_is_hdr_from_callbacks,@function
stbi_is_hdr_from_callbacks:             // @stbi_is_hdr_from_callbacks
	.cfi_startproc
// %bb.0:
	sub	sp, sp, #272
	stp	x29, x30, [sp, #208]            // 16-byte Folded Spill
	add	x29, sp, #208
	stp	x28, x23, [sp, #224]            // 16-byte Folded Spill
	stp	x22, x21, [sp, #240]            // 16-byte Folded Spill
	stp	x20, x19, [sp, #256]            // 16-byte Folded Spill
	.cfi_def_cfa w29, 64
	.cfi_offset w19, -8
	.cfi_offset w20, -16
	.cfi_offset w21, -24
	.cfi_offset w22, -32
	.cfi_offset w23, -40
	.cfi_offset w28, -48
	.cfi_offset w30, -56
	.cfi_offset w29, -64
	ldr	q0, [x0]
	adrp	x8, .LCPI42_0
	ldr	x9, [x0, #16]
	mov	x20, sp
	add	x19, x20, #56
	mov	x0, x1
	str	q0, [sp, #16]
	ldr	d1, [x8, :lo12:.LCPI42_0]
	stp	x9, x1, [sp, #32]
	ldr	x8, [sp, #16]
	mov	x1, x19
	mov	w2, #128
	str	d1, [sp, #48]
	str	x19, [sp, #200]
	blr	x8
	cbz	w0, .LBB42_2
// %bb.1:
	add	x8, x20, w0, sxtw
	add	x8, x8, #56
	b	.LBB42_3
.LBB42_2:
	add	x8, x20, #57
	str	wzr, [sp, #48]
	strb	wzr, [sp, #56]
.LBB42_3:
	mov	x21, sp
	adrp	x23, .L.str.119
	mov	x20, xzr
	add	x22, x21, #57
	mov	x9, x19
	add	x23, x23, :lo12:.L.str.119
	stp	x19, x8, [sp, #184]
.LBB42_4:                               // =>This Inner Loop Header: Depth=1
	cmp	x9, x8
	b.hs	.LBB42_6
// %bb.5:                               //   in Loop: Header=BB42_4 Depth=1
	add	x11, x9, #1
	str	x11, [sp, #184]
	ldrb	w10, [x9]
	mov	x9, x11
	b	.LBB42_11
.LBB42_6:                               //   in Loop: Header=BB42_4 Depth=1
	ldr	w10, [sp, #48]
	cbz	w10, .LBB42_11
// %bb.7:                               //   in Loop: Header=BB42_4 Depth=1
	ldr	x8, [sp, #16]
	mov	x1, x19
	ldr	x0, [sp, #40]
	ldr	w2, [sp, #52]
	blr	x8
	cbz	w0, .LBB42_9
// %bb.8:                               //   in Loop: Header=BB42_4 Depth=1
	add	x8, x21, #56
	ldrb	w10, [sp, #56]
	add	x8, x8, w0, sxtw
	b	.LBB42_10
.LBB42_9:                               //   in Loop: Header=BB42_4 Depth=1
	mov	w10, wzr
	mov	x8, x22
	str	wzr, [sp, #48]
	strb	wzr, [sp, #56]
.LBB42_10:                              //   in Loop: Header=BB42_4 Depth=1
	mov	x9, x22
	stp	x22, x8, [sp, #184]
.LBB42_11:                              //   in Loop: Header=BB42_4 Depth=1
	ldrb	w11, [x23, x20]
	cmp	w10, w11
	b.ne	.LBB42_14
// %bb.12:                              //   in Loop: Header=BB42_4 Depth=1
	add	x20, x20, #1
	cmp	x20, #11
	b.ne	.LBB42_4
// %bb.13:
	mov	w0, #1
	ldp	x20, x19, [sp, #256]            // 16-byte Folded Reload
	ldp	x22, x21, [sp, #240]            // 16-byte Folded Reload
	ldp	x28, x23, [sp, #224]            // 16-byte Folded Reload
	ldp	x29, x30, [sp, #208]            // 16-byte Folded Reload
	add	sp, sp, #272
	ret
.LBB42_14:
	mov	w0, wzr
	ldp	x20, x19, [sp, #256]            // 16-byte Folded Reload
	ldp	x22, x21, [sp, #240]            // 16-byte Folded Reload
	ldp	x28, x23, [sp, #224]            // 16-byte Folded Reload
	ldp	x29, x30, [sp, #208]            // 16-byte Folded Reload
	add	sp, sp, #272
	ret
.Lfunc_end42:
	.size	stbi_is_hdr_from_callbacks, .Lfunc_end42-stbi_is_hdr_from_callbacks
	.cfi_endproc
                                        // -- End function
	.globl	stbi_ldr_to_hdr_gamma           // -- Begin function stbi_ldr_to_hdr_gamma
	.p2align	2
	.type	stbi_ldr_to_hdr_gamma,@function
stbi_ldr_to_hdr_gamma:                  // @stbi_ldr_to_hdr_gamma
	.cfi_startproc
// %bb.0:
	adrp	x8, .L_MergedGlobals
	str	s0, [x8, :lo12:.L_MergedGlobals]
	ret
.Lfunc_end43:
	.size	stbi_ldr_to_hdr_gamma, .Lfunc_end43-stbi_ldr_to_hdr_gamma
	.cfi_endproc
                                        // -- End function
	.globl	stbi_ldr_to_hdr_scale           // -- Begin function stbi_ldr_to_hdr_scale
	.p2align	2
	.type	stbi_ldr_to_hdr_scale,@function
stbi_ldr_to_hdr_scale:                  // @stbi_ldr_to_hdr_scale
	.cfi_startproc
// %bb.0:
	adrp	x8, .L_MergedGlobals+4
	str	s0, [x8, :lo12:.L_MergedGlobals+4]
	ret
.Lfunc_end44:
	.size	stbi_ldr_to_hdr_scale, .Lfunc_end44-stbi_ldr_to_hdr_scale
	.cfi_endproc
                                        // -- End function
	.globl	stbi_hdr_to_ldr_gamma           // -- Begin function stbi_hdr_to_ldr_gamma
	.p2align	2
	.type	stbi_hdr_to_ldr_gamma,@function
stbi_hdr_to_ldr_gamma:                  // @stbi_hdr_to_ldr_gamma
	.cfi_startproc
// %bb.0:
	fmov	s1, #1.00000000
	adrp	x8, .L_MergedGlobals+8
	fdiv	s0, s1, s0
	str	s0, [x8, :lo12:.L_MergedGlobals+8]
	ret
.Lfunc_end45:
	.size	stbi_hdr_to_ldr_gamma, .Lfunc_end45-stbi_hdr_to_ldr_gamma
	.cfi_endproc
                                        // -- End function
	.globl	stbi_hdr_to_ldr_scale           // -- Begin function stbi_hdr_to_ldr_scale
	.p2align	2
	.type	stbi_hdr_to_ldr_scale,@function
stbi_hdr_to_ldr_scale:                  // @stbi_hdr_to_ldr_scale
	.cfi_startproc
// %bb.0:
	fmov	s1, #1.00000000
	adrp	x8, .L_MergedGlobals+12
	fdiv	s0, s1, s0
	str	s0, [x8, :lo12:.L_MergedGlobals+12]
	ret
.Lfunc_end46:
	.size	stbi_hdr_to_ldr_scale, .Lfunc_end46-stbi_hdr_to_ldr_scale
	.cfi_endproc
                                        // -- End function
	.globl	stbi_zlib_decode_malloc_guesssize // -- Begin function stbi_zlib_decode_malloc_guesssize
	.p2align	2
	.type	stbi_zlib_decode_malloc_guesssize,@function
stbi_zlib_decode_malloc_guesssize:      // @stbi_zlib_decode_malloc_guesssize
	.cfi_startproc
// %bb.0:
	stp	x29, x30, [sp, #-64]!           // 16-byte Folded Spill
	str	x28, [sp, #16]                  // 8-byte Folded Spill
	mov	x29, sp
	stp	x22, x21, [sp, #32]             // 16-byte Folded Spill
	stp	x20, x19, [sp, #48]             // 16-byte Folded Spill
	sub	sp, sp, #1, lsl #12             // =4096
	.cfi_def_cfa w29, 64
	.cfi_offset w19, -8
	.cfi_offset w20, -16
	.cfi_offset w21, -24
	.cfi_offset w22, -32
	.cfi_offset w28, -48
	.cfi_offset w30, -56
	.cfi_offset w29, -64
	mov	w20, w2
	mov	x21, x0
	sxtw	x0, w20
	mov	x19, x3
	mov	w22, w1
	bl	malloc
	cbz	x0, .LBB47_4
// %bb.1:
	mov	x1, x0
	add	x8, x21, w22, sxtw
	mov	x0, sp
	mov	w2, w20
	mov	w3, #1
	mov	w4, #1
	stp	x21, x8, [sp]
	bl	_ZL13stbi__do_zlibP10stbi__zbufPciii
	cbz	w0, .LBB47_5
// %bb.2:
	cbz	x19, .LBB47_6
// %bb.3:
	ldr	w8, [sp, #24]
	ldr	x0, [sp, #32]
	sub	w8, w8, w0
	str	w8, [x19]
.LBB47_4:
	add	sp, sp, #1, lsl #12             // =4096
	ldp	x20, x19, [sp, #48]             // 16-byte Folded Reload
	ldp	x22, x21, [sp, #32]             // 16-byte Folded Reload
	ldr	x28, [sp, #16]                  // 8-byte Folded Reload
	ldp	x29, x30, [sp], #64             // 16-byte Folded Reload
	ret
.LBB47_5:
	ldr	x0, [sp, #32]
	bl	free
	mov	x0, xzr
	add	sp, sp, #1, lsl #12             // =4096
	ldp	x20, x19, [sp, #48]             // 16-byte Folded Reload
	ldp	x22, x21, [sp, #32]             // 16-byte Folded Reload
	ldr	x28, [sp, #16]                  // 8-byte Folded Reload
	ldp	x29, x30, [sp], #64             // 16-byte Folded Reload
	ret
.LBB47_6:
	ldr	x0, [sp, #32]
	add	sp, sp, #1, lsl #12             // =4096
	ldp	x20, x19, [sp, #48]             // 16-byte Folded Reload
	ldp	x22, x21, [sp, #32]             // 16-byte Folded Reload
	ldr	x28, [sp, #16]                  // 8-byte Folded Reload
	ldp	x29, x30, [sp], #64             // 16-byte Folded Reload
	ret
.Lfunc_end47:
	.size	stbi_zlib_decode_malloc_guesssize, .Lfunc_end47-stbi_zlib_decode_malloc_guesssize
	.cfi_endproc
                                        // -- End function
	.p2align	2                               // -- Begin function _ZL13stbi__do_zlibP10stbi__zbufPciii
	.type	_ZL13stbi__do_zlibP10stbi__zbufPciii,@function
_ZL13stbi__do_zlibP10stbi__zbufPciii:   // @_ZL13stbi__do_zlibP10stbi__zbufPciii
	.cfi_startproc
// %bb.0:
	stp	x29, x30, [sp, #-96]!           // 16-byte Folded Spill
	stp	x28, x27, [sp, #16]             // 16-byte Folded Spill
	mov	x29, sp
	stp	x26, x25, [sp, #32]             // 16-byte Folded Spill
	stp	x24, x23, [sp, #48]             // 16-byte Folded Spill
	stp	x22, x21, [sp, #64]             // 16-byte Folded Spill
	stp	x20, x19, [sp, #80]             // 16-byte Folded Spill
	sub	sp, sp, #2528
	.cfi_def_cfa w29, 96
	.cfi_offset w19, -8
	.cfi_offset w20, -16
	.cfi_offset w21, -24
	.cfi_offset w22, -32
	.cfi_offset w23, -40
	.cfi_offset w24, -48
	.cfi_offset w25, -56
	.cfi_offset w26, -64
	.cfi_offset w27, -72
	.cfi_offset w28, -80
	.cfi_offset w30, -88
	.cfi_offset w29, -96
	mov	x24, x1
	mov	x19, x0
	add	x8, x1, w2, sxtw
	stp	x1, x1, [x0, #24]
	str	w3, [x0, #48]
	str	x8, [x0, #40]
	cbz	w4, .LBB48_10
// %bb.1:
	ldp	x9, x10, [x19]
	cmp	x9, x10
	b.hs	.LBB48_4
// %bb.2:
	add	x11, x9, #1
	str	x11, [x19]
	ldrb	w8, [x9]
	mov	x9, x11
	cmp	x9, x10
	b.lo	.LBB48_5
.LBB48_3:
	mov	w9, wzr
	b	.LBB48_6
.LBB48_4:
	mov	w8, wzr
	cmp	x9, x10
	b.hs	.LBB48_3
.LBB48_5:
	add	x10, x9, #1
	str	x10, [x19]
	ldrb	w9, [x9]
.LBB48_6:
	mov	w10, w9
	mov	w11, #31711
	bfi	w10, w8, #8, #8
	movk	w11, #48623, lsl #16
	mul	w10, w10, w11
	mov	w11, #4228
	movk	w11, #2114, lsl #16
	cmp	w10, w11
	b.ls	.LBB48_8
// %bb.7:
	adrp	x8, .L.str.106
	add	x8, x8, :lo12:.L.str.106
	b	.LBB48_179
.LBB48_8:
	tbnz	w9, #5, .LBB48_174
// %bb.9:
	and	w8, w8, #0xf
	cmp	w8, #8
	b.ne	.LBB48_178
.LBB48_10:
	mov	x22, x19
	adrp	x16, _ZZL27stbi__compute_huffman_codesP10stbi__zbufE15length_dezigzag
	mov	w23, wzr
	mov	w8, wzr
	add	x13, sp, #496
	adrp	x21, .L_MergedGlobals.126+47
	str	wzr, [x22, #16]!
	mov	x28, x22
	add	x9, x22, #2056
	add	x20, x22, #36
	add	x15, sp, #16
	add	x16, x16, :lo12:_ZZL27stbi__compute_huffman_codesP10stbi__zbufE15length_dezigzag
	str	x9, [sp, #8]                    // 8-byte Folded Spill
	str	wzr, [x28, #4]!
	cmp	w8, #0
	b.le	.LBB48_171
.LBB48_11:
	mov	w10, w8
.LBB48_12:
	lsr	w9, w23, #1
	sub	w11, w10, #1
	cmp	w11, #1
	str	w9, [x28]
	str	w11, [x22]
	b.hi	.LBB48_20
// %bb.13:
	sub	w8, w10, #9
	b	.LBB48_16
.LBB48_14:                              //   in Loop: Header=BB48_16 Depth=1
	add	x12, x11, #1
	str	x12, [x19]
	ldrb	w11, [x11]
.LBB48_15:                              //   in Loop: Header=BB48_16 Depth=1
	lsl	w10, w11, w10
	orr	w9, w10, w9
	add	w10, w8, #16
	add	w8, w8, #8
	cmp	w8, #17
	str	w9, [x28]
	str	w10, [x22]
	b.ge	.LBB48_19
.LBB48_16:                              // =>This Inner Loop Header: Depth=1
	add	w10, w8, #8
	lsr	w11, w9, w10
	cbnz	w11, .LBB48_190
// %bb.17:                              //   in Loop: Header=BB48_16 Depth=1
	ldp	x11, x12, [x19]
	cmp	x11, x12
	b.lo	.LBB48_14
// %bb.18:                              //   in Loop: Header=BB48_16 Depth=1
	mov	w11, wzr
	b	.LBB48_15
.LBB48_19:
	add	w11, w8, #8
.LBB48_20:
	lsr	w8, w9, #2
	and	w9, w9, #0x3
	sub	w10, w11, #2
	str	w8, [x28]
	str	w10, [x22]
	cbz	w9, .LBB48_30
// %bb.21:
	cmp	w9, #1
	b.eq	.LBB48_38
// %bb.22:
	cmp	w9, #3
	b.eq	.LBB48_176
// %bb.23:
	cmp	w10, #4
	b.hi	.LBB48_42
// %bb.24:
	sub	w9, w11, #10
	add	x21, sp, #40
	b	.LBB48_27
.LBB48_25:                              //   in Loop: Header=BB48_27 Depth=1
	add	x12, x11, #1
	str	x12, [x19]
	ldrb	w11, [x11]
.LBB48_26:                              //   in Loop: Header=BB48_27 Depth=1
	lsl	w10, w11, w10
	orr	w8, w10, w8
	add	w10, w9, #16
	add	w9, w9, #8
	cmp	w9, #17
	str	w8, [x28]
	str	w10, [x22]
	b.ge	.LBB48_49
.LBB48_27:                              // =>This Inner Loop Header: Depth=1
	add	w10, w9, #8
	lsr	w11, w8, w10
	cbnz	w11, .LBB48_190
// %bb.28:                              //   in Loop: Header=BB48_27 Depth=1
	ldp	x11, x12, [x19]
	cmp	x11, x12
	b.lo	.LBB48_25
// %bb.29:                              //   in Loop: Header=BB48_27 Depth=1
	mov	w11, wzr
	b	.LBB48_26
.LBB48_30:
	ands	w9, w10, #0x7
	b.eq	.LBB48_32
// %bb.31:
	lsr	w8, w8, w9
	and	w10, w10, #0xfffffff8
	str	w8, [x28]
	str	w10, [x22]
.LBB48_32:
	cbz	w10, .LBB48_153
// %bb.33:
	mov	x9, xzr
.LBB48_34:                              // =>This Inner Loop Header: Depth=1
	mov	x11, x9
	add	x9, x9, #1
	subs	w10, w10, #8
	strb	w8, [x13, x11]
	lsr	w8, w8, #8
	b.hi	.LBB48_34
// %bb.35:
	str	w8, [x28]
	str	w10, [x22]
	cbnz	w10, .LBB48_191
// %bb.36:
	cmp	w9, #3
	b.hi	.LBB48_158
// %bb.37:
	ldp	x10, x8, [x19]
	mov	w9, w9
	cmp	x10, x8
	b.lo	.LBB48_156
	b	.LBB48_154
.LBB48_38:
	ldrb	w8, [x21, :lo12:.L_MergedGlobals.126+47]
	cbnz	w8, .LBB48_40
// %bb.39:
	adrp	x8, .L_MergedGlobals.126+16
	mov	x10, #506381209866536711
	movi	v1.16b, #8
	add	x8, x8, :lo12:.L_MergedGlobals.126+16
	movi	v0.16b, #9
	mov	x9, #578721382704613384
	stp	x10, x10, [x8, #288]
	stp	q1, q1, [x8, #128]
	stp	q1, q0, [x8, #160]
	stp	q0, q0, [x8, #192]
	stp	q0, q0, [x8, #224]
	stp	q0, q0, [x8, #256]
	movi	v0.16b, #5
	stp	q1, q1, [x8, #96]
	stp	q1, q1, [x8, #64]
	stp	q1, q1, [x8, #32]
	stp	x10, x9, [x8, #304]
	stp	q0, q0, [x8]
.LBB48_40:
	adrp	x1, .L_MergedGlobals.126+48
	mov	x0, x20
	add	x1, x1, :lo12:.L_MergedGlobals.126+48
	mov	w2, #288
	bl	_ZL20stbi__zbuild_huffmanP14stbi__zhuffmanPhi
	cbz	w0, .LBB48_180
// %bb.41:
	adrp	x1, .L_MergedGlobals.126+16
	ldr	x0, [sp, #8]                    // 8-byte Folded Reload
	add	x1, x1, :lo12:.L_MergedGlobals.126+16
	mov	w2, #32
	bl	_ZL20stbi__zbuild_huffmanP14stbi__zhuffmanPhi
	cbnz	w0, .LBB48_103
	b	.LBB48_180
.LBB48_42:
	add	x21, sp, #40
	lsr	w9, w8, #5
	sub	w11, w10, #5
	cmp	w11, #4
	str	w9, [x28]
	str	w11, [x22]
	b.hi	.LBB48_50
.LBB48_43:
	sub	w10, w10, #13
	b	.LBB48_46
.LBB48_44:                              //   in Loop: Header=BB48_46 Depth=1
	add	x13, x12, #1
	str	x13, [x19]
	ldrb	w12, [x12]
.LBB48_45:                              //   in Loop: Header=BB48_46 Depth=1
	lsl	w11, w12, w11
	orr	w9, w11, w9
	add	w11, w10, #16
	add	w10, w10, #8
	cmp	w10, #17
	str	w9, [x28]
	str	w11, [x22]
	b.ge	.LBB48_51
.LBB48_46:                              // =>This Inner Loop Header: Depth=1
	add	w11, w10, #8
	lsr	w12, w9, w11
	cbnz	w12, .LBB48_190
// %bb.47:                              //   in Loop: Header=BB48_46 Depth=1
	ldp	x12, x13, [x19]
	cmp	x12, x13
	b.lo	.LBB48_44
// %bb.48:                              //   in Loop: Header=BB48_46 Depth=1
	mov	w12, wzr
	b	.LBB48_45
.LBB48_49:
	add	w10, w9, #8
	lsr	w9, w8, #5
	sub	w11, w10, #5
	cmp	w11, #4
	str	w9, [x28]
	str	w11, [x22]
	b.ls	.LBB48_43
.LBB48_50:
	lsr	w13, w9, #5
	sub	w12, w11, #5
	cmp	w12, #3
	str	w13, [x28]
	str	w12, [x22]
	b.ls	.LBB48_52
	b	.LBB48_59
.LBB48_51:
	add	w11, w10, #8
	lsr	w13, w9, #5
	sub	w12, w11, #5
	cmp	w12, #3
	str	w13, [x28]
	str	w12, [x22]
	b.hi	.LBB48_59
.LBB48_52:
	sub	w10, w11, #13
	b	.LBB48_55
.LBB48_53:                              //   in Loop: Header=BB48_55 Depth=1
	add	x14, x12, #1
	str	x14, [x19]
	ldrb	w12, [x12]
.LBB48_54:                              //   in Loop: Header=BB48_55 Depth=1
	lsl	w11, w12, w11
	orr	w13, w11, w13
	add	w11, w10, #16
	add	w10, w10, #8
	cmp	w10, #17
	str	w13, [x28]
	str	w11, [x22]
	b.ge	.LBB48_58
.LBB48_55:                              // =>This Inner Loop Header: Depth=1
	add	w11, w10, #8
	lsr	w12, w13, w11
	cbnz	w12, .LBB48_190
// %bb.56:                              //   in Loop: Header=BB48_55 Depth=1
	ldp	x12, x14, [x19]
	cmp	x12, x14
	b.lo	.LBB48_53
// %bb.57:                              //   in Loop: Header=BB48_55 Depth=1
	mov	w12, wzr
	b	.LBB48_54
.LBB48_58:
	add	w12, w10, #8
.LBB48_59:
	and	w8, w8, #0x1f
	and	w9, w9, #0x1f
	add	w24, w8, #257
	and	w8, w13, #0xf
	mov	x10, xzr
	lsr	w11, w13, #4
	sub	w12, w12, #4
	add	w27, w9, #1
	add	w8, w8, #4
	stp	xzr, xzr, [sp, #16]
	str	w11, [x28]
	str	w12, [x22]
	stur	wzr, [sp, #31]
	b	.LBB48_61
.LBB48_60:                              //   in Loop: Header=BB48_61 Depth=1
	lsr	w13, w11, #3
	sub	w12, w9, #3
	ldrb	w9, [x16, x10]
	and	w14, w11, #0x7
	add	x10, x10, #1
	mov	w11, w13
	cmp	x10, x8
	str	w13, [x28]
	str	w12, [x22]
	strb	w14, [x15, x9]
	b.eq	.LBB48_68
.LBB48_61:                              // =>This Loop Header: Depth=1
                                        //     Child Loop BB48_65 Depth 2
	cmp	w12, #2
	b.ls	.LBB48_65
// %bb.62:                              //   in Loop: Header=BB48_61 Depth=1
	mov	w9, w12
	b	.LBB48_60
.LBB48_63:                              //   in Loop: Header=BB48_65 Depth=2
	add	x13, x9, #1
	str	x13, [x19]
	ldrb	w9, [x9]
.LBB48_64:                              //   in Loop: Header=BB48_65 Depth=2
	lsl	w13, w9, w12
	add	w9, w12, #8
	orr	w11, w13, w11
	cmp	w12, #17
	mov	w12, w9
	str	w9, [x22]
	str	w11, [x28]
	b.ge	.LBB48_60
.LBB48_65:                              //   Parent Loop BB48_61 Depth=1
                                        // =>  This Inner Loop Header: Depth=2
	lsr	w9, w11, w12
	cbnz	w9, .LBB48_190
// %bb.66:                              //   in Loop: Header=BB48_65 Depth=2
	ldp	x9, x13, [x19]
	cmp	x9, x13
	b.lo	.LBB48_63
// %bb.67:                              //   in Loop: Header=BB48_65 Depth=2
	mov	w9, wzr
	b	.LBB48_64
.LBB48_68:
	add	x0, sp, #496
	add	x1, sp, #16
	mov	w2, #19
	bl	_ZL20stbi__zbuild_huffmanP14stbi__zhuffmanPhi
	cbz	w0, .LBB48_176
// %bb.69:
	mov	w25, wzr
	str	w24, [sp, #4]                   // 4-byte Folded Spill
	add	w24, w27, w24
	b	.LBB48_71
.LBB48_70:                              //   in Loop: Header=BB48_71 Depth=1
	add	w8, w25, #1
	strb	w0, [x21, w25, sxtw]
	mov	w25, w8
	cmp	w25, w24
	b.ge	.LBB48_100
.LBB48_71:                              // =>This Loop Header: Depth=1
                                        //     Child Loop BB48_97 Depth 2
                                        //     Child Loop BB48_80 Depth 2
                                        //     Child Loop BB48_88 Depth 2
	add	x1, sp, #496
	mov	x0, x19
	bl	_ZL21stbi__zhuffman_decodeP10stbi__zbufP14stbi__zhuffman
	cmp	w0, #18
	b.hi	.LBB48_175
// %bb.72:                              //   in Loop: Header=BB48_71 Depth=1
	cmp	w0, #15
	b.ls	.LBB48_70
// %bb.73:                              //   in Loop: Header=BB48_71 Depth=1
	cmp	w0, #17
	b.eq	.LBB48_83
// %bb.74:                              //   in Loop: Header=BB48_71 Depth=1
	cmp	w0, #16
	b.ne	.LBB48_91
// %bb.75:                              //   in Loop: Header=BB48_71 Depth=1
	ldr	w9, [x22]
	ldr	w8, [x28]
	cmp	w9, #1
	b.le	.LBB48_80
// %bb.76:                              //   in Loop: Header=BB48_71 Depth=1
	mov	w10, w9
.LBB48_77:                              //   in Loop: Header=BB48_71 Depth=1
	add	x0, x21, w25, sxtw
	lsr	w9, w8, #2
	sub	w10, w10, #2
	and	w8, w8, #0x3
	add	w26, w8, #3
	ldurb	w1, [x0, #-1]
	str	w9, [x28]
	str	w10, [x22]
	mov	x2, x26
	bl	memset
	add	w25, w26, w25
	cmp	w25, w24
	b.lt	.LBB48_71
	b	.LBB48_100
.LBB48_78:                              //   in Loop: Header=BB48_80 Depth=2
	add	x11, x10, #1
	str	x11, [x19]
	ldrb	w10, [x10]
.LBB48_79:                              //   in Loop: Header=BB48_80 Depth=2
	lsl	w11, w10, w9
	add	w10, w9, #8
	orr	w8, w11, w8
	cmp	w9, #17
	mov	w9, w10
	str	w10, [x22]
	str	w8, [x28]
	b.ge	.LBB48_77
.LBB48_80:                              //   Parent Loop BB48_71 Depth=1
                                        // =>  This Inner Loop Header: Depth=2
	lsr	w10, w8, w9
	cbnz	w10, .LBB48_190
// %bb.81:                              //   in Loop: Header=BB48_80 Depth=2
	ldp	x10, x11, [x19]
	cmp	x10, x11
	b.lo	.LBB48_78
// %bb.82:                              //   in Loop: Header=BB48_80 Depth=2
	mov	w10, wzr
	b	.LBB48_79
.LBB48_83:                              //   in Loop: Header=BB48_71 Depth=1
	ldr	w9, [x22]
	ldr	w8, [x28]
	cmp	w9, #2
	b.le	.LBB48_88
// %bb.84:                              //   in Loop: Header=BB48_71 Depth=1
	mov	w10, w9
.LBB48_85:                              //   in Loop: Header=BB48_71 Depth=1
	lsr	w9, w8, #3
	and	w8, w8, #0x7
	sub	w10, w10, #3
	add	x0, x21, w25, sxtw
	add	w26, w8, #3
	b	.LBB48_94
.LBB48_86:                              //   in Loop: Header=BB48_88 Depth=2
	add	x11, x10, #1
	str	x11, [x19]
	ldrb	w10, [x10]
.LBB48_87:                              //   in Loop: Header=BB48_88 Depth=2
	lsl	w11, w10, w9
	add	w10, w9, #8
	orr	w8, w11, w8
	cmp	w9, #17
	mov	w9, w10
	str	w10, [x22]
	str	w8, [x28]
	b.ge	.LBB48_85
.LBB48_88:                              //   Parent Loop BB48_71 Depth=1
                                        // =>  This Inner Loop Header: Depth=2
	lsr	w10, w8, w9
	cbnz	w10, .LBB48_190
// %bb.89:                              //   in Loop: Header=BB48_88 Depth=2
	ldp	x10, x11, [x19]
	cmp	x10, x11
	b.lo	.LBB48_86
// %bb.90:                              //   in Loop: Header=BB48_88 Depth=2
	mov	w10, wzr
	b	.LBB48_87
.LBB48_91:                              //   in Loop: Header=BB48_71 Depth=1
	ldr	w9, [x22]
	ldr	w8, [x28]
	cmp	w9, #6
	b.le	.LBB48_97
// %bb.92:                              //   in Loop: Header=BB48_71 Depth=1
	mov	w10, w9
.LBB48_93:                              //   in Loop: Header=BB48_71 Depth=1
	lsr	w9, w8, #7
	and	w8, w8, #0x7f
	sub	w10, w10, #7
	add	x0, x21, w25, sxtw
	add	w26, w8, #11
.LBB48_94:                              //   in Loop: Header=BB48_71 Depth=1
	mov	w1, wzr
	str	w9, [x28]
	str	w10, [x22]
	mov	x2, x26
	bl	memset
	add	w25, w26, w25
	cmp	w25, w24
	b.lt	.LBB48_71
	b	.LBB48_100
.LBB48_95:                              //   in Loop: Header=BB48_97 Depth=2
	add	x11, x10, #1
	str	x11, [x19]
	ldrb	w10, [x10]
.LBB48_96:                              //   in Loop: Header=BB48_97 Depth=2
	lsl	w11, w10, w9
	add	w10, w9, #8
	orr	w8, w11, w8
	cmp	w9, #17
	mov	w9, w10
	str	w10, [x22]
	str	w8, [x28]
	b.ge	.LBB48_93
.LBB48_97:                              //   Parent Loop BB48_71 Depth=1
                                        // =>  This Inner Loop Header: Depth=2
	lsr	w10, w8, w9
	cbnz	w10, .LBB48_190
// %bb.98:                              //   in Loop: Header=BB48_97 Depth=2
	ldp	x10, x11, [x19]
	cmp	x10, x11
	b.lo	.LBB48_95
// %bb.99:                              //   in Loop: Header=BB48_97 Depth=2
	mov	w10, wzr
	b	.LBB48_96
.LBB48_100:
	b.ne	.LBB48_175
// %bb.101:
	ldr	w24, [sp, #4]                   // 4-byte Folded Reload
	add	x1, sp, #40
	mov	x0, x20
	mov	w2, w24
	bl	_ZL20stbi__zbuild_huffmanP14stbi__zhuffmanPhi
	cbz	w0, .LBB48_176
// %bb.102:
	ldr	x0, [sp, #8]                    // 8-byte Folded Reload
	add	x1, x21, w24, uxtw
	mov	w2, w27
	bl	_ZL20stbi__zbuild_huffmanP14stbi__zhuffmanPhi
	cbz	w0, .LBB48_180
.LBB48_103:
	ldr	x24, [x19, #24]
	b	.LBB48_105
.LBB48_104:                             //   in Loop: Header=BB48_105 Depth=1
	strb	w25, [x24], #1
.LBB48_105:                             // =>This Loop Header: Depth=1
                                        //     Child Loop BB48_135 Depth 2
                                        //     Child Loop BB48_140 Depth 2
                                        //     Child Loop BB48_127 Depth 2
                                        //     Child Loop BB48_151 Depth 2
                                        //     Child Loop BB48_149 Depth 2
                                        //     Child Loop BB48_110 Depth 2
	mov	x0, x19
	mov	x1, x20
	bl	_ZL21stbi__zhuffman_decodeP10stbi__zbufP14stbi__zhuffman
	mov	w25, w0
	cmp	w0, #255
	b.gt	.LBB48_113
// %bb.106:                             //   in Loop: Header=BB48_105 Depth=1
	tbnz	w25, #31, .LBB48_177
// %bb.107:                             //   in Loop: Header=BB48_105 Depth=1
	ldr	x8, [x19, #40]
	cmp	x24, x8
	b.lo	.LBB48_104
// %bb.108:                             //   in Loop: Header=BB48_105 Depth=1
	ldr	w9, [x19, #48]
	str	x24, [x19, #24]
	cbz	w9, .LBB48_181
// %bb.109:                             //   in Loop: Header=BB48_105 Depth=1
	ldr	x0, [x19, #32]
	sub	x21, x24, x0
	sub	w8, w8, w0
.LBB48_110:                             //   Parent Loop BB48_105 Depth=1
                                        // =>  This Inner Loop Header: Depth=2
	mov	w9, w8
	lsl	w8, w8, #1
	cmp	w9, w21
	b.le	.LBB48_110
// %bb.111:                             //   in Loop: Header=BB48_105 Depth=1
	sxtw	x26, w9
	mov	x1, x26
	bl	realloc
	cbz	x0, .LBB48_183
// %bb.112:                             //   in Loop: Header=BB48_105 Depth=1
	add	x24, x0, w21, sxtw
	add	x8, x0, x26
	stp	x24, x0, [x19, #24]
	str	x8, [x19, #40]
	b	.LBB48_104
.LBB48_113:                             //   in Loop: Header=BB48_105 Depth=1
	cmp	w25, #256
	b.eq	.LBB48_167
// %bb.114:                             //   in Loop: Header=BB48_105 Depth=1
	sub	w8, w25, #257
	adrp	x9, _ZL18stbi__zlength_base
	add	x9, x9, :lo12:_ZL18stbi__zlength_base
	ldr	w26, [x9, w8, uxtw #2]
	sub	x9, x8, #28
	cmn	x9, #20
	b.lo	.LBB48_118
// %bb.115:                             //   in Loop: Header=BB48_105 Depth=1
	adrp	x9, _ZL19stbi__zlength_extra
	ldr	w10, [x22]
	add	x9, x9, :lo12:_ZL19stbi__zlength_extra
	ldr	w8, [x9, x8, lsl #2]
	ldr	w9, [x28]
	cmp	w10, w8
	b.lt	.LBB48_135
// %bb.116:                             //   in Loop: Header=BB48_105 Depth=1
	mov	w11, w10
.LBB48_117:                             //   in Loop: Header=BB48_105 Depth=1
	mov	w10, #-1
	lsr	w12, w9, w8
	lsl	w10, w10, w8
	sub	w8, w11, w8
	bic	w9, w9, w10
	add	w26, w9, w26
	str	w12, [x28]
	str	w8, [x22]
.LBB48_118:                             //   in Loop: Header=BB48_105 Depth=1
	mov	x0, x19
	ldr	x1, [sp, #8]                    // 8-byte Folded Reload
	bl	_ZL21stbi__zhuffman_decodeP10stbi__zbufP14stbi__zhuffman
	tbnz	w0, #31, .LBB48_177
// %bb.119:                             //   in Loop: Header=BB48_105 Depth=1
	adrp	x8, _ZL16stbi__zdist_base
	mov	w9, w0
	add	x8, x8, :lo12:_ZL16stbi__zdist_base
	sub	x10, x9, #30
	cmn	x10, #26
	ldr	w8, [x8, w0, uxtw #2]
	b.lo	.LBB48_123
// %bb.120:                             //   in Loop: Header=BB48_105 Depth=1
	adrp	x10, _ZL17stbi__zdist_extra
	ldr	w11, [x22]
	add	x10, x10, :lo12:_ZL17stbi__zdist_extra
	ldr	w9, [x10, x9, lsl #2]
	ldr	w10, [x28]
	cmp	w11, w9
	b.lt	.LBB48_140
// %bb.121:                             //   in Loop: Header=BB48_105 Depth=1
	mov	w12, w11
.LBB48_122:                             //   in Loop: Header=BB48_105 Depth=1
	mov	w11, #-1
	lsr	w13, w10, w9
	lsl	w11, w11, w9
	sub	w9, w12, w9
	bic	w10, w10, w11
	add	w8, w10, w8
	str	w13, [x28]
	str	w9, [x22]
.LBB48_123:                             //   in Loop: Header=BB48_105 Depth=1
	ldr	x0, [x19, #32]
	sxtw	x21, w8
	sub	x27, x24, x0
	cmp	x27, x21
	b.lt	.LBB48_182
// %bb.124:                             //   in Loop: Header=BB48_105 Depth=1
	ldr	x8, [x19, #40]
	add	x9, x24, w26, sxtw
	cmp	x9, x8
	b.ls	.LBB48_130
// %bb.125:                             //   in Loop: Header=BB48_105 Depth=1
	ldr	w9, [x19, #48]
	str	x24, [x19, #24]
	cbz	w9, .LBB48_181
// %bb.126:                             //   in Loop: Header=BB48_105 Depth=1
	sub	w8, w8, w0
	add	w9, w26, w27
.LBB48_127:                             //   Parent Loop BB48_105 Depth=1
                                        // =>  This Inner Loop Header: Depth=2
	mov	w10, w8
	lsl	w8, w8, #1
	cmp	w9, w10
	b.gt	.LBB48_127
// %bb.128:                             //   in Loop: Header=BB48_105 Depth=1
	sxtw	x25, w10
	mov	x1, x25
	bl	realloc
	cbz	x0, .LBB48_183
// %bb.129:                             //   in Loop: Header=BB48_105 Depth=1
	add	x24, x0, w27, sxtw
	add	x8, x0, x25
	stp	x24, x0, [x19, #24]
	str	x8, [x19, #40]
.LBB48_130:                             //   in Loop: Header=BB48_105 Depth=1
	sub	x8, x24, x21
	cmp	w21, #1
	b.ne	.LBB48_143
// %bb.131:                             //   in Loop: Header=BB48_105 Depth=1
	cbz	w26, .LBB48_105
// %bb.132:                             //   in Loop: Header=BB48_105 Depth=1
	mov	w2, w26
	ldrb	w1, [x8]
	mov	x0, x24
	bl	memset
	sub	w8, w26, #1
	add	x8, x24, x8
	add	x24, x8, #1
	b	.LBB48_105
.LBB48_133:                             //   in Loop: Header=BB48_135 Depth=2
	add	x12, x11, #1
	str	x12, [x19]
	ldrb	w11, [x11]
.LBB48_134:                             //   in Loop: Header=BB48_135 Depth=2
	lsl	w12, w11, w10
	add	w11, w10, #8
	orr	w9, w12, w9
	cmp	w10, #17
	mov	w10, w11
	str	w11, [x22]
	str	w9, [x28]
	b.ge	.LBB48_117
.LBB48_135:                             //   Parent Loop BB48_105 Depth=1
                                        // =>  This Inner Loop Header: Depth=2
	lsr	w11, w9, w10
	cbnz	w11, .LBB48_190
// %bb.136:                             //   in Loop: Header=BB48_135 Depth=2
	ldp	x11, x12, [x19]
	cmp	x11, x12
	b.lo	.LBB48_133
// %bb.137:                             //   in Loop: Header=BB48_135 Depth=2
	mov	w11, wzr
	b	.LBB48_134
.LBB48_138:                             //   in Loop: Header=BB48_140 Depth=2
	add	x13, x12, #1
	str	x13, [x19]
	ldrb	w12, [x12]
.LBB48_139:                             //   in Loop: Header=BB48_140 Depth=2
	lsl	w13, w12, w11
	add	w12, w11, #8
	orr	w10, w13, w10
	cmp	w11, #17
	mov	w11, w12
	str	w12, [x22]
	str	w10, [x28]
	b.ge	.LBB48_122
.LBB48_140:                             //   Parent Loop BB48_105 Depth=1
                                        // =>  This Inner Loop Header: Depth=2
	lsr	w12, w10, w11
	cbnz	w12, .LBB48_190
// %bb.141:                             //   in Loop: Header=BB48_140 Depth=2
	ldp	x12, x13, [x19]
	cmp	x12, x13
	b.lo	.LBB48_138
// %bb.142:                             //   in Loop: Header=BB48_140 Depth=2
	mov	w12, wzr
	b	.LBB48_139
.LBB48_143:                             //   in Loop: Header=BB48_105 Depth=1
	cbz	w26, .LBB48_105
// %bb.144:                             //   in Loop: Header=BB48_105 Depth=1
	sub	w9, w26, #1
	cmp	w9, #31
	b.lo	.LBB48_147
// %bb.145:                             //   in Loop: Header=BB48_105 Depth=1
	add	x10, x24, #1
	sub	x11, x9, x21
	add	x11, x10, x11
	cmp	x24, x11
	b.hs	.LBB48_150
// %bb.146:                             //   in Loop: Header=BB48_105 Depth=1
	add	x10, x10, x9
	cmp	x8, x10
	b.hs	.LBB48_150
.LBB48_147:                             //   in Loop: Header=BB48_105 Depth=1
	mov	x9, x24
.LBB48_148:                             //   in Loop: Header=BB48_105 Depth=1
	mov	x24, x9
.LBB48_149:                             //   Parent Loop BB48_105 Depth=1
                                        // =>  This Inner Loop Header: Depth=2
	ldrb	w9, [x8], #1
	subs	w26, w26, #1
	strb	w9, [x24], #1
	b.ne	.LBB48_149
	b	.LBB48_105
.LBB48_150:                             //   in Loop: Header=BB48_105 Depth=1
	add	x10, x9, #1
	neg	x12, x21
	and	x11, x10, #0x1ffffffe0
	add	x9, x24, x11
	add	x8, x8, x11
	sub	w26, w26, w11
	mov	x13, x11
.LBB48_151:                             //   Parent Loop BB48_105 Depth=1
                                        // =>  This Inner Loop Header: Depth=2
	add	x14, x24, x12
	subs	x13, x13, #32
	ldp	q0, q1, [x14]
	stp	q0, q1, [x24], #32
	b.ne	.LBB48_151
// %bb.152:                             //   in Loop: Header=BB48_105 Depth=1
	mov	x24, x9
	cmp	x10, x11
	b.eq	.LBB48_105
	b	.LBB48_148
.LBB48_153:
	mov	w9, wzr
	ldp	x10, x8, [x19]
	mov	w9, w9
	cmp	x10, x8
	b.lo	.LBB48_156
.LBB48_154:
	mov	w8, #3
	add	x0, x13, x9
	sub	w8, w8, w9
	mov	w1, wzr
	add	x2, x8, #1
	bl	memset
	b	.LBB48_158
.LBB48_155:                             //   in Loop: Header=BB48_156 Depth=1
	add	x12, x10, #1
	str	x12, [x19]
	ldrb	w11, [x10]
	mov	x10, x12
	add	x12, x9, #1
	strb	w11, [x13, x9]
	mov	x9, x12
	cmp	x12, #4
	b.eq	.LBB48_158
.LBB48_156:                             // =>This Inner Loop Header: Depth=1
	cmp	x10, x8
	b.lo	.LBB48_155
// %bb.157:                             //   in Loop: Header=BB48_156 Depth=1
	mov	w11, wzr
	add	x12, x9, #1
	strb	w11, [x13, x9]
	mov	x9, x12
	cmp	x12, #4
	b.ne	.LBB48_156
.LBB48_158:
	ldrh	w25, [sp, #496]
	ldrh	w8, [sp, #498]
	eor	w9, w25, #0xffff
	cmp	w8, w9
	b.ne	.LBB48_185
// %bb.159:
	ldp	x1, x8, [x19]
	add	x9, x1, x25
	cmp	x9, x8
	b.hi	.LBB48_186
// %bb.160:
	ldr	x8, [x19, #40]
	add	x9, x24, x25
	cmp	x9, x8
	b.ls	.LBB48_166
// %bb.161:
	ldr	w9, [x19, #48]
	cbz	w9, .LBB48_187
// %bb.162:
	ldr	x0, [x19, #32]
	mov	x27, x21
	sub	x21, x24, x0
	sub	w8, w8, w0
	add	w9, w25, w21
.LBB48_163:                             // =>This Inner Loop Header: Depth=1
	mov	w10, w8
	lsl	w8, w8, #1
	cmp	w9, w10
	b.gt	.LBB48_163
// %bb.164:
	sxtw	x26, w10
	mov	x1, x26
	bl	realloc
	cbz	x0, .LBB48_188
// %bb.165:
	add	x24, x0, w21, sxtw
	add	x8, x0, x26
	ldr	x1, [x19]
	mov	x21, x27
	stp	x24, x0, [x19, #24]
	str	x8, [x19, #40]
.LBB48_166:
	mov	x0, x24
	mov	x2, x25
	bl	memcpy
	ldr	x8, [x19]
	ldr	x9, [x19, #24]
	add	x8, x8, x25
	add	x24, x9, x25
	str	x8, [x19]
	str	x24, [x19, #24]
	adrp	x16, _ZZL27stbi__compute_huffman_codesP10stbi__zbufE15length_dezigzag
	add	x13, sp, #496
	add	x15, sp, #16
	add	x16, x16, :lo12:_ZZL27stbi__compute_huffman_codesP10stbi__zbufE15length_dezigzag
	tbz	w23, #0, .LBB48_168
	b	.LBB48_184
.LBB48_167:
	adrp	x21, .L_MergedGlobals.126+47
	str	x24, [x19, #24]
	adrp	x16, _ZZL27stbi__compute_huffman_codesP10stbi__zbufE15length_dezigzag
	add	x13, sp, #496
	add	x15, sp, #16
	add	x16, x16, :lo12:_ZZL27stbi__compute_huffman_codesP10stbi__zbufE15length_dezigzag
	tbnz	w23, #0, .LBB48_184
.LBB48_168:
	ldr	w8, [x22]
	ldr	w23, [x28]
	cmp	w8, #0
	b.gt	.LBB48_11
	b	.LBB48_171
.LBB48_169:                             //   in Loop: Header=BB48_171 Depth=1
	add	x10, x9, #1
	str	x10, [x19]
	ldrb	w9, [x9]
.LBB48_170:                             //   in Loop: Header=BB48_171 Depth=1
	lsl	w9, w9, w8
	add	w10, w8, #8
	orr	w23, w9, w23
	cmp	w8, #17
	mov	w8, w10
	str	w10, [x22]
	str	w23, [x28]
	b.ge	.LBB48_12
.LBB48_171:                             // =>This Inner Loop Header: Depth=1
	lsr	w9, w23, w8
	cbnz	w9, .LBB48_190
// %bb.172:                             //   in Loop: Header=BB48_171 Depth=1
	ldp	x9, x10, [x19]
	cmp	x9, x10
	b.lo	.LBB48_169
// %bb.173:                             //   in Loop: Header=BB48_171 Depth=1
	mov	w9, wzr
	b	.LBB48_170
.LBB48_174:
	adrp	x8, .L.str.107
	add	x8, x8, :lo12:.L.str.107
	b	.LBB48_179
.LBB48_175:
	adrp	x9, .L.str.114
	adrp	x8, .L_MergedGlobals.126+8
	add	x9, x9, :lo12:.L.str.114
	str	x9, [x8, :lo12:.L_MergedGlobals.126+8]
.LBB48_176:
	mov	w0, wzr
	b	.LBB48_180
.LBB48_177:
	adrp	x9, .L.str.36
	adrp	x8, .L_MergedGlobals.126+8
	add	x9, x9, :lo12:.L.str.36
	mov	w0, wzr
	str	x9, [x8, :lo12:.L_MergedGlobals.126+8]
	b	.LBB48_180
.LBB48_178:
	adrp	x8, .L.str.91
	add	x8, x8, :lo12:.L.str.91
.LBB48_179:
	adrp	x9, .L_MergedGlobals.126+8
	mov	w0, wzr
	str	x8, [x9, :lo12:.L_MergedGlobals.126+8]
.LBB48_180:
	add	sp, sp, #2528
	ldp	x20, x19, [sp, #80]             // 16-byte Folded Reload
	ldp	x22, x21, [sp, #64]             // 16-byte Folded Reload
	ldp	x24, x23, [sp, #48]             // 16-byte Folded Reload
	ldp	x26, x25, [sp, #32]             // 16-byte Folded Reload
	ldp	x28, x27, [sp, #16]             // 16-byte Folded Reload
	ldp	x29, x30, [sp], #96             // 16-byte Folded Reload
	ret
.LBB48_181:
	adrp	x9, .L.str.112
	adrp	x8, .L_MergedGlobals.126+8
	add	x9, x9, :lo12:.L.str.112
	mov	w0, wzr
	str	x9, [x8, :lo12:.L_MergedGlobals.126+8]
	b	.LBB48_180
.LBB48_182:
	adrp	x9, .L.str.118
	adrp	x8, .L_MergedGlobals.126+8
	add	x9, x9, :lo12:.L.str.118
	mov	w0, wzr
	str	x9, [x8, :lo12:.L_MergedGlobals.126+8]
	b	.LBB48_180
.LBB48_183:
	adrp	x9, .L.str.28
	adrp	x8, .L_MergedGlobals.126+8
	add	x9, x9, :lo12:.L.str.28
	str	x9, [x8, :lo12:.L_MergedGlobals.126+8]
	b	.LBB48_180
.LBB48_184:
	mov	w0, #1
	b	.LBB48_180
.LBB48_185:
	adrp	x9, .L.str.110
	add	x9, x9, :lo12:.L.str.110
	b	.LBB48_189
.LBB48_186:
	adrp	x9, .L.str.111
	add	x9, x9, :lo12:.L.str.111
	b	.LBB48_189
.LBB48_187:
	adrp	x9, .L.str.112
	add	x9, x9, :lo12:.L.str.112
	b	.LBB48_189
.LBB48_188:
	adrp	x9, .L.str.28
	add	x9, x9, :lo12:.L.str.28
.LBB48_189:
	adrp	x8, .L_MergedGlobals.126+8
	mov	w0, wzr
	str	x9, [x8, :lo12:.L_MergedGlobals.126+8]
	b	.LBB48_180
.LBB48_190:
	adrp	x0, .L.str.108
	adrp	x1, .L.str.38
	adrp	x3, .L__PRETTY_FUNCTION__._ZL15stbi__fill_bitsP10stbi__zbuf
	add	x0, x0, :lo12:.L.str.108
	add	x1, x1, :lo12:.L.str.38
	add	x3, x3, :lo12:.L__PRETTY_FUNCTION__._ZL15stbi__fill_bitsP10stbi__zbuf
	mov	w2, #3545
	bl	__assert_fail
.LBB48_191:
	adrp	x0, .L.str.109
	adrp	x1, .L.str.38
	adrp	x3, .L__PRETTY_FUNCTION__._ZL30stbi__parse_uncomperssed_blockP10stbi__zbuf
	add	x0, x0, :lo12:.L.str.109
	add	x1, x1, :lo12:.L.str.38
	add	x3, x3, :lo12:.L__PRETTY_FUNCTION__._ZL30stbi__parse_uncomperssed_blockP10stbi__zbuf
	mov	w2, #3726
	bl	__assert_fail
.Lfunc_end48:
	.size	_ZL13stbi__do_zlibP10stbi__zbufPciii, .Lfunc_end48-_ZL13stbi__do_zlibP10stbi__zbufPciii
	.cfi_endproc
                                        // -- End function
	.globl	stbi_zlib_decode_malloc         // -- Begin function stbi_zlib_decode_malloc
	.p2align	2
	.type	stbi_zlib_decode_malloc,@function
stbi_zlib_decode_malloc:                // @stbi_zlib_decode_malloc
	.cfi_startproc
// %bb.0:
	stp	x29, x30, [sp, #-48]!           // 16-byte Folded Spill
	stp	x28, x21, [sp, #16]             // 16-byte Folded Spill
	mov	x29, sp
	stp	x20, x19, [sp, #32]             // 16-byte Folded Spill
	sub	sp, sp, #1, lsl #12             // =4096
	.cfi_def_cfa w29, 48
	.cfi_offset w19, -8
	.cfi_offset w20, -16
	.cfi_offset w21, -24
	.cfi_offset w28, -32
	.cfi_offset w30, -40
	.cfi_offset w29, -48
	mov	x20, x0
	mov	w0, #16384
	mov	x19, x2
	mov	w21, w1
	bl	malloc
	cbz	x0, .LBB49_4
// %bb.1:
	mov	x1, x0
	add	x8, x20, w21, sxtw
	mov	x0, sp
	mov	w2, #16384
	mov	w3, #1
	mov	w4, #1
	stp	x20, x8, [sp]
	bl	_ZL13stbi__do_zlibP10stbi__zbufPciii
	cbz	w0, .LBB49_5
// %bb.2:
	cbz	x19, .LBB49_6
// %bb.3:
	ldr	w8, [sp, #24]
	ldr	x0, [sp, #32]
	sub	w8, w8, w0
	str	w8, [x19]
.LBB49_4:
	add	sp, sp, #1, lsl #12             // =4096
	ldp	x20, x19, [sp, #32]             // 16-byte Folded Reload
	ldp	x28, x21, [sp, #16]             // 16-byte Folded Reload
	ldp	x29, x30, [sp], #48             // 16-byte Folded Reload
	ret
.LBB49_5:
	ldr	x0, [sp, #32]
	bl	free
	mov	x0, xzr
	add	sp, sp, #1, lsl #12             // =4096
	ldp	x20, x19, [sp, #32]             // 16-byte Folded Reload
	ldp	x28, x21, [sp, #16]             // 16-byte Folded Reload
	ldp	x29, x30, [sp], #48             // 16-byte Folded Reload
	ret
.LBB49_6:
	ldr	x0, [sp, #32]
	add	sp, sp, #1, lsl #12             // =4096
	ldp	x20, x19, [sp, #32]             // 16-byte Folded Reload
	ldp	x28, x21, [sp, #16]             // 16-byte Folded Reload
	ldp	x29, x30, [sp], #48             // 16-byte Folded Reload
	ret
.Lfunc_end49:
	.size	stbi_zlib_decode_malloc, .Lfunc_end49-stbi_zlib_decode_malloc
	.cfi_endproc
                                        // -- End function
	.globl	stbi_zlib_decode_malloc_guesssize_headerflag // -- Begin function stbi_zlib_decode_malloc_guesssize_headerflag
	.p2align	2
	.type	stbi_zlib_decode_malloc_guesssize_headerflag,@function
stbi_zlib_decode_malloc_guesssize_headerflag: // @stbi_zlib_decode_malloc_guesssize_headerflag
	.cfi_startproc
// %bb.0:
	stp	x29, x30, [sp, #-64]!           // 16-byte Folded Spill
	stp	x28, x23, [sp, #16]             // 16-byte Folded Spill
	mov	x29, sp
	stp	x22, x21, [sp, #32]             // 16-byte Folded Spill
	stp	x20, x19, [sp, #48]             // 16-byte Folded Spill
	sub	sp, sp, #1, lsl #12             // =4096
	.cfi_def_cfa w29, 64
	.cfi_offset w19, -8
	.cfi_offset w20, -16
	.cfi_offset w21, -24
	.cfi_offset w22, -32
	.cfi_offset w23, -40
	.cfi_offset w28, -48
	.cfi_offset w30, -56
	.cfi_offset w29, -64
	mov	w21, w2
	mov	x22, x0
	sxtw	x0, w21
	mov	w20, w4
	mov	x19, x3
	mov	w23, w1
	bl	malloc
	cbz	x0, .LBB50_4
// %bb.1:
	mov	x1, x0
	add	x8, x22, w23, sxtw
	mov	x0, sp
	mov	w2, w21
	mov	w3, #1
	mov	w4, w20
	stp	x22, x8, [sp]
	bl	_ZL13stbi__do_zlibP10stbi__zbufPciii
	cbz	w0, .LBB50_5
// %bb.2:
	cbz	x19, .LBB50_6
// %bb.3:
	ldr	w8, [sp, #24]
	ldr	x0, [sp, #32]
	sub	w8, w8, w0
	str	w8, [x19]
.LBB50_4:
	add	sp, sp, #1, lsl #12             // =4096
	ldp	x20, x19, [sp, #48]             // 16-byte Folded Reload
	ldp	x22, x21, [sp, #32]             // 16-byte Folded Reload
	ldp	x28, x23, [sp, #16]             // 16-byte Folded Reload
	ldp	x29, x30, [sp], #64             // 16-byte Folded Reload
	ret
.LBB50_5:
	ldr	x0, [sp, #32]
	bl	free
	mov	x0, xzr
	add	sp, sp, #1, lsl #12             // =4096
	ldp	x20, x19, [sp, #48]             // 16-byte Folded Reload
	ldp	x22, x21, [sp, #32]             // 16-byte Folded Reload
	ldp	x28, x23, [sp, #16]             // 16-byte Folded Reload
	ldp	x29, x30, [sp], #64             // 16-byte Folded Reload
	ret
.LBB50_6:
	ldr	x0, [sp, #32]
	add	sp, sp, #1, lsl #12             // =4096
	ldp	x20, x19, [sp, #48]             // 16-byte Folded Reload
	ldp	x22, x21, [sp, #32]             // 16-byte Folded Reload
	ldp	x28, x23, [sp, #16]             // 16-byte Folded Reload
	ldp	x29, x30, [sp], #64             // 16-byte Folded Reload
	ret
.Lfunc_end50:
	.size	stbi_zlib_decode_malloc_guesssize_headerflag, .Lfunc_end50-stbi_zlib_decode_malloc_guesssize_headerflag
	.cfi_endproc
                                        // -- End function
	.globl	stbi_zlib_decode_buffer         // -- Begin function stbi_zlib_decode_buffer
	.p2align	2
	.type	stbi_zlib_decode_buffer,@function
stbi_zlib_decode_buffer:                // @stbi_zlib_decode_buffer
	.cfi_startproc
// %bb.0:
	stp	x29, x30, [sp, #-32]!           // 16-byte Folded Spill
	str	x28, [sp, #16]                  // 8-byte Folded Spill
	mov	x29, sp
	sub	sp, sp, #1, lsl #12             // =4096
	.cfi_def_cfa w29, 32
	.cfi_offset w28, -16
	.cfi_offset w30, -24
	.cfi_offset w29, -32
	add	x9, x2, w3, sxtw
	mov	w8, w1
	mov	x1, x0
	mov	x0, sp
	mov	w3, wzr
	mov	w4, #1
	stp	x2, x9, [sp]
	mov	w2, w8
	bl	_ZL13stbi__do_zlibP10stbi__zbufPciii
	ldr	w8, [sp, #24]
	cmp	w0, #0
	ldr	w9, [sp, #32]
	sub	w8, w8, w9
	csinv	w0, w8, wzr, ne
	add	sp, sp, #1, lsl #12             // =4096
	ldr	x28, [sp, #16]                  // 8-byte Folded Reload
	ldp	x29, x30, [sp], #32             // 16-byte Folded Reload
	ret
.Lfunc_end51:
	.size	stbi_zlib_decode_buffer, .Lfunc_end51-stbi_zlib_decode_buffer
	.cfi_endproc
                                        // -- End function
	.globl	stbi_zlib_decode_noheader_malloc // -- Begin function stbi_zlib_decode_noheader_malloc
	.p2align	2
	.type	stbi_zlib_decode_noheader_malloc,@function
stbi_zlib_decode_noheader_malloc:       // @stbi_zlib_decode_noheader_malloc
	.cfi_startproc
// %bb.0:
	stp	x29, x30, [sp, #-48]!           // 16-byte Folded Spill
	stp	x28, x21, [sp, #16]             // 16-byte Folded Spill
	mov	x29, sp
	stp	x20, x19, [sp, #32]             // 16-byte Folded Spill
	sub	sp, sp, #1, lsl #12             // =4096
	.cfi_def_cfa w29, 48
	.cfi_offset w19, -8
	.cfi_offset w20, -16
	.cfi_offset w21, -24
	.cfi_offset w28, -32
	.cfi_offset w30, -40
	.cfi_offset w29, -48
	mov	x20, x0
	mov	w0, #16384
	mov	x19, x2
	mov	w21, w1
	bl	malloc
	cbz	x0, .LBB52_4
// %bb.1:
	mov	x1, x0
	add	x8, x20, w21, sxtw
	mov	x0, sp
	mov	w2, #16384
	mov	w3, #1
	mov	w4, wzr
	stp	x20, x8, [sp]
	bl	_ZL13stbi__do_zlibP10stbi__zbufPciii
	cbz	w0, .LBB52_5
// %bb.2:
	cbz	x19, .LBB52_6
// %bb.3:
	ldr	w8, [sp, #24]
	ldr	x0, [sp, #32]
	sub	w8, w8, w0
	str	w8, [x19]
.LBB52_4:
	add	sp, sp, #1, lsl #12             // =4096
	ldp	x20, x19, [sp, #32]             // 16-byte Folded Reload
	ldp	x28, x21, [sp, #16]             // 16-byte Folded Reload
	ldp	x29, x30, [sp], #48             // 16-byte Folded Reload
	ret
.LBB52_5:
	ldr	x0, [sp, #32]
	bl	free
	mov	x0, xzr
	add	sp, sp, #1, lsl #12             // =4096
	ldp	x20, x19, [sp, #32]             // 16-byte Folded Reload
	ldp	x28, x21, [sp, #16]             // 16-byte Folded Reload
	ldp	x29, x30, [sp], #48             // 16-byte Folded Reload
	ret
.LBB52_6:
	ldr	x0, [sp, #32]
	add	sp, sp, #1, lsl #12             // =4096
	ldp	x20, x19, [sp, #32]             // 16-byte Folded Reload
	ldp	x28, x21, [sp, #16]             // 16-byte Folded Reload
	ldp	x29, x30, [sp], #48             // 16-byte Folded Reload
	ret
.Lfunc_end52:
	.size	stbi_zlib_decode_noheader_malloc, .Lfunc_end52-stbi_zlib_decode_noheader_malloc
	.cfi_endproc
                                        // -- End function
	.globl	stbi_zlib_decode_noheader_buffer // -- Begin function stbi_zlib_decode_noheader_buffer
	.p2align	2
	.type	stbi_zlib_decode_noheader_buffer,@function
stbi_zlib_decode_noheader_buffer:       // @stbi_zlib_decode_noheader_buffer
	.cfi_startproc
// %bb.0:
	stp	x29, x30, [sp, #-32]!           // 16-byte Folded Spill
	str	x28, [sp, #16]                  // 8-byte Folded Spill
	mov	x29, sp
	sub	sp, sp, #1, lsl #12             // =4096
	.cfi_def_cfa w29, 32
	.cfi_offset w28, -16
	.cfi_offset w30, -24
	.cfi_offset w29, -32
	add	x9, x2, w3, sxtw
	mov	w8, w1
	mov	x1, x0
	mov	x0, sp
	mov	w3, wzr
	mov	w4, wzr
	stp	x2, x9, [sp]
	mov	w2, w8
	bl	_ZL13stbi__do_zlibP10stbi__zbufPciii
	ldr	w8, [sp, #24]
	cmp	w0, #0
	ldr	w9, [sp, #32]
	sub	w8, w8, w9
	csinv	w0, w8, wzr, ne
	add	sp, sp, #1, lsl #12             // =4096
	ldr	x28, [sp, #16]                  // 8-byte Folded Reload
	ldp	x29, x30, [sp], #32             // 16-byte Folded Reload
	ret
.Lfunc_end53:
	.size	stbi_zlib_decode_noheader_buffer, .Lfunc_end53-stbi_zlib_decode_noheader_buffer
	.cfi_endproc
                                        // -- End function
	.globl	stbi_set_unpremultiply_on_load  // -- Begin function stbi_set_unpremultiply_on_load
	.p2align	2
	.type	stbi_set_unpremultiply_on_load,@function
stbi_set_unpremultiply_on_load:         // @stbi_set_unpremultiply_on_load
	.cfi_startproc
// %bb.0:
	adrp	x8, _ZL27stbi__unpremultiply_on_load
	str	w0, [x8, :lo12:_ZL27stbi__unpremultiply_on_load]
	ret
.Lfunc_end54:
	.size	stbi_set_unpremultiply_on_load, .Lfunc_end54-stbi_set_unpremultiply_on_load
	.cfi_endproc
                                        // -- End function
	.globl	stbi_convert_iphone_png_to_rgb  // -- Begin function stbi_convert_iphone_png_to_rgb
	.p2align	2
	.type	stbi_convert_iphone_png_to_rgb,@function
stbi_convert_iphone_png_to_rgb:         // @stbi_convert_iphone_png_to_rgb
	.cfi_startproc
// %bb.0:
	adrp	x8, .L_MergedGlobals.126+4
	str	w0, [x8, :lo12:.L_MergedGlobals.126+4]
	ret
.Lfunc_end55:
	.size	stbi_convert_iphone_png_to_rgb, .Lfunc_end55-stbi_convert_iphone_png_to_rgb
	.cfi_endproc
                                        // -- End function
	.section	.rodata.cst8,"aM",@progbits,8
	.p2align	3                               // -- Begin function stbi_info
.LCPI56_0:
	.word	1                               // 0x1
	.word	128                             // 0x80
	.text
	.globl	stbi_info
	.p2align	2
	.type	stbi_info,@function
stbi_info:                              // @stbi_info
	.cfi_startproc
// %bb.0:
	sub	sp, sp, #288
	stp	x29, x30, [sp, #208]            // 16-byte Folded Spill
	add	x29, sp, #208
	stp	x28, x25, [sp, #224]            // 16-byte Folded Spill
	stp	x24, x23, [sp, #240]            // 16-byte Folded Spill
	stp	x22, x21, [sp, #256]            // 16-byte Folded Spill
	stp	x20, x19, [sp, #272]            // 16-byte Folded Spill
	.cfi_def_cfa w29, 80
	.cfi_offset w19, -8
	.cfi_offset w20, -16
	.cfi_offset w21, -24
	.cfi_offset w22, -32
	.cfi_offset w23, -40
	.cfi_offset w24, -48
	.cfi_offset w25, -56
	.cfi_offset w28, -64
	.cfi_offset w30, -72
	.cfi_offset w29, -80
	mov	x22, x1
	adrp	x1, .L.str.1
	add	x1, x1, :lo12:.L.str.1
	mov	x20, x3
	mov	x21, x2
	bl	fopen
	cbz	x0, .LBB56_3
// %bb.1:
	mov	x19, x0
	bl	ftell
	adrp	x9, _ZL21stbi__stdio_callbacks
	adrp	x8, .LCPI56_0
	add	x9, x9, :lo12:_ZL21stbi__stdio_callbacks
	mov	x25, sp
	add	x24, x25, #56
	mov	x23, x0
	mov	x0, x19
	mov	x1, x24
	ldr	q0, [x9]
	mov	w2, #128
	ldr	x9, [x9, #16]
	str	x24, [sp, #200]
	str	q0, [sp, #16]
	ldr	d0, [x8, :lo12:.LCPI56_0]
	ldr	x8, [sp, #16]
	stp	x9, x19, [sp, #32]
	str	d0, [sp, #48]
	blr	x8
	cbz	w0, .LBB56_4
// %bb.2:
	add	x8, x25, w0, sxtw
	add	x8, x8, #56
	b	.LBB56_5
.LBB56_3:
	adrp	x9, .L.str.2
	adrp	x8, .L_MergedGlobals.126+8
	add	x9, x9, :lo12:.L.str.2
	mov	w20, wzr
	str	x9, [x8, :lo12:.L_MergedGlobals.126+8]
	b	.LBB56_6
.LBB56_4:
	add	x8, x25, #57
	str	wzr, [sp, #48]
	strb	wzr, [sp, #56]
.LBB56_5:
	mov	x0, sp
	mov	x1, x22
	mov	x2, x21
	mov	x3, x20
	stp	x24, x8, [sp, #184]
	bl	_ZL15stbi__info_mainP13stbi__contextPiS1_S1_
	mov	w20, w0
	mov	x0, x19
	mov	x1, x23
	mov	w2, wzr
	bl	fseek
	mov	x0, x19
	bl	fclose
.LBB56_6:
	mov	w0, w20
	ldp	x20, x19, [sp, #272]            // 16-byte Folded Reload
	ldp	x22, x21, [sp, #256]            // 16-byte Folded Reload
	ldp	x24, x23, [sp, #240]            // 16-byte Folded Reload
	ldp	x28, x25, [sp, #224]            // 16-byte Folded Reload
	ldp	x29, x30, [sp, #208]            // 16-byte Folded Reload
	add	sp, sp, #288
	ret
.Lfunc_end56:
	.size	stbi_info, .Lfunc_end56-stbi_info
	.cfi_endproc
                                        // -- End function
	.section	.rodata.cst8,"aM",@progbits,8
	.p2align	3                               // -- Begin function stbi_info_from_file
.LCPI57_0:
	.word	1                               // 0x1
	.word	128                             // 0x80
	.text
	.globl	stbi_info_from_file
	.p2align	2
	.type	stbi_info_from_file,@function
stbi_info_from_file:                    // @stbi_info_from_file
	.cfi_startproc
// %bb.0:
	sub	sp, sp, #288
	stp	x29, x30, [sp, #208]            // 16-byte Folded Spill
	add	x29, sp, #208
	stp	x28, x25, [sp, #224]            // 16-byte Folded Spill
	stp	x24, x23, [sp, #240]            // 16-byte Folded Spill
	stp	x22, x21, [sp, #256]            // 16-byte Folded Spill
	stp	x20, x19, [sp, #272]            // 16-byte Folded Spill
	.cfi_def_cfa w29, 80
	.cfi_offset w19, -8
	.cfi_offset w20, -16
	.cfi_offset w21, -24
	.cfi_offset w22, -32
	.cfi_offset w23, -40
	.cfi_offset w24, -48
	.cfi_offset w25, -56
	.cfi_offset w28, -64
	.cfi_offset w30, -72
	.cfi_offset w29, -80
	mov	x20, x3
	mov	x22, x2
	mov	x23, x1
	mov	x19, x0
	bl	ftell
	adrp	x9, _ZL21stbi__stdio_callbacks
	adrp	x8, .LCPI57_0
	add	x9, x9, :lo12:_ZL21stbi__stdio_callbacks
	mov	x25, sp
	add	x24, x25, #56
	mov	x21, x0
	mov	x0, x19
	mov	x1, x24
	ldr	q0, [x9]
	mov	w2, #128
	ldr	x9, [x9, #16]
	str	x24, [sp, #200]
	str	q0, [sp, #16]
	ldr	d0, [x8, :lo12:.LCPI57_0]
	ldr	x8, [sp, #16]
	stp	x9, x19, [sp, #32]
	str	d0, [sp, #48]
	blr	x8
	cbz	w0, .LBB57_2
// %bb.1:
	add	x8, x25, w0, sxtw
	add	x8, x8, #56
	b	.LBB57_3
.LBB57_2:
	add	x8, x25, #57
	str	wzr, [sp, #48]
	strb	wzr, [sp, #56]
.LBB57_3:
	mov	x0, sp
	mov	x1, x23
	mov	x2, x22
	mov	x3, x20
	stp	x24, x8, [sp, #184]
	bl	_ZL15stbi__info_mainP13stbi__contextPiS1_S1_
	mov	w20, w0
	mov	x0, x19
	mov	x1, x21
	mov	w2, wzr
	bl	fseek
	mov	w0, w20
	ldp	x20, x19, [sp, #272]            // 16-byte Folded Reload
	ldp	x22, x21, [sp, #256]            // 16-byte Folded Reload
	ldp	x24, x23, [sp, #240]            // 16-byte Folded Reload
	ldp	x28, x25, [sp, #224]            // 16-byte Folded Reload
	ldp	x29, x30, [sp, #208]            // 16-byte Folded Reload
	add	sp, sp, #288
	ret
.Lfunc_end57:
	.size	stbi_info_from_file, .Lfunc_end57-stbi_info_from_file
	.cfi_endproc
                                        // -- End function
	.p2align	2                               // -- Begin function _ZL15stbi__info_mainP13stbi__contextPiS1_S1_
	.type	_ZL15stbi__info_mainP13stbi__contextPiS1_S1_,@function
_ZL15stbi__info_mainP13stbi__contextPiS1_S1_: // @_ZL15stbi__info_mainP13stbi__contextPiS1_S1_
	.cfi_startproc
// %bb.0:
	stp	x29, x30, [sp, #-64]!           // 16-byte Folded Spill
	stp	x28, x23, [sp, #16]             // 16-byte Folded Spill
	mov	x29, sp
	stp	x22, x21, [sp, #32]             // 16-byte Folded Spill
	stp	x20, x19, [sp, #48]             // 16-byte Folded Spill
	sub	sp, sp, #4, lsl #12             // =16384
	sub	sp, sp, #2144
	.cfi_def_cfa w29, 64
	.cfi_offset w19, -8
	.cfi_offset w20, -16
	.cfi_offset w21, -24
	.cfi_offset w22, -32
	.cfi_offset w23, -40
	.cfi_offset w28, -48
	.cfi_offset w30, -56
	.cfi_offset w29, -64
	mov	x20, x0
	mov	x22, x1
	str	x0, [sp, #8]
	add	x0, sp, #8
	mov	w1, #2
	mov	x19, x3
	mov	x21, x2
	bl	_ZL24stbi__decode_jpeg_headerP10stbi__jpegi
	cbnz	w0, .LBB58_2
// %bb.1:
	ldr	x8, [sp, #8]
	add	x0, sp, #8
	mov	w1, #2
	mov	w2, wzr
	str	x20, [sp, #8]
	ldr	x9, [x8, #200]
	str	x9, [x8, #184]
	bl	_ZL20stbi__parse_png_fileP9stbi__pngii
	cbz	w0, .LBB58_10
.LBB58_2:
	cbz	x22, .LBB58_4
// %bb.3:
	ldr	x8, [sp, #8]
	ldr	w8, [x8]
	str	w8, [x22]
.LBB58_4:
	cbz	x21, .LBB58_6
// %bb.5:
	ldr	x8, [sp, #8]
	ldr	w8, [x8, #4]
	str	w8, [x21]
.LBB58_6:
	cbz	x19, .LBB58_8
// %bb.7:
	ldr	x8, [sp, #8]
	ldr	w8, [x8, #8]
	str	w8, [x19]
.LBB58_8:
	mov	w0, #1
.LBB58_9:
	add	sp, sp, #4, lsl #12             // =16384
	add	sp, sp, #2144
	ldp	x20, x19, [sp, #48]             // 16-byte Folded Reload
	ldp	x22, x21, [sp, #32]             // 16-byte Folded Reload
	ldp	x28, x23, [sp, #16]             // 16-byte Folded Reload
	ldp	x29, x30, [sp], #64             // 16-byte Folded Reload
	ret
.LBB58_10:
	ldr	x8, [sp, #8]
	add	x1, sp, #8
	mov	x0, x20
	mov	x2, x19
	mov	w3, #1
	ldr	x9, [x8, #200]
	str	x9, [x8, #184]
	bl	_ZL16stbi__gif_headerP13stbi__contextP9stbi__gifPii
	cbz	w0, .LBB58_15
// %bb.11:
	cbz	x22, .LBB58_13
// %bb.12:
	ldr	w8, [sp, #8]
	str	w8, [x22]
.LBB58_13:
	cbz	x21, .LBB58_8
// %bb.14:
	ldr	w8, [sp, #12]
	str	w8, [x21]
	b	.LBB58_8
.LBB58_15:
	ldp	x8, x9, [x20, #192]
	cmp	x9, x8
	str	x9, [x20, #184]
	b.hs	.LBB58_17
// %bb.16:
	add	x10, x9, #1
	str	x10, [x20, #184]
	ldrb	w9, [x9]
	cmp	w9, #66
	b.eq	.LBB58_22
	b	.LBB58_90
.LBB58_17:
	ldr	w8, [x20, #48]
	cbz	w8, .LBB58_90
// %bb.18:
	ldr	x8, [x20, #16]
	add	x1, x20, #56
	ldr	x0, [x20, #40]
	ldr	w2, [x20, #52]
	blr	x8
	cbz	w0, .LBB58_20
// %bb.19:
	mov	x8, x20
	ldrb	w9, [x8, #56]!
	add	x8, x8, w0, sxtw
	b	.LBB58_21
.LBB58_20:
	mov	w9, wzr
	add	x8, x20, #57
	str	wzr, [x20, #48]
	strb	wzr, [x20, #56]
.LBB58_21:
	add	x10, x20, #57
	stp	x10, x8, [x20, #184]
	cmp	w9, #66
	b.ne	.LBB58_90
.LBB58_22:
	cmp	x10, x8
	b.hs	.LBB58_24
// %bb.23:
	add	x9, x10, #1
	str	x9, [x20, #184]
	ldrb	w10, [x10]
	b	.LBB58_29
.LBB58_24:
	ldr	w8, [x20, #48]
	cbz	w8, .LBB58_90
// %bb.25:
	ldr	x8, [x20, #16]
	add	x1, x20, #56
	ldr	x0, [x20, #40]
	ldr	w2, [x20, #52]
	blr	x8
	cbz	w0, .LBB58_27
// %bb.26:
	mov	x8, x20
	ldrb	w10, [x8, #56]!
	add	x8, x8, w0, sxtw
	b	.LBB58_28
.LBB58_27:
	mov	w10, wzr
	add	x8, x20, #57
	str	wzr, [x20, #48]
	strb	wzr, [x20, #56]
.LBB58_28:
	add	x9, x20, #57
	stp	x9, x8, [x20, #184]
.LBB58_29:
	cmp	w10, #77
	b.ne	.LBB58_90
// %bb.30:
	ldr	x10, [x20, #16]
	cbz	x10, .LBB58_33
// %bb.31:
	sub	w10, w8, w9
	cmp	w10, #11
	b.gt	.LBB58_33
// %bb.32:
	mov	w11, #12
	ldr	x9, [x20, #24]
	ldr	x0, [x20, #40]
	sub	w1, w11, w10
	str	x8, [x20, #184]
	blr	x9
	b	.LBB58_34
.LBB58_33:
	add	x8, x9, #12
	str	x8, [x20, #184]
.LBB58_34:
	mov	x0, x20
	bl	_ZL13stbi__get32leP13stbi__context
	cmp	w0, #55
	b.le	.LBB58_38
// %bb.35:
	cmp	w0, #56
	b.eq	.LBB58_40
// %bb.36:
	cmp	w0, #108
	b.eq	.LBB58_40
// %bb.37:
	cmp	w0, #124
	b.eq	.LBB58_40
	b	.LBB58_90
.LBB58_38:
	cmp	w0, #12
	b.eq	.LBB58_41
// %bb.39:
	cmp	w0, #40
	b.ne	.LBB58_90
.LBB58_40:
	mov	x0, x20
	bl	_ZL13stbi__get32leP13stbi__context
	str	w0, [x22]
	mov	x0, x20
	bl	_ZL13stbi__get32leP13stbi__context
	ldp	x9, x8, [x20, #184]
	mov	w23, w0
	b	.LBB58_72
.LBB58_41:
	ldp	x9, x8, [x20, #184]
	cmp	x9, x8
	b.hs	.LBB58_43
// %bb.42:
	add	x10, x9, #1
	str	x10, [x20, #184]
	ldrb	w23, [x9]
	mov	x9, x10
	b	.LBB58_49
.LBB58_43:
	ldr	w10, [x20, #48]
	cbz	w10, .LBB58_46
// %bb.44:
	ldr	x8, [x20, #16]
	add	x1, x20, #56
	ldr	x0, [x20, #40]
	ldr	w2, [x20, #52]
	blr	x8
	cbz	w0, .LBB58_47
// %bb.45:
	mov	x8, x20
	ldrb	w23, [x8, #56]!
	add	x8, x8, w0, sxtw
	b	.LBB58_48
.LBB58_46:
	mov	w23, wzr
	b	.LBB58_49
.LBB58_47:
	mov	w23, wzr
	add	x8, x20, #57
	str	wzr, [x20, #48]
	strb	wzr, [x20, #56]
.LBB58_48:
	add	x9, x20, #57
	stp	x9, x8, [x20, #184]
.LBB58_49:
	cmp	x9, x8
	b.hs	.LBB58_51
// %bb.50:
	add	x11, x9, #1
	str	x11, [x20, #184]
	ldrb	w10, [x9]
	mov	x9, x11
	b	.LBB58_56
.LBB58_51:
	ldr	w10, [x20, #48]
	cbz	w10, .LBB58_56
// %bb.52:
	ldr	x8, [x20, #16]
	add	x1, x20, #56
	ldr	x0, [x20, #40]
	ldr	w2, [x20, #52]
	blr	x8
	cbz	w0, .LBB58_54
// %bb.53:
	mov	x8, x20
	ldrb	w10, [x8, #56]!
	add	x8, x8, w0, sxtw
	b	.LBB58_55
.LBB58_54:
	mov	w10, wzr
	add	x8, x20, #57
	str	wzr, [x20, #48]
	strb	wzr, [x20, #56]
.LBB58_55:
	add	x9, x20, #57
	stp	x9, x8, [x20, #184]
.LBB58_56:
	bfi	w23, w10, #8, #8
	cmp	x9, x8
	str	w23, [x22]
	b.hs	.LBB58_58
// %bb.57:
	add	x10, x9, #1
	str	x10, [x20, #184]
	ldrb	w23, [x9]
	mov	x9, x10
	b	.LBB58_64
.LBB58_58:
	ldr	w10, [x20, #48]
	cbz	w10, .LBB58_61
// %bb.59:
	ldr	x8, [x20, #16]
	add	x1, x20, #56
	ldr	x0, [x20, #40]
	ldr	w2, [x20, #52]
	blr	x8
	cbz	w0, .LBB58_62
// %bb.60:
	mov	x8, x20
	ldrb	w23, [x8, #56]!
	add	x8, x8, w0, sxtw
	b	.LBB58_63
.LBB58_61:
	mov	w23, wzr
	b	.LBB58_64
.LBB58_62:
	mov	w23, wzr
	add	x8, x20, #57
	str	wzr, [x20, #48]
	strb	wzr, [x20, #56]
.LBB58_63:
	add	x9, x20, #57
	stp	x9, x8, [x20, #184]
.LBB58_64:
	cmp	x9, x8
	b.hs	.LBB58_66
// %bb.65:
	add	x11, x9, #1
	str	x11, [x20, #184]
	ldrb	w10, [x9]
	mov	x9, x11
	b	.LBB58_71
.LBB58_66:
	ldr	w10, [x20, #48]
	cbz	w10, .LBB58_71
// %bb.67:
	ldr	x8, [x20, #16]
	add	x1, x20, #56
	ldr	x0, [x20, #40]
	ldr	w2, [x20, #52]
	blr	x8
	cbz	w0, .LBB58_69
// %bb.68:
	mov	x8, x20
	ldrb	w10, [x8, #56]!
	add	x8, x8, w0, sxtw
	b	.LBB58_70
.LBB58_69:
	mov	w10, wzr
	add	x8, x20, #57
	str	wzr, [x20, #48]
	strb	wzr, [x20, #56]
.LBB58_70:
	add	x9, x20, #57
	stp	x9, x8, [x20, #184]
.LBB58_71:
	bfi	w23, w10, #8, #8
.LBB58_72:
	cmp	x9, x8
	str	w23, [x21]
	b.hs	.LBB58_74
// %bb.73:
	add	x10, x9, #1
	str	x10, [x20, #184]
	ldrb	w23, [x9]
	mov	x9, x10
	b	.LBB58_80
.LBB58_74:
	ldr	w10, [x20, #48]
	cbz	w10, .LBB58_77
// %bb.75:
	ldr	x8, [x20, #16]
	add	x1, x20, #56
	ldr	x0, [x20, #40]
	ldr	w2, [x20, #52]
	blr	x8
	cbz	w0, .LBB58_78
// %bb.76:
	mov	x8, x20
	ldrb	w23, [x8, #56]!
	add	x8, x8, w0, sxtw
	b	.LBB58_79
.LBB58_77:
	mov	w23, wzr
	b	.LBB58_80
.LBB58_78:
	mov	w23, wzr
	add	x8, x20, #57
	str	wzr, [x20, #48]
	strb	wzr, [x20, #56]
.LBB58_79:
	add	x9, x20, #57
	stp	x9, x8, [x20, #184]
.LBB58_80:
	cmp	x9, x8
	b.hs	.LBB58_82
// %bb.81:
	add	x11, x9, #1
	str	x11, [x20, #184]
	ldrb	w10, [x9]
	mov	x9, x11
	b	.LBB58_87
.LBB58_82:
	ldr	w10, [x20, #48]
	cbz	w10, .LBB58_87
// %bb.83:
	ldr	x8, [x20, #16]
	add	x1, x20, #56
	ldr	x0, [x20, #40]
	ldr	w2, [x20, #52]
	blr	x8
	cbz	w0, .LBB58_85
// %bb.84:
	mov	x8, x20
	ldrb	w10, [x8, #56]!
	add	x8, x8, w0, sxtw
	b	.LBB58_86
.LBB58_85:
	mov	w10, wzr
	add	x8, x20, #57
	str	wzr, [x20, #48]
	strb	wzr, [x20, #56]
.LBB58_86:
	add	x9, x20, #57
	stp	x9, x8, [x20, #184]
.LBB58_87:
	bfi	w23, w10, #8, #8
	cmp	w23, #1
	b.ne	.LBB58_90
// %bb.88:
	cmp	x9, x8
	b.hs	.LBB58_96
// %bb.89:
	add	x10, x9, #1
	str	x10, [x20, #184]
	ldrb	w21, [x9]
	mov	x9, x10
	b	.LBB58_102
.LBB58_90:
	ldr	x8, [x20, #200]
	mov	x0, x20
	mov	x1, x22
	mov	x2, x21
	mov	x3, x19
	str	x8, [x20, #184]
	bl	_ZL14stbi__psd_infoP13stbi__contextPiS1_S1_
	cbnz	w0, .LBB58_8
// %bb.91:
	mov	x0, x20
	mov	x1, x22
	mov	x2, x21
	mov	x3, x19
	bl	_ZL14stbi__pic_infoP13stbi__contextPiS1_S1_
	cbnz	w0, .LBB58_8
// %bb.92:
	mov	x0, x20
	mov	x1, x22
	mov	x2, x21
	mov	x3, x19
	bl	_ZL14stbi__pnm_infoP13stbi__contextPiS1_S1_
	cbnz	w0, .LBB58_8
// %bb.93:
	mov	x0, x20
	mov	x1, x22
	mov	x2, x21
	mov	x3, x19
	bl	_ZL14stbi__hdr_infoP13stbi__contextPiS1_S1_
	cbnz	w0, .LBB58_8
// %bb.94:
	mov	x0, x20
	mov	x1, x22
	mov	x2, x21
	mov	x3, x19
	bl	_ZL14stbi__tga_infoP13stbi__contextPiS1_S1_
	cbnz	w0, .LBB58_8
// %bb.95:
	adrp	x9, .L.str.9
	adrp	x8, .L_MergedGlobals.126+8
	add	x9, x9, :lo12:.L.str.9
	str	x9, [x8, :lo12:.L_MergedGlobals.126+8]
	b	.LBB58_9
.LBB58_96:
	ldr	w10, [x20, #48]
	cbz	w10, .LBB58_99
// %bb.97:
	ldr	x8, [x20, #16]
	add	x1, x20, #56
	ldr	x0, [x20, #40]
	ldr	w2, [x20, #52]
	blr	x8
	cbz	w0, .LBB58_100
// %bb.98:
	mov	x8, x20
	ldrb	w21, [x8, #56]!
	add	x8, x8, w0, sxtw
	b	.LBB58_101
.LBB58_99:
	mov	w21, wzr
	b	.LBB58_102
.LBB58_100:
	mov	w21, wzr
	add	x8, x20, #57
	str	wzr, [x20, #48]
	strb	wzr, [x20, #56]
.LBB58_101:
	add	x9, x20, #57
	stp	x9, x8, [x20, #184]
.LBB58_102:
	cmp	x9, x8
	b.hs	.LBB58_104
// %bb.103:
	add	x8, x9, #1
	str	x8, [x20, #184]
	ldrb	w8, [x9]
	b	.LBB58_109
.LBB58_104:
	ldr	w8, [x20, #48]
	cbz	w8, .LBB58_109
// %bb.105:
	ldr	x8, [x20, #16]
	add	x1, x20, #56
	ldr	x0, [x20, #40]
	ldr	w2, [x20, #52]
	blr	x8
	cbz	w0, .LBB58_107
// %bb.106:
	mov	x9, x20
	ldrb	w8, [x9, #56]!
	add	x9, x9, w0, sxtw
	b	.LBB58_108
.LBB58_107:
	mov	w8, wzr
	add	x9, x20, #57
	str	wzr, [x20, #48]
	strb	wzr, [x20, #56]
.LBB58_108:
	add	x10, x20, #57
	stp	x10, x9, [x20, #184]
.LBB58_109:
	bfi	w21, w8, #8, #8
	mov	w0, #1
	lsr	w8, w21, #3
	str	w8, [x19]
	b	.LBB58_9
.Lfunc_end58:
	.size	_ZL15stbi__info_mainP13stbi__contextPiS1_S1_, .Lfunc_end58-_ZL15stbi__info_mainP13stbi__contextPiS1_S1_
	.cfi_endproc
                                        // -- End function
	.globl	stbi_info_from_memory           // -- Begin function stbi_info_from_memory
	.p2align	2
	.type	stbi_info_from_memory,@function
stbi_info_from_memory:                  // @stbi_info_from_memory
	.cfi_startproc
// %bb.0:
	sub	sp, sp, #224
	stp	x29, x30, [sp, #208]            // 16-byte Folded Spill
	add	x29, sp, #208
	.cfi_def_cfa w29, 16
	.cfi_offset w30, -8
	.cfi_offset w29, -16
	add	x8, x0, w1, sxtw
	str	x0, [sp, #184]
	mov	x1, x2
	mov	x2, x3
	mov	x3, x4
	str	xzr, [sp, #16]
	stp	x8, x0, [sp, #192]
	mov	x0, sp
	str	wzr, [sp, #48]
	bl	_ZL15stbi__info_mainP13stbi__contextPiS1_S1_
	ldp	x29, x30, [sp, #208]            // 16-byte Folded Reload
	add	sp, sp, #224
	ret
.Lfunc_end59:
	.size	stbi_info_from_memory, .Lfunc_end59-stbi_info_from_memory
	.cfi_endproc
                                        // -- End function
	.section	.rodata.cst8,"aM",@progbits,8
	.p2align	3                               // -- Begin function stbi_info_from_callbacks
.LCPI60_0:
	.word	1                               // 0x1
	.word	128                             // 0x80
	.text
	.globl	stbi_info_from_callbacks
	.p2align	2
	.type	stbi_info_from_callbacks,@function
stbi_info_from_callbacks:               // @stbi_info_from_callbacks
	.cfi_startproc
// %bb.0:
	sub	sp, sp, #272
	stp	x29, x30, [sp, #208]            // 16-byte Folded Spill
	add	x29, sp, #208
	stp	x28, x23, [sp, #224]            // 16-byte Folded Spill
	stp	x22, x21, [sp, #240]            // 16-byte Folded Spill
	stp	x20, x19, [sp, #256]            // 16-byte Folded Spill
	.cfi_def_cfa w29, 64
	.cfi_offset w19, -8
	.cfi_offset w20, -16
	.cfi_offset w21, -24
	.cfi_offset w22, -32
	.cfi_offset w23, -40
	.cfi_offset w28, -48
	.cfi_offset w30, -56
	.cfi_offset w29, -64
	ldr	q0, [x0]
	adrp	x8, .LCPI60_0
	ldr	x9, [x0, #16]
	mov	x23, sp
	add	x22, x23, #56
	mov	x21, x2
	str	q0, [sp, #16]
	ldr	d0, [x8, :lo12:.LCPI60_0]
	stp	x9, x1, [sp, #32]
	ldr	x8, [sp, #16]
	mov	x0, x1
	mov	x1, x22
	mov	w2, #128
	mov	x19, x4
	mov	x20, x3
	str	d0, [sp, #48]
	str	x22, [sp, #200]
	blr	x8
	cbz	w0, .LBB60_2
// %bb.1:
	add	x8, x23, w0, sxtw
	add	x8, x8, #56
	b	.LBB60_3
.LBB60_2:
	add	x8, x23, #57
	str	wzr, [sp, #48]
	strb	wzr, [sp, #56]
.LBB60_3:
	mov	x0, sp
	mov	x1, x21
	mov	x2, x20
	mov	x3, x19
	stp	x22, x8, [sp, #184]
	bl	_ZL15stbi__info_mainP13stbi__contextPiS1_S1_
	ldp	x20, x19, [sp, #256]            // 16-byte Folded Reload
	ldp	x22, x21, [sp, #240]            // 16-byte Folded Reload
	ldp	x28, x23, [sp, #224]            // 16-byte Folded Reload
	ldp	x29, x30, [sp, #208]            // 16-byte Folded Reload
	add	sp, sp, #272
	ret
.Lfunc_end60:
	.size	stbi_info_from_callbacks, .Lfunc_end60-stbi_info_from_callbacks
	.cfi_endproc
                                        // -- End function
	.section	.rodata.cst8,"aM",@progbits,8
	.p2align	3                               // -- Begin function _ZNK15constant_medium3hitERK3rayddR10hit_record
.LCPI61_0:
	.xword	0x3f1a36e2eb1c432d              // double 1.0E-4
	.text
	.globl	_ZNK15constant_medium3hitERK3rayddR10hit_record
	.p2align	2
	.type	_ZNK15constant_medium3hitERK3rayddR10hit_record,@function
_ZNK15constant_medium3hitERK3rayddR10hit_record: // @_ZNK15constant_medium3hitERK3rayddR10hit_record
.Lfunc_begin7:
	.cfi_startproc
	.cfi_personality 156, DW.ref.__gxx_personality_v0
	.cfi_lsda 28, .Lexception7
// %bb.0:
	sub	sp, sp, #272
	str	d10, [sp, #192]                 // 8-byte Folded Spill
	stp	d9, d8, [sp, #200]              // 16-byte Folded Spill
	stp	x29, x30, [sp, #216]            // 16-byte Folded Spill
	add	x29, sp, #216
	str	x28, [sp, #232]                 // 8-byte Folded Spill
	stp	x22, x21, [sp, #240]            // 16-byte Folded Spill
	stp	x20, x19, [sp, #256]            // 16-byte Folded Spill
	.cfi_def_cfa w29, 56
	.cfi_offset w19, -8
	.cfi_offset w20, -16
	.cfi_offset w21, -24
	.cfi_offset w22, -32
	.cfi_offset w28, -40
	.cfi_offset w30, -48
	.cfi_offset w29, -56
	.cfi_offset b8, -64
	.cfi_offset b9, -72
	.cfi_offset b10, -80
	fmov	d9, d0
	mov	x20, x0
	movi	v0.2d, #0000000000000000
	ldr	x0, [x0, #8]
	fmov	d8, d1
	mov	x19, x2
	mov	x21, x1
	stp	q0, q0, [sp, #128]
	stp	q0, q0, [sp, #96]
	stp	q0, q0, [sp, #32]
	stp	q0, q0, [sp]
	ldr	x8, [x0]
	ldr	x8, [x8]
.Ltmp118:
	mov	x9, #-4503599627370496
	mov	x10, #9218868437227405312
	add	x2, sp, #96
	fmov	d0, x9
	fmov	d1, x10
	blr	x8
.Ltmp119:
// %bb.1:
	adrp	x22, :got:__libc_single_threaded
	ldr	x22, [x22, :got_lo12:__libc_single_threaded]
	tbz	w0, #0, .LBB61_17
// %bb.2:
	adrp	x8, .LCPI61_0
	ldr	x0, [x20, #8]
	ldr	d0, [sp, #160]
	ldr	d1, [x8, :lo12:.LCPI61_0]
	ldr	x8, [x0]
	fadd	d0, d0, d1
	ldr	x8, [x8]
.Ltmp120:
	mov	x9, #9218868437227405312
	mov	x2, sp
	mov	x1, x21
	fmov	d1, x9
	blr	x8
.Ltmp121:
// %bb.3:
	tbz	w0, #0, .LBB61_17
// %bb.4:
	ldr	d0, [sp, #160]
	fcmp	d0, d9
	b.pl	.LBB61_15
// %bb.5:
	fmov	d0, d9
	str	d9, [sp, #160]
	ldr	d1, [sp, #64]
	fcmp	d1, d8
	b.gt	.LBB61_16
.LBB61_6:
	fcmp	d0, d1
	b.ge	.LBB61_17
.LBB61_7:
	fcmp	d0, #0.0
	b.pl	.LBB61_9
// %bb.8:
	str	xzr, [sp, #160]
.LBB61_9:
	ldp	d1, d0, [x21, #24]
	fmul	d0, d0, d0
	fmadd	d0, d1, d1, d0
	ldr	d1, [x21, #40]
	fmadd	d0, d1, d1, d0
	fsqrt	d8, d0
	fcmp	d8, d8
	b.vs	.LBB61_47
.LBB61_10:
	ldr	d0, [sp, #64]
	ldr	d1, [sp, #160]
	ldr	d10, [x20, #40]
	fsub	d0, d0, d1
	fmul	d9, d8, d0
	bl	rand
	mov	x8, #4467570830351532032
	scvtf	d0, w0
	fmov	d1, x8
	fmul	d0, d0, d1
	bl	log
	fmul	d10, d10, d0
	fcmp	d10, d9
	b.gt	.LBB61_37
// %bb.11:
	fdiv	d0, d10, d8
	ldr	d1, [sp, #160]
	mov	x8, #4607182418800017408
	mov	w9, #1
	fadd	d0, d0, d1
	str	d0, [x19, #64]
	ldur	q1, [x21, #24]
	ldr	d2, [x21, #40]
	ldr	q3, [x21]
	fmul	v1.2d, v1.2d, v0.d[0]
	fmul	d0, d0, d2
	ldr	d2, [x21, #16]
	stp	xzr, xzr, [x19, #32]
	str	x8, [x19, #24]
	fadd	v1.2d, v1.2d, v3.2d
	strb	w9, [x19, #88]
	fadd	d0, d0, d2
	str	q1, [x19]
	str	d0, [x19, #16]
	ldr	x8, [x20, #24]
	str	x8, [x19, #48]
	ldr	x21, [x20, #32]
